
a.out:     file format elf32-littleriscv


Disassembly of section .text:

00010074 <register_fini>:
   10074:	000007b7          	lui	a5,0x0
   10078:	00078793          	mv	a5,a5
   1007c:	00078863          	beqz	a5,1008c <register_fini+0x18>
   10080:	00014537          	lui	a0,0x14
   10084:	87c50513          	addi	a0,a0,-1924 # 1387c <__libc_fini_array>
   10088:	19c0306f          	j	13224 <atexit>
   1008c:	00008067          	ret

00010090 <_start>:
   10090:	00017197          	auipc	gp,0x17
   10094:	c6818193          	addi	gp,gp,-920 # 26cf8 <__global_pointer$>
   10098:	1d818513          	addi	a0,gp,472 # 26ed0 <_edata>
   1009c:	23418613          	addi	a2,gp,564 # 26f2c <__BSS_END__>
   100a0:	40a60633          	sub	a2,a2,a0
   100a4:	00000593          	li	a1,0
   100a8:	208000ef          	jal	ra,102b0 <memset>
   100ac:	00003517          	auipc	a0,0x3
   100b0:	17850513          	addi	a0,a0,376 # 13224 <atexit>
   100b4:	00050863          	beqz	a0,100c4 <_start+0x34>
   100b8:	00003517          	auipc	a0,0x3
   100bc:	7c450513          	addi	a0,a0,1988 # 1387c <__libc_fini_array>
   100c0:	164030ef          	jal	ra,13224 <atexit>
   100c4:	150000ef          	jal	ra,10214 <__libc_init_array>
   100c8:	00012503          	lw	a0,0(sp)
   100cc:	00410593          	addi	a1,sp,4
   100d0:	00000613          	li	a2,0
   100d4:	07c000ef          	jal	ra,10150 <main>
   100d8:	10c0006f          	j	101e4 <exit>

000100dc <__do_global_dtors_aux>:
   100dc:	1ec1c703          	lbu	a4,492(gp) # 26ee4 <completed.5490>
   100e0:	04071463          	bnez	a4,10128 <__do_global_dtors_aux+0x4c>
   100e4:	ff010113          	addi	sp,sp,-16
   100e8:	00812423          	sw	s0,8(sp)
   100ec:	00078413          	mv	s0,a5
   100f0:	000007b7          	lui	a5,0x0
   100f4:	00112623          	sw	ra,12(sp)
   100f8:	00078793          	mv	a5,a5
   100fc:	00078a63          	beqz	a5,10110 <__do_global_dtors_aux+0x34>
   10100:	00026537          	lui	a0,0x26
   10104:	43450513          	addi	a0,a0,1076 # 26434 <__EH_FRAME_BEGIN__>
   10108:	00000097          	auipc	ra,0x0
   1010c:	000000e7          	jalr	zero # 0 <register_fini-0x10074>
   10110:	00100793          	li	a5,1
   10114:	00c12083          	lw	ra,12(sp)
   10118:	1ef18623          	sb	a5,492(gp) # 26ee4 <completed.5490>
   1011c:	00812403          	lw	s0,8(sp)
   10120:	01010113          	addi	sp,sp,16
   10124:	00008067          	ret
   10128:	00008067          	ret

0001012c <frame_dummy>:
   1012c:	000007b7          	lui	a5,0x0
   10130:	00078793          	mv	a5,a5
   10134:	00078c63          	beqz	a5,1014c <frame_dummy+0x20>
   10138:	00026537          	lui	a0,0x26
   1013c:	1f018593          	addi	a1,gp,496 # 26ee8 <object.5495>
   10140:	43450513          	addi	a0,a0,1076 # 26434 <__EH_FRAME_BEGIN__>
   10144:	00000317          	auipc	t1,0x0
   10148:	00000067          	jr	zero # 0 <register_fini-0x10074>
   1014c:	00008067          	ret

00010150 <main>:
   10150:	ff010113          	addi	sp,sp,-16
   10154:	00112623          	sw	ra,12(sp)
   10158:	00812423          	sw	s0,8(sp)
   1015c:	01010413          	addi	s0,sp,16
   10160:	1c01a783          	lw	a5,448(gp) # 26eb8 <a>
   10164:	00178713          	addi	a4,a5,1 # 1 <register_fini-0x10073>
   10168:	1ce1a023          	sw	a4,448(gp) # 26eb8 <a>
   1016c:	1c01a783          	lw	a5,448(gp) # 26eb8 <a>
   10170:	00179793          	slli	a5,a5,0x1
   10174:	00378713          	addi	a4,a5,3
   10178:	1ce1a023          	sw	a4,448(gp) # 26eb8 <a>
   1017c:	1c01a783          	lw	a5,448(gp) # 26eb8 <a>
   10180:	00578713          	addi	a4,a5,5
   10184:	1ce1a223          	sw	a4,452(gp) # 26ebc <b>
   10188:	1c41a783          	lw	a5,452(gp) # 26ebc <b>
   1018c:	07b7c713          	xori	a4,a5,123
   10190:	1ce1a423          	sw	a4,456(gp) # 26ec0 <c>
   10194:	1c41a783          	lw	a5,452(gp) # 26ebc <b>
   10198:	4027d713          	srai	a4,a5,0x2
   1019c:	1ce1a023          	sw	a4,448(gp) # 26eb8 <a>
   101a0:	1c81a783          	lw	a5,456(gp) # 26ec0 <c>
   101a4:	00279713          	slli	a4,a5,0x2
   101a8:	1ce1a223          	sw	a4,452(gp) # 26ebc <b>
   101ac:	1c01a703          	lw	a4,448(gp) # 26eb8 <a>
   101b0:	1c41a603          	lw	a2,452(gp) # 26ebc <b>
   101b4:	1c81a783          	lw	a5,456(gp) # 26ec0 <c>
   101b8:	00078693          	mv	a3,a5
   101bc:	00070593          	mv	a1,a4
   101c0:	000247b7          	lui	a5,0x24
   101c4:	74878513          	addi	a0,a5,1864 # 24748 <__clzsi2+0x4c>
   101c8:	204000ef          	jal	ra,103cc <printf>
   101cc:	00000793          	li	a5,0
   101d0:	00078513          	mv	a0,a5
   101d4:	00c12083          	lw	ra,12(sp)
   101d8:	00812403          	lw	s0,8(sp)
   101dc:	01010113          	addi	sp,sp,16
   101e0:	00008067          	ret

000101e4 <exit>:
   101e4:	ff010113          	addi	sp,sp,-16
   101e8:	00000593          	li	a1,0
   101ec:	00812423          	sw	s0,8(sp)
   101f0:	00112623          	sw	ra,12(sp)
   101f4:	00050413          	mv	s0,a0
   101f8:	70d020ef          	jal	ra,13104 <__call_exitprocs>
   101fc:	1b81a503          	lw	a0,440(gp) # 26eb0 <_global_impure_ptr>
   10200:	03c52783          	lw	a5,60(a0)
   10204:	00078463          	beqz	a5,1020c <exit+0x28>
   10208:	000780e7          	jalr	a5
   1020c:	00040513          	mv	a0,s0
   10210:	3980f0ef          	jal	ra,1f5a8 <_exit>

00010214 <__libc_init_array>:
   10214:	ff010113          	addi	sp,sp,-16
   10218:	00812423          	sw	s0,8(sp)
   1021c:	01212023          	sw	s2,0(sp)
   10220:	00026437          	lui	s0,0x26
   10224:	00026937          	lui	s2,0x26
   10228:	4e840793          	addi	a5,s0,1256 # 264e8 <__init_array_start>
   1022c:	4e890913          	addi	s2,s2,1256 # 264e8 <__init_array_start>
   10230:	40f90933          	sub	s2,s2,a5
   10234:	00112623          	sw	ra,12(sp)
   10238:	00912223          	sw	s1,4(sp)
   1023c:	40295913          	srai	s2,s2,0x2
   10240:	02090063          	beqz	s2,10260 <__libc_init_array+0x4c>
   10244:	4e840413          	addi	s0,s0,1256
   10248:	00000493          	li	s1,0
   1024c:	00042783          	lw	a5,0(s0)
   10250:	00148493          	addi	s1,s1,1
   10254:	00440413          	addi	s0,s0,4
   10258:	000780e7          	jalr	a5
   1025c:	fe9918e3          	bne	s2,s1,1024c <__libc_init_array+0x38>
   10260:	00026437          	lui	s0,0x26
   10264:	00026937          	lui	s2,0x26
   10268:	4e840793          	addi	a5,s0,1256 # 264e8 <__init_array_start>
   1026c:	4f090913          	addi	s2,s2,1264 # 264f0 <__init_array_end>
   10270:	40f90933          	sub	s2,s2,a5
   10274:	40295913          	srai	s2,s2,0x2
   10278:	02090063          	beqz	s2,10298 <__libc_init_array+0x84>
   1027c:	4e840413          	addi	s0,s0,1256
   10280:	00000493          	li	s1,0
   10284:	00042783          	lw	a5,0(s0)
   10288:	00148493          	addi	s1,s1,1
   1028c:	00440413          	addi	s0,s0,4
   10290:	000780e7          	jalr	a5
   10294:	fe9918e3          	bne	s2,s1,10284 <__libc_init_array+0x70>
   10298:	00c12083          	lw	ra,12(sp)
   1029c:	00812403          	lw	s0,8(sp)
   102a0:	00412483          	lw	s1,4(sp)
   102a4:	00012903          	lw	s2,0(sp)
   102a8:	01010113          	addi	sp,sp,16
   102ac:	00008067          	ret

000102b0 <memset>:
   102b0:	00f00313          	li	t1,15
   102b4:	00050713          	mv	a4,a0
   102b8:	02c37e63          	bgeu	t1,a2,102f4 <memset+0x44>
   102bc:	00f77793          	andi	a5,a4,15
   102c0:	0a079063          	bnez	a5,10360 <memset+0xb0>
   102c4:	08059263          	bnez	a1,10348 <memset+0x98>
   102c8:	ff067693          	andi	a3,a2,-16
   102cc:	00f67613          	andi	a2,a2,15
   102d0:	00e686b3          	add	a3,a3,a4
   102d4:	00b72023          	sw	a1,0(a4)
   102d8:	00b72223          	sw	a1,4(a4)
   102dc:	00b72423          	sw	a1,8(a4)
   102e0:	00b72623          	sw	a1,12(a4)
   102e4:	01070713          	addi	a4,a4,16
   102e8:	fed766e3          	bltu	a4,a3,102d4 <memset+0x24>
   102ec:	00061463          	bnez	a2,102f4 <memset+0x44>
   102f0:	00008067          	ret
   102f4:	40c306b3          	sub	a3,t1,a2
   102f8:	00269693          	slli	a3,a3,0x2
   102fc:	00000297          	auipc	t0,0x0
   10300:	005686b3          	add	a3,a3,t0
   10304:	00c68067          	jr	12(a3)
   10308:	00b70723          	sb	a1,14(a4)
   1030c:	00b706a3          	sb	a1,13(a4)
   10310:	00b70623          	sb	a1,12(a4)
   10314:	00b705a3          	sb	a1,11(a4)
   10318:	00b70523          	sb	a1,10(a4)
   1031c:	00b704a3          	sb	a1,9(a4)
   10320:	00b70423          	sb	a1,8(a4)
   10324:	00b703a3          	sb	a1,7(a4)
   10328:	00b70323          	sb	a1,6(a4)
   1032c:	00b702a3          	sb	a1,5(a4)
   10330:	00b70223          	sb	a1,4(a4)
   10334:	00b701a3          	sb	a1,3(a4)
   10338:	00b70123          	sb	a1,2(a4)
   1033c:	00b700a3          	sb	a1,1(a4)
   10340:	00b70023          	sb	a1,0(a4)
   10344:	00008067          	ret
   10348:	0ff5f593          	andi	a1,a1,255
   1034c:	00859693          	slli	a3,a1,0x8
   10350:	00d5e5b3          	or	a1,a1,a3
   10354:	01059693          	slli	a3,a1,0x10
   10358:	00d5e5b3          	or	a1,a1,a3
   1035c:	f6dff06f          	j	102c8 <memset+0x18>
   10360:	00279693          	slli	a3,a5,0x2
   10364:	00000297          	auipc	t0,0x0
   10368:	005686b3          	add	a3,a3,t0
   1036c:	00008293          	mv	t0,ra
   10370:	fa0680e7          	jalr	-96(a3)
   10374:	00028093          	mv	ra,t0
   10378:	ff078793          	addi	a5,a5,-16
   1037c:	40f70733          	sub	a4,a4,a5
   10380:	00f60633          	add	a2,a2,a5
   10384:	f6c378e3          	bgeu	t1,a2,102f4 <memset+0x44>
   10388:	f3dff06f          	j	102c4 <memset+0x14>

0001038c <_printf_r>:
   1038c:	fc010113          	addi	sp,sp,-64
   10390:	02c12423          	sw	a2,40(sp)
   10394:	02d12623          	sw	a3,44(sp)
   10398:	02e12823          	sw	a4,48(sp)
   1039c:	02f12a23          	sw	a5,52(sp)
   103a0:	03012c23          	sw	a6,56(sp)
   103a4:	03112e23          	sw	a7,60(sp)
   103a8:	00058613          	mv	a2,a1
   103ac:	00852583          	lw	a1,8(a0)
   103b0:	02810693          	addi	a3,sp,40
   103b4:	00112e23          	sw	ra,28(sp)
   103b8:	00d12623          	sw	a3,12(sp)
   103bc:	05c000ef          	jal	ra,10418 <_vfprintf_r>
   103c0:	01c12083          	lw	ra,28(sp)
   103c4:	04010113          	addi	sp,sp,64
   103c8:	00008067          	ret

000103cc <printf>:
   103cc:	1cc1a303          	lw	t1,460(gp) # 26ec4 <_impure_ptr>
   103d0:	fc010113          	addi	sp,sp,-64
   103d4:	02c12423          	sw	a2,40(sp)
   103d8:	02d12623          	sw	a3,44(sp)
   103dc:	02b12223          	sw	a1,36(sp)
   103e0:	02e12823          	sw	a4,48(sp)
   103e4:	02f12a23          	sw	a5,52(sp)
   103e8:	03012c23          	sw	a6,56(sp)
   103ec:	03112e23          	sw	a7,60(sp)
   103f0:	00832583          	lw	a1,8(t1) # 1014c <frame_dummy+0x20>
   103f4:	02410693          	addi	a3,sp,36
   103f8:	00050613          	mv	a2,a0
   103fc:	00030513          	mv	a0,t1
   10400:	00112e23          	sw	ra,28(sp)
   10404:	00d12623          	sw	a3,12(sp)
   10408:	010000ef          	jal	ra,10418 <_vfprintf_r>
   1040c:	01c12083          	lw	ra,28(sp)
   10410:	04010113          	addi	sp,sp,64
   10414:	00008067          	ret

00010418 <_vfprintf_r>:
   10418:	e1010113          	addi	sp,sp,-496
   1041c:	1e112623          	sw	ra,492(sp)
   10420:	1f212023          	sw	s2,480(sp)
   10424:	1d812423          	sw	s8,456(sp)
   10428:	1da12023          	sw	s10,448(sp)
   1042c:	00058c13          	mv	s8,a1
   10430:	00060913          	mv	s2,a2
   10434:	00d12a23          	sw	a3,20(sp)
   10438:	1e812423          	sw	s0,488(sp)
   1043c:	1e912223          	sw	s1,484(sp)
   10440:	1d312e23          	sw	s3,476(sp)
   10444:	1d412c23          	sw	s4,472(sp)
   10448:	1d512a23          	sw	s5,468(sp)
   1044c:	1d612823          	sw	s6,464(sp)
   10450:	1d712623          	sw	s7,460(sp)
   10454:	1d912223          	sw	s9,452(sp)
   10458:	1bb12e23          	sw	s11,444(sp)
   1045c:	00050d13          	mv	s10,a0
   10460:	5c4060ef          	jal	ra,16a24 <_localeconv_r>
   10464:	00052783          	lw	a5,0(a0)
   10468:	00078513          	mv	a0,a5
   1046c:	02f12823          	sw	a5,48(sp)
   10470:	534080ef          	jal	ra,189a4 <strlen>
   10474:	02a12623          	sw	a0,44(sp)
   10478:	0e012823          	sw	zero,240(sp)
   1047c:	0e012a23          	sw	zero,244(sp)
   10480:	0e012c23          	sw	zero,248(sp)
   10484:	0e012e23          	sw	zero,252(sp)
   10488:	000d0663          	beqz	s10,10494 <_vfprintf_r+0x7c>
   1048c:	038d2703          	lw	a4,56(s10)
   10490:	0c0708e3          	beqz	a4,10d60 <_vfprintf_r+0x948>
   10494:	00cc1683          	lh	a3,12(s8)
   10498:	01069713          	slli	a4,a3,0x10
   1049c:	01269793          	slli	a5,a3,0x12
   104a0:	01075713          	srli	a4,a4,0x10
   104a4:	0207ca63          	bltz	a5,104d8 <_vfprintf_r+0xc0>
   104a8:	00002737          	lui	a4,0x2
   104ac:	064c2603          	lw	a2,100(s8)
   104b0:	00e6e733          	or	a4,a3,a4
   104b4:	01071713          	slli	a4,a4,0x10
   104b8:	ffffe6b7          	lui	a3,0xffffe
   104bc:	41075713          	srai	a4,a4,0x10
   104c0:	fff68693          	addi	a3,a3,-1 # ffffdfff <__BSS_END__+0xfffd70d3>
   104c4:	00d676b3          	and	a3,a2,a3
   104c8:	00ec1623          	sh	a4,12(s8)
   104cc:	01071713          	slli	a4,a4,0x10
   104d0:	06dc2223          	sw	a3,100(s8)
   104d4:	01075713          	srli	a4,a4,0x10
   104d8:	00877693          	andi	a3,a4,8
   104dc:	2e068863          	beqz	a3,107cc <_vfprintf_r+0x3b4>
   104e0:	010c2683          	lw	a3,16(s8)
   104e4:	2e068463          	beqz	a3,107cc <_vfprintf_r+0x3b4>
   104e8:	01a77713          	andi	a4,a4,26
   104ec:	00a00693          	li	a3,10
   104f0:	30d70063          	beq	a4,a3,107f0 <_vfprintf_r+0x3d8>
   104f4:	10c10793          	addi	a5,sp,268
   104f8:	00024737          	lui	a4,0x24
   104fc:	0ef12223          	sw	a5,228(sp)
   10500:	00078893          	mv	a7,a5
   10504:	79870793          	addi	a5,a4,1944 # 24798 <__clzsi2+0x9c>
   10508:	00025737          	lui	a4,0x25
   1050c:	00f12c23          	sw	a5,24(sp)
   10510:	00090b13          	mv	s6,s2
   10514:	91470793          	addi	a5,a4,-1772 # 24914 <zeroes.4484>
   10518:	00f12423          	sw	a5,8(sp)
   1051c:	000b4783          	lbu	a5,0(s6)
   10520:	0e012623          	sw	zero,236(sp)
   10524:	0e012423          	sw	zero,232(sp)
   10528:	02012023          	sw	zero,32(sp)
   1052c:	02012a23          	sw	zero,52(sp)
   10530:	02012c23          	sw	zero,56(sp)
   10534:	02012e23          	sw	zero,60(sp)
   10538:	04012423          	sw	zero,72(sp)
   1053c:	04012623          	sw	zero,76(sp)
   10540:	00012623          	sw	zero,12(sp)
   10544:	22078663          	beqz	a5,10770 <_vfprintf_r+0x358>
   10548:	000b0413          	mv	s0,s6
   1054c:	02500693          	li	a3,37
   10550:	30d78a63          	beq	a5,a3,10864 <_vfprintf_r+0x44c>
   10554:	00144783          	lbu	a5,1(s0)
   10558:	00140413          	addi	s0,s0,1
   1055c:	fe079ae3          	bnez	a5,10550 <_vfprintf_r+0x138>
   10560:	416404b3          	sub	s1,s0,s6
   10564:	21640663          	beq	s0,s6,10770 <_vfprintf_r+0x358>
   10568:	0ec12683          	lw	a3,236(sp)
   1056c:	0e812783          	lw	a5,232(sp)
   10570:	0168a023          	sw	s6,0(a7)
   10574:	009686b3          	add	a3,a3,s1
   10578:	00178793          	addi	a5,a5,1
   1057c:	0098a223          	sw	s1,4(a7)
   10580:	0ed12623          	sw	a3,236(sp)
   10584:	0ef12423          	sw	a5,232(sp)
   10588:	00700693          	li	a3,7
   1058c:	00888893          	addi	a7,a7,8
   10590:	2ef6c263          	blt	a3,a5,10874 <_vfprintf_r+0x45c>
   10594:	00c12703          	lw	a4,12(sp)
   10598:	00044783          	lbu	a5,0(s0)
   1059c:	00970733          	add	a4,a4,s1
   105a0:	00e12623          	sw	a4,12(sp)
   105a4:	1c078663          	beqz	a5,10770 <_vfprintf_r+0x358>
   105a8:	00144483          	lbu	s1,1(s0)
   105ac:	0c0103a3          	sb	zero,199(sp)
   105b0:	00140413          	addi	s0,s0,1
   105b4:	fff00d93          	li	s11,-1
   105b8:	00000993          	li	s3,0
   105bc:	00000a13          	li	s4,0
   105c0:	05a00913          	li	s2,90
   105c4:	00900a93          	li	s5,9
   105c8:	02a00b93          	li	s7,42
   105cc:	00088c93          	mv	s9,a7
   105d0:	00140413          	addi	s0,s0,1
   105d4:	fe048793          	addi	a5,s1,-32
   105d8:	04f96463          	bltu	s2,a5,10620 <_vfprintf_r+0x208>
   105dc:	01812703          	lw	a4,24(sp)
   105e0:	00279793          	slli	a5,a5,0x2
   105e4:	00e787b3          	add	a5,a5,a4
   105e8:	0007a783          	lw	a5,0(a5)
   105ec:	00078067          	jr	a5
   105f0:	00000993          	li	s3,0
   105f4:	fd048693          	addi	a3,s1,-48
   105f8:	00044483          	lbu	s1,0(s0)
   105fc:	00299793          	slli	a5,s3,0x2
   10600:	013787b3          	add	a5,a5,s3
   10604:	00179793          	slli	a5,a5,0x1
   10608:	00f689b3          	add	s3,a3,a5
   1060c:	fd048693          	addi	a3,s1,-48
   10610:	00140413          	addi	s0,s0,1
   10614:	fedaf2e3          	bgeu	s5,a3,105f8 <_vfprintf_r+0x1e0>
   10618:	fe048793          	addi	a5,s1,-32
   1061c:	fcf970e3          	bgeu	s2,a5,105dc <_vfprintf_r+0x1c4>
   10620:	000c8893          	mv	a7,s9
   10624:	14048663          	beqz	s1,10770 <_vfprintf_r+0x358>
   10628:	14910623          	sb	s1,332(sp)
   1062c:	0c0103a3          	sb	zero,199(sp)
   10630:	00100a93          	li	s5,1
   10634:	00100c93          	li	s9,1
   10638:	14c10b13          	addi	s6,sp,332
   1063c:	00012823          	sw	zero,16(sp)
   10640:	00000d93          	li	s11,0
   10644:	02012423          	sw	zero,40(sp)
   10648:	02012223          	sw	zero,36(sp)
   1064c:	00012e23          	sw	zero,28(sp)
   10650:	002a7b93          	andi	s7,s4,2
   10654:	000b8463          	beqz	s7,1065c <_vfprintf_r+0x244>
   10658:	002a8a93          	addi	s5,s5,2
   1065c:	084a7913          	andi	s2,s4,132
   10660:	0ec12783          	lw	a5,236(sp)
   10664:	00091663          	bnez	s2,10670 <_vfprintf_r+0x258>
   10668:	41598833          	sub	a6,s3,s5
   1066c:	730046e3          	bgtz	a6,11598 <_vfprintf_r+0x1180>
   10670:	0c714683          	lbu	a3,199(sp)
   10674:	02068a63          	beqz	a3,106a8 <_vfprintf_r+0x290>
   10678:	0e812683          	lw	a3,232(sp)
   1067c:	0c710613          	addi	a2,sp,199
   10680:	00c8a023          	sw	a2,0(a7)
   10684:	00178793          	addi	a5,a5,1
   10688:	00100613          	li	a2,1
   1068c:	00168693          	addi	a3,a3,1
   10690:	00c8a223          	sw	a2,4(a7)
   10694:	0ef12623          	sw	a5,236(sp)
   10698:	0ed12423          	sw	a3,232(sp)
   1069c:	00700613          	li	a2,7
   106a0:	00888893          	addi	a7,a7,8
   106a4:	54d64263          	blt	a2,a3,10be8 <_vfprintf_r+0x7d0>
   106a8:	020b8c63          	beqz	s7,106e0 <_vfprintf_r+0x2c8>
   106ac:	0e812683          	lw	a3,232(sp)
   106b0:	0c810613          	addi	a2,sp,200
   106b4:	00c8a023          	sw	a2,0(a7)
   106b8:	00278793          	addi	a5,a5,2
   106bc:	00200613          	li	a2,2
   106c0:	00168693          	addi	a3,a3,1
   106c4:	00c8a223          	sw	a2,4(a7)
   106c8:	0ef12623          	sw	a5,236(sp)
   106cc:	0ed12423          	sw	a3,232(sp)
   106d0:	00700613          	li	a2,7
   106d4:	00888893          	addi	a7,a7,8
   106d8:	00d65463          	bge	a2,a3,106e0 <_vfprintf_r+0x2c8>
   106dc:	7ad0006f          	j	11688 <_vfprintf_r+0x1270>
   106e0:	08000693          	li	a3,128
   106e4:	3ed90ee3          	beq	s2,a3,112e0 <_vfprintf_r+0xec8>
   106e8:	419d8db3          	sub	s11,s11,s9
   106ec:	4bb04ae3          	bgtz	s11,113a0 <_vfprintf_r+0xf88>
   106f0:	100a7693          	andi	a3,s4,256
   106f4:	2a0698e3          	bnez	a3,111a4 <_vfprintf_r+0xd8c>
   106f8:	0e812703          	lw	a4,232(sp)
   106fc:	019787b3          	add	a5,a5,s9
   10700:	0168a023          	sw	s6,0(a7)
   10704:	00170713          	addi	a4,a4,1
   10708:	0198a223          	sw	s9,4(a7)
   1070c:	0ef12623          	sw	a5,236(sp)
   10710:	0ee12423          	sw	a4,232(sp)
   10714:	00700693          	li	a3,7
   10718:	56e6c863          	blt	a3,a4,10c88 <_vfprintf_r+0x870>
   1071c:	00888893          	addi	a7,a7,8
   10720:	004a7a13          	andi	s4,s4,4
   10724:	000a0663          	beqz	s4,10730 <_vfprintf_r+0x318>
   10728:	415984b3          	sub	s1,s3,s5
   1072c:	56904e63          	bgtz	s1,10ca8 <_vfprintf_r+0x890>
   10730:	0159d463          	bge	s3,s5,10738 <_vfprintf_r+0x320>
   10734:	000a8993          	mv	s3,s5
   10738:	00c12703          	lw	a4,12(sp)
   1073c:	01370733          	add	a4,a4,s3
   10740:	00e12623          	sw	a4,12(sp)
   10744:	500798e3          	bnez	a5,11454 <_vfprintf_r+0x103c>
   10748:	01012783          	lw	a5,16(sp)
   1074c:	0e012423          	sw	zero,232(sp)
   10750:	00078863          	beqz	a5,10760 <_vfprintf_r+0x348>
   10754:	01012583          	lw	a1,16(sp)
   10758:	000d0513          	mv	a0,s10
   1075c:	2ac030ef          	jal	ra,13a08 <_free_r>
   10760:	10c10893          	addi	a7,sp,268
   10764:	00040b13          	mv	s6,s0
   10768:	000b4783          	lbu	a5,0(s6)
   1076c:	dc079ee3          	bnez	a5,10548 <_vfprintf_r+0x130>
   10770:	0ec12783          	lw	a5,236(sp)
   10774:	00078463          	beqz	a5,1077c <_vfprintf_r+0x364>
   10778:	3450106f          	j	122bc <_vfprintf_r+0x1ea4>
   1077c:	00cc5783          	lhu	a5,12(s8)
   10780:	0407f793          	andi	a5,a5,64
   10784:	00078463          	beqz	a5,1078c <_vfprintf_r+0x374>
   10788:	2500206f          	j	129d8 <_vfprintf_r+0x25c0>
   1078c:	1ec12083          	lw	ra,492(sp)
   10790:	1e812403          	lw	s0,488(sp)
   10794:	00c12503          	lw	a0,12(sp)
   10798:	1e412483          	lw	s1,484(sp)
   1079c:	1e012903          	lw	s2,480(sp)
   107a0:	1dc12983          	lw	s3,476(sp)
   107a4:	1d812a03          	lw	s4,472(sp)
   107a8:	1d412a83          	lw	s5,468(sp)
   107ac:	1d012b03          	lw	s6,464(sp)
   107b0:	1cc12b83          	lw	s7,460(sp)
   107b4:	1c812c03          	lw	s8,456(sp)
   107b8:	1c412c83          	lw	s9,452(sp)
   107bc:	1c012d03          	lw	s10,448(sp)
   107c0:	1bc12d83          	lw	s11,444(sp)
   107c4:	1f010113          	addi	sp,sp,496
   107c8:	00008067          	ret
   107cc:	000c0593          	mv	a1,s8
   107d0:	000d0513          	mv	a0,s10
   107d4:	7d4020ef          	jal	ra,12fa8 <__swsetup_r>
   107d8:	00050463          	beqz	a0,107e0 <_vfprintf_r+0x3c8>
   107dc:	1fc0206f          	j	129d8 <_vfprintf_r+0x25c0>
   107e0:	00cc5703          	lhu	a4,12(s8)
   107e4:	00a00693          	li	a3,10
   107e8:	01a77713          	andi	a4,a4,26
   107ec:	d0d714e3          	bne	a4,a3,104f4 <_vfprintf_r+0xdc>
   107f0:	00ec1703          	lh	a4,14(s8)
   107f4:	d00740e3          	bltz	a4,104f4 <_vfprintf_r+0xdc>
   107f8:	01412683          	lw	a3,20(sp)
   107fc:	00090613          	mv	a2,s2
   10800:	000c0593          	mv	a1,s8
   10804:	000d0513          	mv	a0,s10
   10808:	6e0020ef          	jal	ra,12ee8 <__sbprintf>
   1080c:	00a12623          	sw	a0,12(sp)
   10810:	f7dff06f          	j	1078c <_vfprintf_r+0x374>
   10814:	000d0513          	mv	a0,s10
   10818:	20c060ef          	jal	ra,16a24 <_localeconv_r>
   1081c:	00452783          	lw	a5,4(a0)
   10820:	00078513          	mv	a0,a5
   10824:	04f12623          	sw	a5,76(sp)
   10828:	17c080ef          	jal	ra,189a4 <strlen>
   1082c:	00050793          	mv	a5,a0
   10830:	000d0513          	mv	a0,s10
   10834:	00078493          	mv	s1,a5
   10838:	04f12423          	sw	a5,72(sp)
   1083c:	1e8060ef          	jal	ra,16a24 <_localeconv_r>
   10840:	00852783          	lw	a5,8(a0)
   10844:	02f12e23          	sw	a5,60(sp)
   10848:	00048463          	beqz	s1,10850 <_vfprintf_r+0x438>
   1084c:	14c0106f          	j	11998 <_vfprintf_r+0x1580>
   10850:	00044483          	lbu	s1,0(s0)
   10854:	d7dff06f          	j	105d0 <_vfprintf_r+0x1b8>
   10858:	00044483          	lbu	s1,0(s0)
   1085c:	020a6a13          	ori	s4,s4,32
   10860:	d71ff06f          	j	105d0 <_vfprintf_r+0x1b8>
   10864:	416404b3          	sub	s1,s0,s6
   10868:	d16410e3          	bne	s0,s6,10568 <_vfprintf_r+0x150>
   1086c:	00044783          	lbu	a5,0(s0)
   10870:	d35ff06f          	j	105a4 <_vfprintf_r+0x18c>
   10874:	0e410613          	addi	a2,sp,228
   10878:	000c0593          	mv	a1,s8
   1087c:	000d0513          	mv	a0,s10
   10880:	5850a0ef          	jal	ra,1b604 <__sprint_r>
   10884:	ee051ce3          	bnez	a0,1077c <_vfprintf_r+0x364>
   10888:	10c10893          	addi	a7,sp,268
   1088c:	d09ff06f          	j	10594 <_vfprintf_r+0x17c>
   10890:	008a7793          	andi	a5,s4,8
   10894:	000c8893          	mv	a7,s9
   10898:	00078463          	beqz	a5,108a0 <_vfprintf_r+0x488>
   1089c:	14c0106f          	j	119e8 <_vfprintf_r+0x15d0>
   108a0:	01412783          	lw	a5,20(sp)
   108a4:	0b010513          	addi	a0,sp,176
   108a8:	01912823          	sw	s9,16(sp)
   108ac:	00778793          	addi	a5,a5,7
   108b0:	ff87f793          	andi	a5,a5,-8
   108b4:	0007a583          	lw	a1,0(a5)
   108b8:	0047a603          	lw	a2,4(a5)
   108bc:	00878793          	addi	a5,a5,8
   108c0:	00f12a23          	sw	a5,20(sp)
   108c4:	025130ef          	jal	ra,240e8 <__extenddftf2>
   108c8:	0b012783          	lw	a5,176(sp)
   108cc:	01012883          	lw	a7,16(sp)
   108d0:	0ef12823          	sw	a5,240(sp)
   108d4:	0b412783          	lw	a5,180(sp)
   108d8:	0ef12a23          	sw	a5,244(sp)
   108dc:	0b812783          	lw	a5,184(sp)
   108e0:	0ef12c23          	sw	a5,248(sp)
   108e4:	0bc12783          	lw	a5,188(sp)
   108e8:	0ef12e23          	sw	a5,252(sp)
   108ec:	0f010513          	addi	a0,sp,240
   108f0:	01112823          	sw	a7,16(sp)
   108f4:	0c4060ef          	jal	ra,169b8 <_ldcheck>
   108f8:	0ca12623          	sw	a0,204(sp)
   108fc:	00200793          	li	a5,2
   10900:	01012883          	lw	a7,16(sp)
   10904:	00f51463          	bne	a0,a5,1090c <_vfprintf_r+0x4f4>
   10908:	51c0106f          	j	11e24 <_vfprintf_r+0x1a0c>
   1090c:	00100793          	li	a5,1
   10910:	00f51463          	bne	a0,a5,10918 <_vfprintf_r+0x500>
   10914:	6640106f          	j	11f78 <_vfprintf_r+0x1b60>
   10918:	06100793          	li	a5,97
   1091c:	00f49463          	bne	s1,a5,10924 <_vfprintf_r+0x50c>
   10920:	1e40206f          	j	12b04 <_vfprintf_r+0x26ec>
   10924:	04100793          	li	a5,65
   10928:	00f49463          	bne	s1,a5,10930 <_vfprintf_r+0x518>
   1092c:	1b10106f          	j	122dc <_vfprintf_r+0x1ec4>
   10930:	fdf4fb93          	andi	s7,s1,-33
   10934:	fff00793          	li	a5,-1
   10938:	05712223          	sw	s7,68(sp)
   1093c:	00fd9463          	bne	s11,a5,10944 <_vfprintf_r+0x52c>
   10940:	2a00206f          	j	12be0 <_vfprintf_r+0x27c8>
   10944:	04700793          	li	a5,71
   10948:	00fb9463          	bne	s7,a5,10950 <_vfprintf_r+0x538>
   1094c:	2000206f          	j	12b4c <_vfprintf_r+0x2734>
   10950:	0fc12303          	lw	t1,252(sp)
   10954:	03412423          	sw	s4,40(sp)
   10958:	0f012e03          	lw	t3,240(sp)
   1095c:	0f412e83          	lw	t4,244(sp)
   10960:	0f812f03          	lw	t5,248(sp)
   10964:	100a6793          	ori	a5,s4,256
   10968:	00035463          	bgez	t1,10970 <_vfprintf_r+0x558>
   1096c:	4080206f          	j	12d74 <_vfprintf_r+0x295c>
   10970:	04012c23          	sw	zero,88(sp)
   10974:	00078a13          	mv	s4,a5
   10978:	00012823          	sw	zero,16(sp)
   1097c:	04600793          	li	a5,70
   10980:	00fb9463          	bne	s7,a5,10988 <_vfprintf_r+0x570>
   10984:	6b90106f          	j	1283c <_vfprintf_r+0x2424>
   10988:	04500793          	li	a5,69
   1098c:	05112823          	sw	a7,80(sp)
   10990:	00fb8463          	beq	s7,a5,10998 <_vfprintf_r+0x580>
   10994:	6290106f          	j	127bc <_vfprintf_r+0x23a4>
   10998:	001d8913          	addi	s2,s11,1
   1099c:	0b010a93          	addi	s5,sp,176
   109a0:	00090693          	mv	a3,s2
   109a4:	0dc10813          	addi	a6,sp,220
   109a8:	0d010793          	addi	a5,sp,208
   109ac:	0cc10713          	addi	a4,sp,204
   109b0:	00200613          	li	a2,2
   109b4:	000a8593          	mv	a1,s5
   109b8:	000d0513          	mv	a0,s10
   109bc:	0bc12823          	sw	t3,176(sp)
   109c0:	05c12023          	sw	t3,64(sp)
   109c4:	0bd12a23          	sw	t4,180(sp)
   109c8:	03d12223          	sw	t4,36(sp)
   109cc:	0be12c23          	sw	t5,184(sp)
   109d0:	03e12023          	sw	t5,32(sp)
   109d4:	0a612e23          	sw	t1,188(sp)
   109d8:	00612e23          	sw	t1,28(sp)
   109dc:	545040ef          	jal	ra,15720 <_ldtoa_r>
   109e0:	01c12303          	lw	t1,28(sp)
   109e4:	02012f03          	lw	t5,32(sp)
   109e8:	02412e83          	lw	t4,36(sp)
   109ec:	04012e03          	lw	t3,64(sp)
   109f0:	05012883          	lw	a7,80(sp)
   109f4:	00050b13          	mv	s6,a0
   109f8:	01250933          	add	s2,a0,s2
   109fc:	0a010c93          	addi	s9,sp,160
   10a00:	000c8593          	mv	a1,s9
   10a04:	000a8513          	mv	a0,s5
   10a08:	01112e23          	sw	a7,28(sp)
   10a0c:	0bc12823          	sw	t3,176(sp)
   10a10:	0bd12a23          	sw	t4,180(sp)
   10a14:	0be12c23          	sw	t5,184(sp)
   10a18:	0a612e23          	sw	t1,188(sp)
   10a1c:	0a012023          	sw	zero,160(sp)
   10a20:	0a012223          	sw	zero,164(sp)
   10a24:	0a012423          	sw	zero,168(sp)
   10a28:	0a012623          	sw	zero,172(sp)
   10a2c:	7c8100ef          	jal	ra,211f4 <__eqtf2>
   10a30:	01c12883          	lw	a7,28(sp)
   10a34:	00090713          	mv	a4,s2
   10a38:	02050263          	beqz	a0,10a5c <_vfprintf_r+0x644>
   10a3c:	0dc12703          	lw	a4,220(sp)
   10a40:	01277e63          	bgeu	a4,s2,10a5c <_vfprintf_r+0x644>
   10a44:	03000693          	li	a3,48
   10a48:	00170793          	addi	a5,a4,1
   10a4c:	0cf12e23          	sw	a5,220(sp)
   10a50:	00d70023          	sb	a3,0(a4)
   10a54:	0dc12703          	lw	a4,220(sp)
   10a58:	ff2768e3          	bltu	a4,s2,10a48 <_vfprintf_r+0x630>
   10a5c:	416707b3          	sub	a5,a4,s6
   10a60:	02f12023          	sw	a5,32(sp)
   10a64:	0cc12703          	lw	a4,204(sp)
   10a68:	04700793          	li	a5,71
   10a6c:	00e12e23          	sw	a4,28(sp)
   10a70:	04412703          	lw	a4,68(sp)
   10a74:	00f71463          	bne	a4,a5,10a7c <_vfprintf_r+0x664>
   10a78:	45d0106f          	j	126d4 <_vfprintf_r+0x22bc>
   10a7c:	04412703          	lw	a4,68(sp)
   10a80:	04600793          	li	a5,70
   10a84:	00f71463          	bne	a4,a5,10a8c <_vfprintf_r+0x674>
   10a88:	69d0106f          	j	12924 <_vfprintf_r+0x250c>
   10a8c:	01c12783          	lw	a5,28(sp)
   10a90:	04412703          	lw	a4,68(sp)
   10a94:	04100613          	li	a2,65
   10a98:	fff78a93          	addi	s5,a5,-1
   10a9c:	0d512623          	sw	s5,204(sp)
   10aa0:	0ff4f793          	andi	a5,s1,255
   10aa4:	00000693          	li	a3,0
   10aa8:	00c71863          	bne	a4,a2,10ab8 <_vfprintf_r+0x6a0>
   10aac:	00f78793          	addi	a5,a5,15
   10ab0:	0ff7f793          	andi	a5,a5,255
   10ab4:	00100693          	li	a3,1
   10ab8:	0cf10a23          	sb	a5,212(sp)
   10abc:	02b00793          	li	a5,43
   10ac0:	000ada63          	bgez	s5,10ad4 <_vfprintf_r+0x6bc>
   10ac4:	01c12783          	lw	a5,28(sp)
   10ac8:	00100a93          	li	s5,1
   10acc:	40fa8ab3          	sub	s5,s5,a5
   10ad0:	02d00793          	li	a5,45
   10ad4:	0cf10aa3          	sb	a5,213(sp)
   10ad8:	00900793          	li	a5,9
   10adc:	0157c463          	blt	a5,s5,10ae4 <_vfprintf_r+0x6cc>
   10ae0:	2b40206f          	j	12d94 <_vfprintf_r+0x297c>
   10ae4:	0e310b93          	addi	s7,sp,227
   10ae8:	000b8c93          	mv	s9,s7
   10aec:	06300a13          	li	s4,99
   10af0:	00812e23          	sw	s0,28(sp)
   10af4:	00088d93          	mv	s11,a7
   10af8:	00a00593          	li	a1,10
   10afc:	000a8513          	mv	a0,s5
   10b00:	3cd130ef          	jal	ra,246cc <__modsi3>
   10b04:	03050793          	addi	a5,a0,48
   10b08:	fefc8fa3          	sb	a5,-1(s9)
   10b0c:	000a8513          	mv	a0,s5
   10b10:	00a00593          	li	a1,10
   10b14:	000a8413          	mv	s0,s5
   10b18:	331130ef          	jal	ra,24648 <__divsi3>
   10b1c:	000c8913          	mv	s2,s9
   10b20:	00050a93          	mv	s5,a0
   10b24:	fffc8c93          	addi	s9,s9,-1
   10b28:	fc8a48e3          	blt	s4,s0,10af8 <_vfprintf_r+0x6e0>
   10b2c:	03050613          	addi	a2,a0,48
   10b30:	0ff67613          	andi	a2,a2,255
   10b34:	ffe90793          	addi	a5,s2,-2
   10b38:	fecc8fa3          	sb	a2,-1(s9)
   10b3c:	01c12403          	lw	s0,28(sp)
   10b40:	000d8893          	mv	a7,s11
   10b44:	0177e463          	bltu	a5,s7,10b4c <_vfprintf_r+0x734>
   10b48:	37c0206f          	j	12ec4 <_vfprintf_r+0x2aac>
   10b4c:	0d610693          	addi	a3,sp,214
   10b50:	0080006f          	j	10b58 <_vfprintf_r+0x740>
   10b54:	0007c603          	lbu	a2,0(a5)
   10b58:	00c68023          	sb	a2,0(a3)
   10b5c:	00178793          	addi	a5,a5,1
   10b60:	00168693          	addi	a3,a3,1
   10b64:	ff7798e3          	bne	a5,s7,10b54 <_vfprintf_r+0x73c>
   10b68:	0e510793          	addi	a5,sp,229
   10b6c:	412787b3          	sub	a5,a5,s2
   10b70:	0d610713          	addi	a4,sp,214
   10b74:	00f707b3          	add	a5,a4,a5
   10b78:	0d410693          	addi	a3,sp,212
   10b7c:	40d787b3          	sub	a5,a5,a3
   10b80:	02f12c23          	sw	a5,56(sp)
   10b84:	02012703          	lw	a4,32(sp)
   10b88:	03812683          	lw	a3,56(sp)
   10b8c:	00100793          	li	a5,1
   10b90:	00d70cb3          	add	s9,a4,a3
   10b94:	00e7c463          	blt	a5,a4,10b9c <_vfprintf_r+0x784>
   10b98:	29c0206f          	j	12e34 <_vfprintf_r+0x2a1c>
   10b9c:	02c12783          	lw	a5,44(sp)
   10ba0:	00fc8cb3          	add	s9,s9,a5
   10ba4:	02812783          	lw	a5,40(sp)
   10ba8:	fffcca93          	not	s5,s9
   10bac:	41fada93          	srai	s5,s5,0x1f
   10bb0:	bff7fa13          	andi	s4,a5,-1025
   10bb4:	100a6a13          	ori	s4,s4,256
   10bb8:	015cfab3          	and	s5,s9,s5
   10bbc:	02012423          	sw	zero,40(sp)
   10bc0:	02012223          	sw	zero,36(sp)
   10bc4:	00012e23          	sw	zero,28(sp)
   10bc8:	05812783          	lw	a5,88(sp)
   10bcc:	00079463          	bnez	a5,10bd4 <_vfprintf_r+0x7bc>
   10bd0:	3790106f          	j	12748 <_vfprintf_r+0x2330>
   10bd4:	02d00793          	li	a5,45
   10bd8:	0cf103a3          	sb	a5,199(sp)
   10bdc:	00000d93          	li	s11,0
   10be0:	001a8a93          	addi	s5,s5,1
   10be4:	a6dff06f          	j	10650 <_vfprintf_r+0x238>
   10be8:	0e410613          	addi	a2,sp,228
   10bec:	000c0593          	mv	a1,s8
   10bf0:	000d0513          	mv	a0,s10
   10bf4:	2110a0ef          	jal	ra,1b604 <__sprint_r>
   10bf8:	060518e3          	bnez	a0,11468 <_vfprintf_r+0x1050>
   10bfc:	0ec12783          	lw	a5,236(sp)
   10c00:	10c10893          	addi	a7,sp,268
   10c04:	aa5ff06f          	j	106a8 <_vfprintf_r+0x290>
   10c08:	03012683          	lw	a3,48(sp)
   10c0c:	02c12703          	lw	a4,44(sp)
   10c10:	00700613          	li	a2,7
   10c14:	00d8a023          	sw	a3,0(a7)
   10c18:	0e812683          	lw	a3,232(sp)
   10c1c:	00f707b3          	add	a5,a4,a5
   10c20:	00e8a223          	sw	a4,4(a7)
   10c24:	00168693          	addi	a3,a3,1
   10c28:	0ef12623          	sw	a5,236(sp)
   10c2c:	0ed12423          	sw	a3,232(sp)
   10c30:	00888893          	addi	a7,a7,8
   10c34:	02d65463          	bge	a2,a3,10c5c <_vfprintf_r+0x844>
   10c38:	0e410613          	addi	a2,sp,228
   10c3c:	000c0593          	mv	a1,s8
   10c40:	000d0513          	mv	a0,s10
   10c44:	1c10a0ef          	jal	ra,1b604 <__sprint_r>
   10c48:	020510e3          	bnez	a0,11468 <_vfprintf_r+0x1050>
   10c4c:	0cc12583          	lw	a1,204(sp)
   10c50:	0ec12783          	lw	a5,236(sp)
   10c54:	0e812683          	lw	a3,232(sp)
   10c58:	10c10893          	addi	a7,sp,268
   10c5c:	0005d463          	bgez	a1,10c64 <_vfprintf_r+0x84c>
   10c60:	5850106f          	j	129e4 <_vfprintf_r+0x25cc>
   10c64:	02012703          	lw	a4,32(sp)
   10c68:	00168693          	addi	a3,a3,1
   10c6c:	0168a023          	sw	s6,0(a7)
   10c70:	00f707b3          	add	a5,a4,a5
   10c74:	00e8a223          	sw	a4,4(a7)
   10c78:	0ef12623          	sw	a5,236(sp)
   10c7c:	0ed12423          	sw	a3,232(sp)
   10c80:	00700713          	li	a4,7
   10c84:	a8d75ce3          	bge	a4,a3,1071c <_vfprintf_r+0x304>
   10c88:	0e410613          	addi	a2,sp,228
   10c8c:	000c0593          	mv	a1,s8
   10c90:	000d0513          	mv	a0,s10
   10c94:	1710a0ef          	jal	ra,1b604 <__sprint_r>
   10c98:	7c051863          	bnez	a0,11468 <_vfprintf_r+0x1050>
   10c9c:	0ec12783          	lw	a5,236(sp)
   10ca0:	10c10893          	addi	a7,sp,268
   10ca4:	a7dff06f          	j	10720 <_vfprintf_r+0x308>
   10ca8:	01000693          	li	a3,16
   10cac:	0e812703          	lw	a4,232(sp)
   10cb0:	0096c463          	blt	a3,s1,10cb8 <_vfprintf_r+0x8a0>
   10cb4:	5190106f          	j	129cc <_vfprintf_r+0x25b4>
   10cb8:	000256b7          	lui	a3,0x25
   10cbc:	90468e93          	addi	t4,a3,-1788 # 24904 <blanks.4483>
   10cc0:	01000913          	li	s2,16
   10cc4:	00700a13          	li	s4,7
   10cc8:	000e8b13          	mv	s6,t4
   10ccc:	00c0006f          	j	10cd8 <_vfprintf_r+0x8c0>
   10cd0:	ff048493          	addi	s1,s1,-16
   10cd4:	04995663          	bge	s2,s1,10d20 <_vfprintf_r+0x908>
   10cd8:	01078793          	addi	a5,a5,16
   10cdc:	00170713          	addi	a4,a4,1
   10ce0:	0168a023          	sw	s6,0(a7)
   10ce4:	0128a223          	sw	s2,4(a7)
   10ce8:	0ef12623          	sw	a5,236(sp)
   10cec:	0ee12423          	sw	a4,232(sp)
   10cf0:	00888893          	addi	a7,a7,8
   10cf4:	fcea5ee3          	bge	s4,a4,10cd0 <_vfprintf_r+0x8b8>
   10cf8:	0e410613          	addi	a2,sp,228
   10cfc:	000c0593          	mv	a1,s8
   10d00:	000d0513          	mv	a0,s10
   10d04:	1010a0ef          	jal	ra,1b604 <__sprint_r>
   10d08:	76051063          	bnez	a0,11468 <_vfprintf_r+0x1050>
   10d0c:	ff048493          	addi	s1,s1,-16
   10d10:	0ec12783          	lw	a5,236(sp)
   10d14:	0e812703          	lw	a4,232(sp)
   10d18:	10c10893          	addi	a7,sp,268
   10d1c:	fa994ee3          	blt	s2,s1,10cd8 <_vfprintf_r+0x8c0>
   10d20:	000b0e93          	mv	t4,s6
   10d24:	009787b3          	add	a5,a5,s1
   10d28:	00170713          	addi	a4,a4,1
   10d2c:	01d8a023          	sw	t4,0(a7)
   10d30:	0098a223          	sw	s1,4(a7)
   10d34:	0ef12623          	sw	a5,236(sp)
   10d38:	0ee12423          	sw	a4,232(sp)
   10d3c:	00700693          	li	a3,7
   10d40:	9ee6d8e3          	bge	a3,a4,10730 <_vfprintf_r+0x318>
   10d44:	0e410613          	addi	a2,sp,228
   10d48:	000c0593          	mv	a1,s8
   10d4c:	000d0513          	mv	a0,s10
   10d50:	0b50a0ef          	jal	ra,1b604 <__sprint_r>
   10d54:	70051a63          	bnez	a0,11468 <_vfprintf_r+0x1050>
   10d58:	0ec12783          	lw	a5,236(sp)
   10d5c:	9d5ff06f          	j	10730 <_vfprintf_r+0x318>
   10d60:	000d0513          	mv	a0,s10
   10d64:	2d9020ef          	jal	ra,1383c <__sinit>
   10d68:	f2cff06f          	j	10494 <_vfprintf_r+0x7c>
   10d6c:	01412703          	lw	a4,20(sp)
   10d70:	000c8893          	mv	a7,s9
   10d74:	0c0103a3          	sb	zero,199(sp)
   10d78:	00072783          	lw	a5,0(a4)
   10d7c:	00470713          	addi	a4,a4,4
   10d80:	00e12a23          	sw	a4,20(sp)
   10d84:	14f10623          	sb	a5,332(sp)
   10d88:	00100a93          	li	s5,1
   10d8c:	00100c93          	li	s9,1
   10d90:	14c10b13          	addi	s6,sp,332
   10d94:	8a9ff06f          	j	1063c <_vfprintf_r+0x224>
   10d98:	01412783          	lw	a5,20(sp)
   10d9c:	0c0103a3          	sb	zero,199(sp)
   10da0:	000c8893          	mv	a7,s9
   10da4:	0007ab03          	lw	s6,0(a5)
   10da8:	00478913          	addi	s2,a5,4
   10dac:	5a0b0ee3          	beqz	s6,11b68 <_vfprintf_r+0x1750>
   10db0:	fff00793          	li	a5,-1
   10db4:	00fd9463          	bne	s11,a5,10dbc <_vfprintf_r+0x9a4>
   10db8:	1000106f          	j	11eb8 <_vfprintf_r+0x1aa0>
   10dbc:	000d8613          	mv	a2,s11
   10dc0:	00000593          	li	a1,0
   10dc4:	000b0513          	mv	a0,s6
   10dc8:	01912a23          	sw	s9,20(sp)
   10dcc:	5f0060ef          	jal	ra,173bc <memchr>
   10dd0:	00a12823          	sw	a0,16(sp)
   10dd4:	01412883          	lw	a7,20(sp)
   10dd8:	00051463          	bnez	a0,10de0 <_vfprintf_r+0x9c8>
   10ddc:	31d0106f          	j	128f8 <_vfprintf_r+0x24e0>
   10de0:	01012783          	lw	a5,16(sp)
   10de4:	01212a23          	sw	s2,20(sp)
   10de8:	00012823          	sw	zero,16(sp)
   10dec:	41678cb3          	sub	s9,a5,s6
   10df0:	0c714783          	lbu	a5,199(sp)
   10df4:	fffcca93          	not	s5,s9
   10df8:	41fada93          	srai	s5,s5,0x1f
   10dfc:	02012423          	sw	zero,40(sp)
   10e00:	02012223          	sw	zero,36(sp)
   10e04:	00012e23          	sw	zero,28(sp)
   10e08:	015cfab3          	and	s5,s9,s5
   10e0c:	00000d93          	li	s11,0
   10e10:	840780e3          	beqz	a5,10650 <_vfprintf_r+0x238>
   10e14:	001a8a93          	addi	s5,s5,1
   10e18:	839ff06f          	j	10650 <_vfprintf_r+0x238>
   10e1c:	00044483          	lbu	s1,0(s0)
   10e20:	004a6a13          	ori	s4,s4,4
   10e24:	facff06f          	j	105d0 <_vfprintf_r+0x1b8>
   10e28:	01412683          	lw	a3,20(sp)
   10e2c:	020a7793          	andi	a5,s4,32
   10e30:	000c8893          	mv	a7,s9
   10e34:	0006a703          	lw	a4,0(a3)
   10e38:	00468693          	addi	a3,a3,4
   10e3c:	00d12a23          	sw	a3,20(sp)
   10e40:	36079ee3          	bnez	a5,119bc <_vfprintf_r+0x15a4>
   10e44:	010a7793          	andi	a5,s4,16
   10e48:	00078463          	beqz	a5,10e50 <_vfprintf_r+0xa38>
   10e4c:	05c0106f          	j	11ea8 <_vfprintf_r+0x1a90>
   10e50:	040a7793          	andi	a5,s4,64
   10e54:	00078463          	beqz	a5,10e5c <_vfprintf_r+0xa44>
   10e58:	3fc0106f          	j	12254 <_vfprintf_r+0x1e3c>
   10e5c:	200a7a13          	andi	s4,s4,512
   10e60:	000a1463          	bnez	s4,10e68 <_vfprintf_r+0xa50>
   10e64:	0440106f          	j	11ea8 <_vfprintf_r+0x1a90>
   10e68:	00c12783          	lw	a5,12(sp)
   10e6c:	00040b13          	mv	s6,s0
   10e70:	00f70023          	sb	a5,0(a4)
   10e74:	8f5ff06f          	j	10768 <_vfprintf_r+0x350>
   10e78:	00044483          	lbu	s1,0(s0)
   10e7c:	06c00793          	li	a5,108
   10e80:	4cf484e3          	beq	s1,a5,11b48 <_vfprintf_r+0x1730>
   10e84:	010a6a13          	ori	s4,s4,16
   10e88:	f48ff06f          	j	105d0 <_vfprintf_r+0x1b8>
   10e8c:	01412703          	lw	a4,20(sp)
   10e90:	ffff87b7          	lui	a5,0xffff8
   10e94:	8307c793          	xori	a5,a5,-2000
   10e98:	0cf11423          	sh	a5,200(sp)
   10e9c:	00470793          	addi	a5,a4,4
   10ea0:	00f12a23          	sw	a5,20(sp)
   10ea4:	00072903          	lw	s2,0(a4)
   10ea8:	000247b7          	lui	a5,0x24
   10eac:	76478793          	addi	a5,a5,1892 # 24764 <__clzsi2+0x68>
   10eb0:	000c8893          	mv	a7,s9
   10eb4:	02f12a23          	sw	a5,52(sp)
   10eb8:	00000c93          	li	s9,0
   10ebc:	002a6b93          	ori	s7,s4,2
   10ec0:	00200793          	li	a5,2
   10ec4:	07800493          	li	s1,120
   10ec8:	0c0103a3          	sb	zero,199(sp)
   10ecc:	fff00713          	li	a4,-1
   10ed0:	20ed8663          	beq	s11,a4,110dc <_vfprintf_r+0xcc4>
   10ed4:	01996733          	or	a4,s2,s9
   10ed8:	f7fbfa13          	andi	s4,s7,-129
   10edc:	1e071e63          	bnez	a4,110d8 <_vfprintf_r+0xcc0>
   10ee0:	260d9463          	bnez	s11,11148 <_vfprintf_r+0xd30>
   10ee4:	1c079063          	bnez	a5,110a4 <_vfprintf_r+0xc8c>
   10ee8:	001bfc93          	andi	s9,s7,1
   10eec:	1b010b13          	addi	s6,sp,432
   10ef0:	280c9ce3          	bnez	s9,11988 <_vfprintf_r+0x1570>
   10ef4:	000c8a93          	mv	s5,s9
   10ef8:	01bcd463          	bge	s9,s11,10f00 <_vfprintf_r+0xae8>
   10efc:	000d8a93          	mv	s5,s11
   10f00:	0c714783          	lbu	a5,199(sp)
   10f04:	00012823          	sw	zero,16(sp)
   10f08:	02012423          	sw	zero,40(sp)
   10f0c:	02012223          	sw	zero,36(sp)
   10f10:	00012e23          	sw	zero,28(sp)
   10f14:	f00790e3          	bnez	a5,10e14 <_vfprintf_r+0x9fc>
   10f18:	f38ff06f          	j	10650 <_vfprintf_r+0x238>
   10f1c:	00044483          	lbu	s1,0(s0)
   10f20:	06800793          	li	a5,104
   10f24:	42f48ae3          	beq	s1,a5,11b58 <_vfprintf_r+0x1740>
   10f28:	040a6a13          	ori	s4,s4,64
   10f2c:	ea4ff06f          	j	105d0 <_vfprintf_r+0x1b8>
   10f30:	02b00793          	li	a5,43
   10f34:	00044483          	lbu	s1,0(s0)
   10f38:	0cf103a3          	sb	a5,199(sp)
   10f3c:	e94ff06f          	j	105d0 <_vfprintf_r+0x1b8>
   10f40:	00044483          	lbu	s1,0(s0)
   10f44:	080a6a13          	ori	s4,s4,128
   10f48:	e88ff06f          	j	105d0 <_vfprintf_r+0x1b8>
   10f4c:	00044483          	lbu	s1,0(s0)
   10f50:	00140713          	addi	a4,s0,1
   10f54:	01749463          	bne	s1,s7,10f5c <_vfprintf_r+0xb44>
   10f58:	72d0106f          	j	12e84 <_vfprintf_r+0x2a6c>
   10f5c:	fd048693          	addi	a3,s1,-48
   10f60:	00070413          	mv	s0,a4
   10f64:	00000d93          	li	s11,0
   10f68:	e6dae663          	bltu	s5,a3,105d4 <_vfprintf_r+0x1bc>
   10f6c:	00044483          	lbu	s1,0(s0)
   10f70:	002d9793          	slli	a5,s11,0x2
   10f74:	01b787b3          	add	a5,a5,s11
   10f78:	00179793          	slli	a5,a5,0x1
   10f7c:	00d78db3          	add	s11,a5,a3
   10f80:	fd048693          	addi	a3,s1,-48
   10f84:	00140413          	addi	s0,s0,1
   10f88:	fedaf2e3          	bgeu	s5,a3,10f6c <_vfprintf_r+0xb54>
   10f8c:	e48ff06f          	j	105d4 <_vfprintf_r+0x1bc>
   10f90:	01412783          	lw	a5,20(sp)
   10f94:	00044483          	lbu	s1,0(s0)
   10f98:	0007a983          	lw	s3,0(a5)
   10f9c:	00478793          	addi	a5,a5,4
   10fa0:	00f12a23          	sw	a5,20(sp)
   10fa4:	e209d663          	bgez	s3,105d0 <_vfprintf_r+0x1b8>
   10fa8:	413009b3          	neg	s3,s3
   10fac:	004a6a13          	ori	s4,s4,4
   10fb0:	e20ff06f          	j	105d0 <_vfprintf_r+0x1b8>
   10fb4:	00044483          	lbu	s1,0(s0)
   10fb8:	001a6a13          	ori	s4,s4,1
   10fbc:	e14ff06f          	j	105d0 <_vfprintf_r+0x1b8>
   10fc0:	0c714783          	lbu	a5,199(sp)
   10fc4:	00044483          	lbu	s1,0(s0)
   10fc8:	e0079463          	bnez	a5,105d0 <_vfprintf_r+0x1b8>
   10fcc:	02000793          	li	a5,32
   10fd0:	0cf103a3          	sb	a5,199(sp)
   10fd4:	dfcff06f          	j	105d0 <_vfprintf_r+0x1b8>
   10fd8:	000c8893          	mv	a7,s9
   10fdc:	010a6a13          	ori	s4,s4,16
   10fe0:	020a7793          	andi	a5,s4,32
   10fe4:	0c078ee3          	beqz	a5,118c0 <_vfprintf_r+0x14a8>
   10fe8:	01412783          	lw	a5,20(sp)
   10fec:	00778b13          	addi	s6,a5,7
   10ff0:	ff8b7b13          	andi	s6,s6,-8
   10ff4:	000b2903          	lw	s2,0(s6)
   10ff8:	004b2c83          	lw	s9,4(s6)
   10ffc:	008b0793          	addi	a5,s6,8
   11000:	00f12a23          	sw	a5,20(sp)
   11004:	bffa7b93          	andi	s7,s4,-1025
   11008:	00000793          	li	a5,0
   1100c:	ebdff06f          	j	10ec8 <_vfprintf_r+0xab0>
   11010:	000c8893          	mv	a7,s9
   11014:	010a6b93          	ori	s7,s4,16
   11018:	020bf793          	andi	a5,s7,32
   1101c:	0c0788e3          	beqz	a5,118ec <_vfprintf_r+0x14d4>
   11020:	01412783          	lw	a5,20(sp)
   11024:	00778b13          	addi	s6,a5,7
   11028:	ff8b7b13          	andi	s6,s6,-8
   1102c:	008b0793          	addi	a5,s6,8
   11030:	00f12a23          	sw	a5,20(sp)
   11034:	000b2903          	lw	s2,0(s6)
   11038:	004b2c83          	lw	s9,4(s6)
   1103c:	00100793          	li	a5,1
   11040:	e89ff06f          	j	10ec8 <_vfprintf_r+0xab0>
   11044:	00044483          	lbu	s1,0(s0)
   11048:	008a6a13          	ori	s4,s4,8
   1104c:	d84ff06f          	j	105d0 <_vfprintf_r+0x1b8>
   11050:	000c8893          	mv	a7,s9
   11054:	010a6a13          	ori	s4,s4,16
   11058:	020a7793          	andi	a5,s4,32
   1105c:	0c0780e3          	beqz	a5,1191c <_vfprintf_r+0x1504>
   11060:	01412783          	lw	a5,20(sp)
   11064:	00778b13          	addi	s6,a5,7
   11068:	ff8b7b13          	andi	s6,s6,-8
   1106c:	004b2783          	lw	a5,4(s6)
   11070:	000b2903          	lw	s2,0(s6)
   11074:	008b0713          	addi	a4,s6,8
   11078:	00e12a23          	sw	a4,20(sp)
   1107c:	00078c93          	mv	s9,a5
   11080:	0c07c6e3          	bltz	a5,1194c <_vfprintf_r+0x1534>
   11084:	fff00793          	li	a5,-1
   11088:	000a0b93          	mv	s7,s4
   1108c:	02fd8463          	beq	s11,a5,110b4 <_vfprintf_r+0xc9c>
   11090:	019967b3          	or	a5,s2,s9
   11094:	f7fa7b93          	andi	s7,s4,-129
   11098:	00079e63          	bnez	a5,110b4 <_vfprintf_r+0xc9c>
   1109c:	020d9263          	bnez	s11,110c0 <_vfprintf_r+0xca8>
   110a0:	000b8a13          	mv	s4,s7
   110a4:	00000d93          	li	s11,0
   110a8:	00000c93          	li	s9,0
   110ac:	1b010b13          	addi	s6,sp,432
   110b0:	e45ff06f          	j	10ef4 <_vfprintf_r+0xadc>
   110b4:	3a0c92e3          	bnez	s9,11c58 <_vfprintf_r+0x1840>
   110b8:	00900793          	li	a5,9
   110bc:	3927eee3          	bltu	a5,s2,11c58 <_vfprintf_r+0x1840>
   110c0:	03090913          	addi	s2,s2,48
   110c4:	1b2107a3          	sb	s2,431(sp)
   110c8:	000b8a13          	mv	s4,s7
   110cc:	00100c93          	li	s9,1
   110d0:	1af10b13          	addi	s6,sp,431
   110d4:	e21ff06f          	j	10ef4 <_vfprintf_r+0xadc>
   110d8:	000a0b93          	mv	s7,s4
   110dc:	00100713          	li	a4,1
   110e0:	fce78ae3          	beq	a5,a4,110b4 <_vfprintf_r+0xc9c>
   110e4:	00200713          	li	a4,2
   110e8:	06e78c63          	beq	a5,a4,11160 <_vfprintf_r+0xd48>
   110ec:	1b010b13          	addi	s6,sp,432
   110f0:	01dc9713          	slli	a4,s9,0x1d
   110f4:	00797793          	andi	a5,s2,7
   110f8:	00395913          	srli	s2,s2,0x3
   110fc:	03078793          	addi	a5,a5,48
   11100:	01276933          	or	s2,a4,s2
   11104:	003cdc93          	srli	s9,s9,0x3
   11108:	fefb0fa3          	sb	a5,-1(s6)
   1110c:	01996733          	or	a4,s2,s9
   11110:	000b0613          	mv	a2,s6
   11114:	fffb0b13          	addi	s6,s6,-1
   11118:	fc071ce3          	bnez	a4,110f0 <_vfprintf_r+0xcd8>
   1111c:	001bf693          	andi	a3,s7,1
   11120:	06068a63          	beqz	a3,11194 <_vfprintf_r+0xd7c>
   11124:	03000693          	li	a3,48
   11128:	06d78663          	beq	a5,a3,11194 <_vfprintf_r+0xd7c>
   1112c:	ffe60613          	addi	a2,a2,-2
   11130:	1b010793          	addi	a5,sp,432
   11134:	fedb0fa3          	sb	a3,-1(s6)
   11138:	40c78cb3          	sub	s9,a5,a2
   1113c:	000b8a13          	mv	s4,s7
   11140:	00060b13          	mv	s6,a2
   11144:	db1ff06f          	j	10ef4 <_vfprintf_r+0xadc>
   11148:	00100713          	li	a4,1
   1114c:	00e79463          	bne	a5,a4,11154 <_vfprintf_r+0xd3c>
   11150:	14d0106f          	j	12a9c <_vfprintf_r+0x2684>
   11154:	00200713          	li	a4,2
   11158:	000a0b93          	mv	s7,s4
   1115c:	f8e798e3          	bne	a5,a4,110ec <_vfprintf_r+0xcd4>
   11160:	03412683          	lw	a3,52(sp)
   11164:	1b010b13          	addi	s6,sp,432
   11168:	00f97793          	andi	a5,s2,15
   1116c:	00f687b3          	add	a5,a3,a5
   11170:	0007c703          	lbu	a4,0(a5)
   11174:	00495913          	srli	s2,s2,0x4
   11178:	01cc9793          	slli	a5,s9,0x1c
   1117c:	0127e933          	or	s2,a5,s2
   11180:	004cdc93          	srli	s9,s9,0x4
   11184:	feeb0fa3          	sb	a4,-1(s6)
   11188:	019967b3          	or	a5,s2,s9
   1118c:	fffb0b13          	addi	s6,s6,-1
   11190:	fc079ce3          	bnez	a5,11168 <_vfprintf_r+0xd50>
   11194:	1b010793          	addi	a5,sp,432
   11198:	41678cb3          	sub	s9,a5,s6
   1119c:	000b8a13          	mv	s4,s7
   111a0:	d55ff06f          	j	10ef4 <_vfprintf_r+0xadc>
   111a4:	06500693          	li	a3,101
   111a8:	2c96dc63          	bge	a3,s1,11480 <_vfprintf_r+0x1068>
   111ac:	0f012683          	lw	a3,240(sp)
   111b0:	0a010593          	addi	a1,sp,160
   111b4:	0b010513          	addi	a0,sp,176
   111b8:	0ad12823          	sw	a3,176(sp)
   111bc:	0f412683          	lw	a3,244(sp)
   111c0:	05112223          	sw	a7,68(sp)
   111c4:	04f12023          	sw	a5,64(sp)
   111c8:	0ad12a23          	sw	a3,180(sp)
   111cc:	0f812683          	lw	a3,248(sp)
   111d0:	0a012023          	sw	zero,160(sp)
   111d4:	0a012223          	sw	zero,164(sp)
   111d8:	0ad12c23          	sw	a3,184(sp)
   111dc:	0fc12683          	lw	a3,252(sp)
   111e0:	0a012423          	sw	zero,168(sp)
   111e4:	0a012623          	sw	zero,172(sp)
   111e8:	0ad12e23          	sw	a3,188(sp)
   111ec:	008100ef          	jal	ra,211f4 <__eqtf2>
   111f0:	04012783          	lw	a5,64(sp)
   111f4:	04412883          	lw	a7,68(sp)
   111f8:	4a051863          	bnez	a0,116a8 <_vfprintf_r+0x1290>
   111fc:	0e812703          	lw	a4,232(sp)
   11200:	000246b7          	lui	a3,0x24
   11204:	79468693          	addi	a3,a3,1940 # 24794 <__clzsi2+0x98>
   11208:	00d8a023          	sw	a3,0(a7)
   1120c:	00178793          	addi	a5,a5,1
   11210:	00100693          	li	a3,1
   11214:	00170713          	addi	a4,a4,1
   11218:	00d8a223          	sw	a3,4(a7)
   1121c:	0ef12623          	sw	a5,236(sp)
   11220:	0ee12423          	sw	a4,232(sp)
   11224:	00700693          	li	a3,7
   11228:	00888893          	addi	a7,a7,8
   1122c:	3ae6c6e3          	blt	a3,a4,11dd8 <_vfprintf_r+0x19c0>
   11230:	0cc12703          	lw	a4,204(sp)
   11234:	02012683          	lw	a3,32(sp)
   11238:	72d75c63          	bge	a4,a3,11970 <_vfprintf_r+0x1558>
   1123c:	03012703          	lw	a4,48(sp)
   11240:	02c12683          	lw	a3,44(sp)
   11244:	00888893          	addi	a7,a7,8
   11248:	fee8ac23          	sw	a4,-8(a7)
   1124c:	0e812703          	lw	a4,232(sp)
   11250:	00d787b3          	add	a5,a5,a3
   11254:	fed8ae23          	sw	a3,-4(a7)
   11258:	00170713          	addi	a4,a4,1
   1125c:	0ef12623          	sw	a5,236(sp)
   11260:	0ee12423          	sw	a4,232(sp)
   11264:	00700693          	li	a3,7
   11268:	0ce6c0e3          	blt	a3,a4,11b28 <_vfprintf_r+0x1710>
   1126c:	02012703          	lw	a4,32(sp)
   11270:	fff70493          	addi	s1,a4,-1
   11274:	ca905663          	blez	s1,10720 <_vfprintf_r+0x308>
   11278:	01000693          	li	a3,16
   1127c:	0e812703          	lw	a4,232(sp)
   11280:	3696dce3          	bge	a3,s1,11df8 <_vfprintf_r+0x19e0>
   11284:	01000913          	li	s2,16
   11288:	00700c93          	li	s9,7
   1128c:	00c0006f          	j	11298 <_vfprintf_r+0xe80>
   11290:	ff048493          	addi	s1,s1,-16
   11294:	369952e3          	bge	s2,s1,11df8 <_vfprintf_r+0x19e0>
   11298:	00812683          	lw	a3,8(sp)
   1129c:	01078793          	addi	a5,a5,16
   112a0:	00170713          	addi	a4,a4,1
   112a4:	00d8a023          	sw	a3,0(a7)
   112a8:	0128a223          	sw	s2,4(a7)
   112ac:	0ef12623          	sw	a5,236(sp)
   112b0:	0ee12423          	sw	a4,232(sp)
   112b4:	00888893          	addi	a7,a7,8
   112b8:	fcecdce3          	bge	s9,a4,11290 <_vfprintf_r+0xe78>
   112bc:	0e410613          	addi	a2,sp,228
   112c0:	000c0593          	mv	a1,s8
   112c4:	000d0513          	mv	a0,s10
   112c8:	33c0a0ef          	jal	ra,1b604 <__sprint_r>
   112cc:	18051e63          	bnez	a0,11468 <_vfprintf_r+0x1050>
   112d0:	0ec12783          	lw	a5,236(sp)
   112d4:	0e812703          	lw	a4,232(sp)
   112d8:	10c10893          	addi	a7,sp,268
   112dc:	fb5ff06f          	j	11290 <_vfprintf_r+0xe78>
   112e0:	41598933          	sub	s2,s3,s5
   112e4:	c1205263          	blez	s2,106e8 <_vfprintf_r+0x2d0>
   112e8:	01000613          	li	a2,16
   112ec:	0e812683          	lw	a3,232(sp)
   112f0:	07265463          	bge	a2,s2,11358 <_vfprintf_r+0xf40>
   112f4:	01000e13          	li	t3,16
   112f8:	00700b93          	li	s7,7
   112fc:	00c0006f          	j	11308 <_vfprintf_r+0xef0>
   11300:	ff090913          	addi	s2,s2,-16
   11304:	052e5a63          	bge	t3,s2,11358 <_vfprintf_r+0xf40>
   11308:	00812703          	lw	a4,8(sp)
   1130c:	01078793          	addi	a5,a5,16
   11310:	00168693          	addi	a3,a3,1
   11314:	00e8a023          	sw	a4,0(a7)
   11318:	01c8a223          	sw	t3,4(a7)
   1131c:	0ef12623          	sw	a5,236(sp)
   11320:	0ed12423          	sw	a3,232(sp)
   11324:	00888893          	addi	a7,a7,8
   11328:	fcdbdce3          	bge	s7,a3,11300 <_vfprintf_r+0xee8>
   1132c:	0e410613          	addi	a2,sp,228
   11330:	000c0593          	mv	a1,s8
   11334:	000d0513          	mv	a0,s10
   11338:	2cc0a0ef          	jal	ra,1b604 <__sprint_r>
   1133c:	12051663          	bnez	a0,11468 <_vfprintf_r+0x1050>
   11340:	01000e13          	li	t3,16
   11344:	ff090913          	addi	s2,s2,-16
   11348:	0ec12783          	lw	a5,236(sp)
   1134c:	0e812683          	lw	a3,232(sp)
   11350:	10c10893          	addi	a7,sp,268
   11354:	fb2e4ae3          	blt	t3,s2,11308 <_vfprintf_r+0xef0>
   11358:	00812703          	lw	a4,8(sp)
   1135c:	012787b3          	add	a5,a5,s2
   11360:	00168693          	addi	a3,a3,1
   11364:	00e8a023          	sw	a4,0(a7)
   11368:	0128a223          	sw	s2,4(a7)
   1136c:	0ef12623          	sw	a5,236(sp)
   11370:	0ed12423          	sw	a3,232(sp)
   11374:	00700613          	li	a2,7
   11378:	00888893          	addi	a7,a7,8
   1137c:	b6d65663          	bge	a2,a3,106e8 <_vfprintf_r+0x2d0>
   11380:	0e410613          	addi	a2,sp,228
   11384:	000c0593          	mv	a1,s8
   11388:	000d0513          	mv	a0,s10
   1138c:	2780a0ef          	jal	ra,1b604 <__sprint_r>
   11390:	0c051c63          	bnez	a0,11468 <_vfprintf_r+0x1050>
   11394:	0ec12783          	lw	a5,236(sp)
   11398:	10c10893          	addi	a7,sp,268
   1139c:	b4cff06f          	j	106e8 <_vfprintf_r+0x2d0>
   113a0:	01000613          	li	a2,16
   113a4:	0e812683          	lw	a3,232(sp)
   113a8:	07b65263          	bge	a2,s11,1140c <_vfprintf_r+0xff4>
   113ac:	01000b93          	li	s7,16
   113b0:	00700913          	li	s2,7
   113b4:	00c0006f          	j	113c0 <_vfprintf_r+0xfa8>
   113b8:	ff0d8d93          	addi	s11,s11,-16
   113bc:	05bbd863          	bge	s7,s11,1140c <_vfprintf_r+0xff4>
   113c0:	00812703          	lw	a4,8(sp)
   113c4:	01078793          	addi	a5,a5,16
   113c8:	00168693          	addi	a3,a3,1
   113cc:	00e8a023          	sw	a4,0(a7)
   113d0:	0178a223          	sw	s7,4(a7)
   113d4:	0ef12623          	sw	a5,236(sp)
   113d8:	0ed12423          	sw	a3,232(sp)
   113dc:	00888893          	addi	a7,a7,8
   113e0:	fcd95ce3          	bge	s2,a3,113b8 <_vfprintf_r+0xfa0>
   113e4:	0e410613          	addi	a2,sp,228
   113e8:	000c0593          	mv	a1,s8
   113ec:	000d0513          	mv	a0,s10
   113f0:	2140a0ef          	jal	ra,1b604 <__sprint_r>
   113f4:	06051a63          	bnez	a0,11468 <_vfprintf_r+0x1050>
   113f8:	ff0d8d93          	addi	s11,s11,-16
   113fc:	0ec12783          	lw	a5,236(sp)
   11400:	0e812683          	lw	a3,232(sp)
   11404:	10c10893          	addi	a7,sp,268
   11408:	fbbbcce3          	blt	s7,s11,113c0 <_vfprintf_r+0xfa8>
   1140c:	00812703          	lw	a4,8(sp)
   11410:	01b787b3          	add	a5,a5,s11
   11414:	00168693          	addi	a3,a3,1
   11418:	00e8a023          	sw	a4,0(a7)
   1141c:	01b8a223          	sw	s11,4(a7)
   11420:	0ef12623          	sw	a5,236(sp)
   11424:	0ed12423          	sw	a3,232(sp)
   11428:	00700613          	li	a2,7
   1142c:	00888893          	addi	a7,a7,8
   11430:	acd65063          	bge	a2,a3,106f0 <_vfprintf_r+0x2d8>
   11434:	0e410613          	addi	a2,sp,228
   11438:	000c0593          	mv	a1,s8
   1143c:	000d0513          	mv	a0,s10
   11440:	1c40a0ef          	jal	ra,1b604 <__sprint_r>
   11444:	02051263          	bnez	a0,11468 <_vfprintf_r+0x1050>
   11448:	0ec12783          	lw	a5,236(sp)
   1144c:	10c10893          	addi	a7,sp,268
   11450:	aa0ff06f          	j	106f0 <_vfprintf_r+0x2d8>
   11454:	0e410613          	addi	a2,sp,228
   11458:	000c0593          	mv	a1,s8
   1145c:	000d0513          	mv	a0,s10
   11460:	1a40a0ef          	jal	ra,1b604 <__sprint_r>
   11464:	ae050263          	beqz	a0,10748 <_vfprintf_r+0x330>
   11468:	01012b83          	lw	s7,16(sp)
   1146c:	b00b8863          	beqz	s7,1077c <_vfprintf_r+0x364>
   11470:	000b8593          	mv	a1,s7
   11474:	000d0513          	mv	a0,s10
   11478:	590020ef          	jal	ra,13a08 <_free_r>
   1147c:	b00ff06f          	j	1077c <_vfprintf_r+0x364>
   11480:	0e812683          	lw	a3,232(sp)
   11484:	00178c93          	addi	s9,a5,1
   11488:	02012783          	lw	a5,32(sp)
   1148c:	00100613          	li	a2,1
   11490:	0168a023          	sw	s6,0(a7)
   11494:	00168493          	addi	s1,a3,1
   11498:	00888913          	addi	s2,a7,8
   1149c:	38f65663          	bge	a2,a5,11828 <_vfprintf_r+0x1410>
   114a0:	00100793          	li	a5,1
   114a4:	00f8a223          	sw	a5,4(a7)
   114a8:	0f912623          	sw	s9,236(sp)
   114ac:	0e912423          	sw	s1,232(sp)
   114b0:	00700793          	li	a5,7
   114b4:	7497ce63          	blt	a5,s1,11c10 <_vfprintf_r+0x17f8>
   114b8:	02c12783          	lw	a5,44(sp)
   114bc:	03012703          	lw	a4,48(sp)
   114c0:	00148493          	addi	s1,s1,1
   114c4:	00fc8cb3          	add	s9,s9,a5
   114c8:	00f92223          	sw	a5,4(s2)
   114cc:	00e92023          	sw	a4,0(s2)
   114d0:	0f912623          	sw	s9,236(sp)
   114d4:	0e912423          	sw	s1,232(sp)
   114d8:	00700793          	li	a5,7
   114dc:	00890913          	addi	s2,s2,8
   114e0:	7497ca63          	blt	a5,s1,11c34 <_vfprintf_r+0x181c>
   114e4:	0f012783          	lw	a5,240(sp)
   114e8:	00148613          	addi	a2,s1,1
   114ec:	0a010593          	addi	a1,sp,160
   114f0:	0af12823          	sw	a5,176(sp)
   114f4:	0f412783          	lw	a5,244(sp)
   114f8:	0b010513          	addi	a0,sp,176
   114fc:	00c12e23          	sw	a2,28(sp)
   11500:	0af12a23          	sw	a5,180(sp)
   11504:	0f812783          	lw	a5,248(sp)
   11508:	0a012023          	sw	zero,160(sp)
   1150c:	0a012223          	sw	zero,164(sp)
   11510:	0af12c23          	sw	a5,184(sp)
   11514:	0fc12783          	lw	a5,252(sp)
   11518:	0a012423          	sw	zero,168(sp)
   1151c:	0a012623          	sw	zero,172(sp)
   11520:	0af12e23          	sw	a5,188(sp)
   11524:	4d10f0ef          	jal	ra,211f4 <__eqtf2>
   11528:	01c12603          	lw	a2,28(sp)
   1152c:	02012783          	lw	a5,32(sp)
   11530:	00890893          	addi	a7,s2,8
   11534:	00060693          	mv	a3,a2
   11538:	fff78d93          	addi	s11,a5,-1
   1153c:	30050a63          	beqz	a0,11850 <_vfprintf_r+0x1438>
   11540:	001b0713          	addi	a4,s6,1
   11544:	01bc8cb3          	add	s9,s9,s11
   11548:	00e92023          	sw	a4,0(s2)
   1154c:	01b92223          	sw	s11,4(s2)
   11550:	0f912623          	sw	s9,236(sp)
   11554:	0ec12423          	sw	a2,232(sp)
   11558:	00700793          	li	a5,7
   1155c:	50c7cc63          	blt	a5,a2,11a74 <_vfprintf_r+0x165c>
   11560:	01090793          	addi	a5,s2,16
   11564:	00248693          	addi	a3,s1,2
   11568:	00088913          	mv	s2,a7
   1156c:	00078893          	mv	a7,a5
   11570:	03812603          	lw	a2,56(sp)
   11574:	0d410713          	addi	a4,sp,212
   11578:	00e92023          	sw	a4,0(s2)
   1157c:	019607b3          	add	a5,a2,s9
   11580:	00c92223          	sw	a2,4(s2)
   11584:	0ef12623          	sw	a5,236(sp)
   11588:	0ed12423          	sw	a3,232(sp)
   1158c:	00700713          	li	a4,7
   11590:	98d75863          	bge	a4,a3,10720 <_vfprintf_r+0x308>
   11594:	ef4ff06f          	j	10c88 <_vfprintf_r+0x870>
   11598:	00025737          	lui	a4,0x25
   1159c:	01000613          	li	a2,16
   115a0:	0e812683          	lw	a3,232(sp)
   115a4:	90470e93          	addi	t4,a4,-1788 # 24904 <blanks.4483>
   115a8:	09065c63          	bge	a2,a6,11640 <_vfprintf_r+0x1228>
   115ac:	04812023          	sw	s0,64(sp)
   115b0:	04912223          	sw	s1,68(sp)
   115b4:	000d0413          	mv	s0,s10
   115b8:	000c0493          	mv	s1,s8
   115bc:	01000e13          	li	t3,16
   115c0:	00700293          	li	t0,7
   115c4:	00080c13          	mv	s8,a6
   115c8:	000e8d13          	mv	s10,t4
   115cc:	00c0006f          	j	115d8 <_vfprintf_r+0x11c0>
   115d0:	ff0c0c13          	addi	s8,s8,-16
   115d4:	058e5a63          	bge	t3,s8,11628 <_vfprintf_r+0x1210>
   115d8:	01078793          	addi	a5,a5,16
   115dc:	00168693          	addi	a3,a3,1
   115e0:	01a8a023          	sw	s10,0(a7)
   115e4:	01c8a223          	sw	t3,4(a7)
   115e8:	0ef12623          	sw	a5,236(sp)
   115ec:	0ed12423          	sw	a3,232(sp)
   115f0:	00888893          	addi	a7,a7,8
   115f4:	fcd2dee3          	bge	t0,a3,115d0 <_vfprintf_r+0x11b8>
   115f8:	0e410613          	addi	a2,sp,228
   115fc:	00048593          	mv	a1,s1
   11600:	00040513          	mv	a0,s0
   11604:	0000a0ef          	jal	ra,1b604 <__sprint_r>
   11608:	7a051263          	bnez	a0,11dac <_vfprintf_r+0x1994>
   1160c:	01000e13          	li	t3,16
   11610:	ff0c0c13          	addi	s8,s8,-16
   11614:	0ec12783          	lw	a5,236(sp)
   11618:	0e812683          	lw	a3,232(sp)
   1161c:	10c10893          	addi	a7,sp,268
   11620:	00700293          	li	t0,7
   11624:	fb8e4ae3          	blt	t3,s8,115d8 <_vfprintf_r+0x11c0>
   11628:	000c0813          	mv	a6,s8
   1162c:	000d0e93          	mv	t4,s10
   11630:	00048c13          	mv	s8,s1
   11634:	00040d13          	mv	s10,s0
   11638:	04412483          	lw	s1,68(sp)
   1163c:	04012403          	lw	s0,64(sp)
   11640:	010787b3          	add	a5,a5,a6
   11644:	00168693          	addi	a3,a3,1
   11648:	01d8a023          	sw	t4,0(a7)
   1164c:	0108a223          	sw	a6,4(a7)
   11650:	0ef12623          	sw	a5,236(sp)
   11654:	0ed12423          	sw	a3,232(sp)
   11658:	00700613          	li	a2,7
   1165c:	00888893          	addi	a7,a7,8
   11660:	00d64463          	blt	a2,a3,11668 <_vfprintf_r+0x1250>
   11664:	80cff06f          	j	10670 <_vfprintf_r+0x258>
   11668:	0e410613          	addi	a2,sp,228
   1166c:	000c0593          	mv	a1,s8
   11670:	000d0513          	mv	a0,s10
   11674:	791090ef          	jal	ra,1b604 <__sprint_r>
   11678:	de0518e3          	bnez	a0,11468 <_vfprintf_r+0x1050>
   1167c:	0ec12783          	lw	a5,236(sp)
   11680:	10c10893          	addi	a7,sp,268
   11684:	fedfe06f          	j	10670 <_vfprintf_r+0x258>
   11688:	0e410613          	addi	a2,sp,228
   1168c:	000c0593          	mv	a1,s8
   11690:	000d0513          	mv	a0,s10
   11694:	771090ef          	jal	ra,1b604 <__sprint_r>
   11698:	dc0518e3          	bnez	a0,11468 <_vfprintf_r+0x1050>
   1169c:	0ec12783          	lw	a5,236(sp)
   116a0:	10c10893          	addi	a7,sp,268
   116a4:	83cff06f          	j	106e0 <_vfprintf_r+0x2c8>
   116a8:	0cc12583          	lw	a1,204(sp)
   116ac:	66b05c63          	blez	a1,11d24 <_vfprintf_r+0x190c>
   116b0:	01c12703          	lw	a4,28(sp)
   116b4:	02012683          	lw	a3,32(sp)
   116b8:	00070493          	mv	s1,a4
   116bc:	38e6c263          	blt	a3,a4,11a40 <_vfprintf_r+0x1628>
   116c0:	02905663          	blez	s1,116ec <_vfprintf_r+0x12d4>
   116c4:	0e812683          	lw	a3,232(sp)
   116c8:	009787b3          	add	a5,a5,s1
   116cc:	0168a023          	sw	s6,0(a7)
   116d0:	00168693          	addi	a3,a3,1
   116d4:	0098a223          	sw	s1,4(a7)
   116d8:	0ef12623          	sw	a5,236(sp)
   116dc:	0ed12423          	sw	a3,232(sp)
   116e0:	00700613          	li	a2,7
   116e4:	00888893          	addi	a7,a7,8
   116e8:	32d642e3          	blt	a2,a3,1220c <_vfprintf_r+0x1df4>
   116ec:	fff4c693          	not	a3,s1
   116f0:	01c12703          	lw	a4,28(sp)
   116f4:	41f6d693          	srai	a3,a3,0x1f
   116f8:	00d4f4b3          	and	s1,s1,a3
   116fc:	409704b3          	sub	s1,a4,s1
   11700:	48904463          	bgtz	s1,11b88 <_vfprintf_r+0x1770>
   11704:	01c12703          	lw	a4,28(sp)
   11708:	400a7693          	andi	a3,s4,1024
   1170c:	00eb0db3          	add	s11,s6,a4
   11710:	0c0698e3          	bnez	a3,11fe0 <_vfprintf_r+0x1bc8>
   11714:	0cc12483          	lw	s1,204(sp)
   11718:	02012703          	lw	a4,32(sp)
   1171c:	00e4c663          	blt	s1,a4,11728 <_vfprintf_r+0x1310>
   11720:	001a7693          	andi	a3,s4,1
   11724:	300688e3          	beqz	a3,12234 <_vfprintf_r+0x1e1c>
   11728:	03012683          	lw	a3,48(sp)
   1172c:	02c12703          	lw	a4,44(sp)
   11730:	00700613          	li	a2,7
   11734:	00d8a023          	sw	a3,0(a7)
   11738:	0e812683          	lw	a3,232(sp)
   1173c:	00e787b3          	add	a5,a5,a4
   11740:	00e8a223          	sw	a4,4(a7)
   11744:	00168693          	addi	a3,a3,1
   11748:	0ef12623          	sw	a5,236(sp)
   1174c:	0ed12423          	sw	a3,232(sp)
   11750:	00888893          	addi	a7,a7,8
   11754:	00d65463          	bge	a2,a3,1175c <_vfprintf_r+0x1344>
   11758:	1780106f          	j	128d0 <_vfprintf_r+0x24b8>
   1175c:	02012683          	lw	a3,32(sp)
   11760:	00db0733          	add	a4,s6,a3
   11764:	409684b3          	sub	s1,a3,s1
   11768:	41b70733          	sub	a4,a4,s11
   1176c:	00048913          	mv	s2,s1
   11770:	00975463          	bge	a4,s1,11778 <_vfprintf_r+0x1360>
   11774:	00070913          	mv	s2,a4
   11778:	03205863          	blez	s2,117a8 <_vfprintf_r+0x1390>
   1177c:	0e812703          	lw	a4,232(sp)
   11780:	012787b3          	add	a5,a5,s2
   11784:	01b8a023          	sw	s11,0(a7)
   11788:	00170713          	addi	a4,a4,1
   1178c:	0128a223          	sw	s2,4(a7)
   11790:	0ef12623          	sw	a5,236(sp)
   11794:	0ee12423          	sw	a4,232(sp)
   11798:	00700693          	li	a3,7
   1179c:	00888893          	addi	a7,a7,8
   117a0:	00e6d463          	bge	a3,a4,117a8 <_vfprintf_r+0x1390>
   117a4:	1c80106f          	j	1296c <_vfprintf_r+0x2554>
   117a8:	fff94713          	not	a4,s2
   117ac:	41f75713          	srai	a4,a4,0x1f
   117b0:	00e97733          	and	a4,s2,a4
   117b4:	40e484b3          	sub	s1,s1,a4
   117b8:	00904463          	bgtz	s1,117c0 <_vfprintf_r+0x13a8>
   117bc:	f65fe06f          	j	10720 <_vfprintf_r+0x308>
   117c0:	01000693          	li	a3,16
   117c4:	0e812703          	lw	a4,232(sp)
   117c8:	6296d863          	bge	a3,s1,11df8 <_vfprintf_r+0x19e0>
   117cc:	01000913          	li	s2,16
   117d0:	00700c93          	li	s9,7
   117d4:	00c0006f          	j	117e0 <_vfprintf_r+0x13c8>
   117d8:	ff048493          	addi	s1,s1,-16
   117dc:	60995e63          	bge	s2,s1,11df8 <_vfprintf_r+0x19e0>
   117e0:	00812683          	lw	a3,8(sp)
   117e4:	01078793          	addi	a5,a5,16
   117e8:	00170713          	addi	a4,a4,1
   117ec:	00d8a023          	sw	a3,0(a7)
   117f0:	0128a223          	sw	s2,4(a7)
   117f4:	0ef12623          	sw	a5,236(sp)
   117f8:	0ee12423          	sw	a4,232(sp)
   117fc:	00888893          	addi	a7,a7,8
   11800:	fcecdce3          	bge	s9,a4,117d8 <_vfprintf_r+0x13c0>
   11804:	0e410613          	addi	a2,sp,228
   11808:	000c0593          	mv	a1,s8
   1180c:	000d0513          	mv	a0,s10
   11810:	5f5090ef          	jal	ra,1b604 <__sprint_r>
   11814:	c4051ae3          	bnez	a0,11468 <_vfprintf_r+0x1050>
   11818:	0ec12783          	lw	a5,236(sp)
   1181c:	0e812703          	lw	a4,232(sp)
   11820:	10c10893          	addi	a7,sp,268
   11824:	fb5ff06f          	j	117d8 <_vfprintf_r+0x13c0>
   11828:	001a7793          	andi	a5,s4,1
   1182c:	c6079ae3          	bnez	a5,114a0 <_vfprintf_r+0x1088>
   11830:	00c8a223          	sw	a2,4(a7)
   11834:	0f912623          	sw	s9,236(sp)
   11838:	0e912423          	sw	s1,232(sp)
   1183c:	00700793          	li	a5,7
   11840:	2297ca63          	blt	a5,s1,11a74 <_vfprintf_r+0x165c>
   11844:	00268693          	addi	a3,a3,2
   11848:	01088893          	addi	a7,a7,16
   1184c:	d25ff06f          	j	11570 <_vfprintf_r+0x1158>
   11850:	d3b050e3          	blez	s11,11570 <_vfprintf_r+0x1158>
   11854:	01000713          	li	a4,16
   11858:	01b74463          	blt	a4,s11,11860 <_vfprintf_r+0x1448>
   1185c:	6200106f          	j	12e7c <_vfprintf_r+0x2a64>
   11860:	00700b13          	li	s6,7
   11864:	00060493          	mv	s1,a2
   11868:	0100006f          	j	11878 <_vfprintf_r+0x1460>
   1186c:	ff0d8d93          	addi	s11,s11,-16
   11870:	1db75e63          	bge	a4,s11,11a4c <_vfprintf_r+0x1634>
   11874:	00148493          	addi	s1,s1,1
   11878:	00812783          	lw	a5,8(sp)
   1187c:	010c8c93          	addi	s9,s9,16
   11880:	00e92223          	sw	a4,4(s2)
   11884:	00f92023          	sw	a5,0(s2)
   11888:	0f912623          	sw	s9,236(sp)
   1188c:	0e912423          	sw	s1,232(sp)
   11890:	00890913          	addi	s2,s2,8
   11894:	fc9b5ce3          	bge	s6,s1,1186c <_vfprintf_r+0x1454>
   11898:	0e410613          	addi	a2,sp,228
   1189c:	000c0593          	mv	a1,s8
   118a0:	000d0513          	mv	a0,s10
   118a4:	561090ef          	jal	ra,1b604 <__sprint_r>
   118a8:	bc0510e3          	bnez	a0,11468 <_vfprintf_r+0x1050>
   118ac:	0ec12c83          	lw	s9,236(sp)
   118b0:	0e812483          	lw	s1,232(sp)
   118b4:	10c10913          	addi	s2,sp,268
   118b8:	01000713          	li	a4,16
   118bc:	fb1ff06f          	j	1186c <_vfprintf_r+0x1454>
   118c0:	01412683          	lw	a3,20(sp)
   118c4:	010a7793          	andi	a5,s4,16
   118c8:	00468713          	addi	a4,a3,4
   118cc:	16079263          	bnez	a5,11a30 <_vfprintf_r+0x1618>
   118d0:	040a7793          	andi	a5,s4,64
   118d4:	68078463          	beqz	a5,11f5c <_vfprintf_r+0x1b44>
   118d8:	01412783          	lw	a5,20(sp)
   118dc:	00000c93          	li	s9,0
   118e0:	00e12a23          	sw	a4,20(sp)
   118e4:	0007d903          	lhu	s2,0(a5)
   118e8:	f1cff06f          	j	11004 <_vfprintf_r+0xbec>
   118ec:	01412683          	lw	a3,20(sp)
   118f0:	010bf793          	andi	a5,s7,16
   118f4:	00468713          	addi	a4,a3,4
   118f8:	0c079e63          	bnez	a5,119d4 <_vfprintf_r+0x15bc>
   118fc:	040bf793          	andi	a5,s7,64
   11900:	60078e63          	beqz	a5,11f1c <_vfprintf_r+0x1b04>
   11904:	01412783          	lw	a5,20(sp)
   11908:	00000c93          	li	s9,0
   1190c:	00e12a23          	sw	a4,20(sp)
   11910:	0007d903          	lhu	s2,0(a5)
   11914:	00100793          	li	a5,1
   11918:	db0ff06f          	j	10ec8 <_vfprintf_r+0xab0>
   1191c:	01412683          	lw	a3,20(sp)
   11920:	010a7793          	andi	a5,s4,16
   11924:	00468713          	addi	a4,a3,4
   11928:	0e079a63          	bnez	a5,11a1c <_vfprintf_r+0x1604>
   1192c:	040a7793          	andi	a5,s4,64
   11930:	60078663          	beqz	a5,11f3c <_vfprintf_r+0x1b24>
   11934:	01412783          	lw	a5,20(sp)
   11938:	00e12a23          	sw	a4,20(sp)
   1193c:	00079903          	lh	s2,0(a5)
   11940:	41f95c93          	srai	s9,s2,0x1f
   11944:	000c8793          	mv	a5,s9
   11948:	f207de63          	bgez	a5,11084 <_vfprintf_r+0xc6c>
   1194c:	012037b3          	snez	a5,s2
   11950:	41900cb3          	neg	s9,s9
   11954:	40fc8cb3          	sub	s9,s9,a5
   11958:	02d00793          	li	a5,45
   1195c:	0cf103a3          	sb	a5,199(sp)
   11960:	41200933          	neg	s2,s2
   11964:	000a0b93          	mv	s7,s4
   11968:	00100793          	li	a5,1
   1196c:	d60ff06f          	j	10ecc <_vfprintf_r+0xab4>
   11970:	001a7713          	andi	a4,s4,1
   11974:	00071463          	bnez	a4,1197c <_vfprintf_r+0x1564>
   11978:	da9fe06f          	j	10720 <_vfprintf_r+0x308>
   1197c:	8c1ff06f          	j	1123c <_vfprintf_r+0xe24>
   11980:	000c8893          	mv	a7,s9
   11984:	ed4ff06f          	j	11058 <_vfprintf_r+0xc40>
   11988:	03000793          	li	a5,48
   1198c:	1af107a3          	sb	a5,431(sp)
   11990:	1af10b13          	addi	s6,sp,431
   11994:	d60ff06f          	j	10ef4 <_vfprintf_r+0xadc>
   11998:	03c12783          	lw	a5,60(sp)
   1199c:	00044483          	lbu	s1,0(s0)
   119a0:	00079463          	bnez	a5,119a8 <_vfprintf_r+0x1590>
   119a4:	c2dfe06f          	j	105d0 <_vfprintf_r+0x1b8>
   119a8:	0007c783          	lbu	a5,0(a5)
   119ac:	00079463          	bnez	a5,119b4 <_vfprintf_r+0x159c>
   119b0:	c21fe06f          	j	105d0 <_vfprintf_r+0x1b8>
   119b4:	400a6a13          	ori	s4,s4,1024
   119b8:	c19fe06f          	j	105d0 <_vfprintf_r+0x1b8>
   119bc:	00c12683          	lw	a3,12(sp)
   119c0:	00040b13          	mv	s6,s0
   119c4:	41f6d793          	srai	a5,a3,0x1f
   119c8:	00d72023          	sw	a3,0(a4)
   119cc:	00f72223          	sw	a5,4(a4)
   119d0:	d99fe06f          	j	10768 <_vfprintf_r+0x350>
   119d4:	0006a903          	lw	s2,0(a3)
   119d8:	00000c93          	li	s9,0
   119dc:	00e12a23          	sw	a4,20(sp)
   119e0:	00100793          	li	a5,1
   119e4:	ce4ff06f          	j	10ec8 <_vfprintf_r+0xab0>
   119e8:	01412703          	lw	a4,20(sp)
   119ec:	00072783          	lw	a5,0(a4)
   119f0:	00470713          	addi	a4,a4,4
   119f4:	00e12a23          	sw	a4,20(sp)
   119f8:	0007a583          	lw	a1,0(a5)
   119fc:	0047a603          	lw	a2,4(a5)
   11a00:	0087a683          	lw	a3,8(a5)
   11a04:	00c7a783          	lw	a5,12(a5)
   11a08:	0eb12823          	sw	a1,240(sp)
   11a0c:	0ec12a23          	sw	a2,244(sp)
   11a10:	0ed12c23          	sw	a3,248(sp)
   11a14:	0ef12e23          	sw	a5,252(sp)
   11a18:	ed5fe06f          	j	108ec <_vfprintf_r+0x4d4>
   11a1c:	0006a903          	lw	s2,0(a3)
   11a20:	00e12a23          	sw	a4,20(sp)
   11a24:	41f95c93          	srai	s9,s2,0x1f
   11a28:	000c8793          	mv	a5,s9
   11a2c:	e54ff06f          	j	11080 <_vfprintf_r+0xc68>
   11a30:	0006a903          	lw	s2,0(a3)
   11a34:	00000c93          	li	s9,0
   11a38:	00e12a23          	sw	a4,20(sp)
   11a3c:	dc8ff06f          	j	11004 <_vfprintf_r+0xbec>
   11a40:	00068493          	mv	s1,a3
   11a44:	c89040e3          	bgtz	s1,116c4 <_vfprintf_r+0x12ac>
   11a48:	ca5ff06f          	j	116ec <_vfprintf_r+0x12d4>
   11a4c:	00148693          	addi	a3,s1,1
   11a50:	00890713          	addi	a4,s2,8
   11a54:	00812783          	lw	a5,8(sp)
   11a58:	01bc8cb3          	add	s9,s9,s11
   11a5c:	01b92223          	sw	s11,4(s2)
   11a60:	00f92023          	sw	a5,0(s2)
   11a64:	0f912623          	sw	s9,236(sp)
   11a68:	0ed12423          	sw	a3,232(sp)
   11a6c:	00700793          	li	a5,7
   11a70:	74d7de63          	bge	a5,a3,121cc <_vfprintf_r+0x1db4>
   11a74:	0e410613          	addi	a2,sp,228
   11a78:	000c0593          	mv	a1,s8
   11a7c:	000d0513          	mv	a0,s10
   11a80:	385090ef          	jal	ra,1b604 <__sprint_r>
   11a84:	9e0512e3          	bnez	a0,11468 <_vfprintf_r+0x1050>
   11a88:	0e812683          	lw	a3,232(sp)
   11a8c:	0ec12c83          	lw	s9,236(sp)
   11a90:	11410893          	addi	a7,sp,276
   11a94:	00168693          	addi	a3,a3,1
   11a98:	10c10913          	addi	s2,sp,268
   11a9c:	ad5ff06f          	j	11570 <_vfprintf_r+0x1158>
   11aa0:	000c8893          	mv	a7,s9
   11aa4:	000a0b93          	mv	s7,s4
   11aa8:	d70ff06f          	j	11018 <_vfprintf_r+0xc00>
   11aac:	000247b7          	lui	a5,0x24
   11ab0:	76478793          	addi	a5,a5,1892 # 24764 <__clzsi2+0x68>
   11ab4:	000c8893          	mv	a7,s9
   11ab8:	02f12a23          	sw	a5,52(sp)
   11abc:	020a7793          	andi	a5,s4,32
   11ac0:	12078863          	beqz	a5,11bf0 <_vfprintf_r+0x17d8>
   11ac4:	01412783          	lw	a5,20(sp)
   11ac8:	00778b13          	addi	s6,a5,7
   11acc:	ff8b7b13          	andi	s6,s6,-8
   11ad0:	000b2903          	lw	s2,0(s6)
   11ad4:	004b2c83          	lw	s9,4(s6)
   11ad8:	008b0793          	addi	a5,s6,8
   11adc:	00f12a23          	sw	a5,20(sp)
   11ae0:	001a7793          	andi	a5,s4,1
   11ae4:	00078e63          	beqz	a5,11b00 <_vfprintf_r+0x16e8>
   11ae8:	019967b3          	or	a5,s2,s9
   11aec:	00078a63          	beqz	a5,11b00 <_vfprintf_r+0x16e8>
   11af0:	03000793          	li	a5,48
   11af4:	0cf10423          	sb	a5,200(sp)
   11af8:	0c9104a3          	sb	s1,201(sp)
   11afc:	002a6a13          	ori	s4,s4,2
   11b00:	bffa7b93          	andi	s7,s4,-1025
   11b04:	00200793          	li	a5,2
   11b08:	bc0ff06f          	j	10ec8 <_vfprintf_r+0xab0>
   11b0c:	000247b7          	lui	a5,0x24
   11b10:	77878793          	addi	a5,a5,1912 # 24778 <__clzsi2+0x7c>
   11b14:	000c8893          	mv	a7,s9
   11b18:	02f12a23          	sw	a5,52(sp)
   11b1c:	fa1ff06f          	j	11abc <_vfprintf_r+0x16a4>
   11b20:	000c8893          	mv	a7,s9
   11b24:	cbcff06f          	j	10fe0 <_vfprintf_r+0xbc8>
   11b28:	0e410613          	addi	a2,sp,228
   11b2c:	000c0593          	mv	a1,s8
   11b30:	000d0513          	mv	a0,s10
   11b34:	2d1090ef          	jal	ra,1b604 <__sprint_r>
   11b38:	920518e3          	bnez	a0,11468 <_vfprintf_r+0x1050>
   11b3c:	0ec12783          	lw	a5,236(sp)
   11b40:	10c10893          	addi	a7,sp,268
   11b44:	f28ff06f          	j	1126c <_vfprintf_r+0xe54>
   11b48:	00144483          	lbu	s1,1(s0)
   11b4c:	020a6a13          	ori	s4,s4,32
   11b50:	00140413          	addi	s0,s0,1
   11b54:	a7dfe06f          	j	105d0 <_vfprintf_r+0x1b8>
   11b58:	00144483          	lbu	s1,1(s0)
   11b5c:	200a6a13          	ori	s4,s4,512
   11b60:	00140413          	addi	s0,s0,1
   11b64:	a6dfe06f          	j	105d0 <_vfprintf_r+0x1b8>
   11b68:	00600793          	li	a5,6
   11b6c:	000d8c93          	mv	s9,s11
   11b70:	6bb7ee63          	bltu	a5,s11,1222c <_vfprintf_r+0x1e14>
   11b74:	00024737          	lui	a4,0x24
   11b78:	000c8a93          	mv	s5,s9
   11b7c:	01212a23          	sw	s2,20(sp)
   11b80:	78c70b13          	addi	s6,a4,1932 # 2478c <__clzsi2+0x90>
   11b84:	ab9fe06f          	j	1063c <_vfprintf_r+0x224>
   11b88:	01000613          	li	a2,16
   11b8c:	0e812683          	lw	a3,232(sp)
   11b90:	40965463          	bge	a2,s1,11f98 <_vfprintf_r+0x1b80>
   11b94:	01000c93          	li	s9,16
   11b98:	00700d93          	li	s11,7
   11b9c:	00c0006f          	j	11ba8 <_vfprintf_r+0x1790>
   11ba0:	ff048493          	addi	s1,s1,-16
   11ba4:	3e9cda63          	bge	s9,s1,11f98 <_vfprintf_r+0x1b80>
   11ba8:	00812703          	lw	a4,8(sp)
   11bac:	01078793          	addi	a5,a5,16
   11bb0:	00168693          	addi	a3,a3,1
   11bb4:	00e8a023          	sw	a4,0(a7)
   11bb8:	0198a223          	sw	s9,4(a7)
   11bbc:	0ef12623          	sw	a5,236(sp)
   11bc0:	0ed12423          	sw	a3,232(sp)
   11bc4:	00888893          	addi	a7,a7,8
   11bc8:	fcdddce3          	bge	s11,a3,11ba0 <_vfprintf_r+0x1788>
   11bcc:	0e410613          	addi	a2,sp,228
   11bd0:	000c0593          	mv	a1,s8
   11bd4:	000d0513          	mv	a0,s10
   11bd8:	22d090ef          	jal	ra,1b604 <__sprint_r>
   11bdc:	880516e3          	bnez	a0,11468 <_vfprintf_r+0x1050>
   11be0:	0ec12783          	lw	a5,236(sp)
   11be4:	0e812683          	lw	a3,232(sp)
   11be8:	10c10893          	addi	a7,sp,268
   11bec:	fb5ff06f          	j	11ba0 <_vfprintf_r+0x1788>
   11bf0:	01412683          	lw	a3,20(sp)
   11bf4:	010a7793          	andi	a5,s4,16
   11bf8:	00468713          	addi	a4,a3,4
   11bfc:	1c078063          	beqz	a5,11dbc <_vfprintf_r+0x19a4>
   11c00:	0006a903          	lw	s2,0(a3)
   11c04:	00000c93          	li	s9,0
   11c08:	00e12a23          	sw	a4,20(sp)
   11c0c:	ed5ff06f          	j	11ae0 <_vfprintf_r+0x16c8>
   11c10:	0e410613          	addi	a2,sp,228
   11c14:	000c0593          	mv	a1,s8
   11c18:	000d0513          	mv	a0,s10
   11c1c:	1e9090ef          	jal	ra,1b604 <__sprint_r>
   11c20:	840514e3          	bnez	a0,11468 <_vfprintf_r+0x1050>
   11c24:	0ec12c83          	lw	s9,236(sp)
   11c28:	0e812483          	lw	s1,232(sp)
   11c2c:	10c10913          	addi	s2,sp,268
   11c30:	889ff06f          	j	114b8 <_vfprintf_r+0x10a0>
   11c34:	0e410613          	addi	a2,sp,228
   11c38:	000c0593          	mv	a1,s8
   11c3c:	000d0513          	mv	a0,s10
   11c40:	1c5090ef          	jal	ra,1b604 <__sprint_r>
   11c44:	820512e3          	bnez	a0,11468 <_vfprintf_r+0x1050>
   11c48:	0ec12c83          	lw	s9,236(sp)
   11c4c:	0e812483          	lw	s1,232(sp)
   11c50:	10c10913          	addi	s2,sp,268
   11c54:	891ff06f          	j	114e4 <_vfprintf_r+0x10cc>
   11c58:	1b010b13          	addi	s6,sp,432
   11c5c:	00000793          	li	a5,0
   11c60:	00812823          	sw	s0,16(sp)
   11c64:	00912e23          	sw	s1,28(sp)
   11c68:	000b0413          	mv	s0,s6
   11c6c:	03312223          	sw	s3,36(sp)
   11c70:	000c0b13          	mv	s6,s8
   11c74:	00090493          	mv	s1,s2
   11c78:	000c8993          	mv	s3,s9
   11c7c:	400bfa13          	andi	s4,s7,1024
   11c80:	03c12c83          	lw	s9,60(sp)
   11c84:	0ff00a93          	li	s5,255
   11c88:	00088c13          	mv	s8,a7
   11c8c:	00078913          	mv	s2,a5
   11c90:	0240006f          	j	11cb4 <_vfprintf_r+0x189c>
   11c94:	00a00613          	li	a2,10
   11c98:	00000693          	li	a3,0
   11c9c:	00048513          	mv	a0,s1
   11ca0:	00098593          	mv	a1,s3
   11ca4:	4310d0ef          	jal	ra,1f8d4 <__udivdi3>
   11ca8:	2a098ae3          	beqz	s3,1275c <_vfprintf_r+0x2344>
   11cac:	00050493          	mv	s1,a0
   11cb0:	00058993          	mv	s3,a1
   11cb4:	00a00613          	li	a2,10
   11cb8:	00000693          	li	a3,0
   11cbc:	00048513          	mv	a0,s1
   11cc0:	00098593          	mv	a1,s3
   11cc4:	1e80e0ef          	jal	ra,1feac <__umoddi3>
   11cc8:	03050513          	addi	a0,a0,48
   11ccc:	fea40fa3          	sb	a0,-1(s0)
   11cd0:	00190913          	addi	s2,s2,1
   11cd4:	fff40413          	addi	s0,s0,-1
   11cd8:	fa0a0ee3          	beqz	s4,11c94 <_vfprintf_r+0x187c>
   11cdc:	000cc683          	lbu	a3,0(s9)
   11ce0:	fad91ae3          	bne	s2,a3,11c94 <_vfprintf_r+0x187c>
   11ce4:	fb5908e3          	beq	s2,s5,11c94 <_vfprintf_r+0x187c>
   11ce8:	4a099263          	bnez	s3,1218c <_vfprintf_r+0x1d74>
   11cec:	00900793          	li	a5,9
   11cf0:	4897ee63          	bltu	a5,s1,1218c <_vfprintf_r+0x1d74>
   11cf4:	000c0893          	mv	a7,s8
   11cf8:	1b010793          	addi	a5,sp,432
   11cfc:	000b0c13          	mv	s8,s6
   11d00:	00040b13          	mv	s6,s0
   11d04:	03912e23          	sw	s9,60(sp)
   11d08:	01c12483          	lw	s1,28(sp)
   11d0c:	02412983          	lw	s3,36(sp)
   11d10:	01012403          	lw	s0,16(sp)
   11d14:	03212023          	sw	s2,32(sp)
   11d18:	41678cb3          	sub	s9,a5,s6
   11d1c:	000b8a13          	mv	s4,s7
   11d20:	9d4ff06f          	j	10ef4 <_vfprintf_r+0xadc>
   11d24:	0e812683          	lw	a3,232(sp)
   11d28:	00024637          	lui	a2,0x24
   11d2c:	79460613          	addi	a2,a2,1940 # 24794 <__clzsi2+0x98>
   11d30:	00c8a023          	sw	a2,0(a7)
   11d34:	00178793          	addi	a5,a5,1
   11d38:	00100613          	li	a2,1
   11d3c:	00168693          	addi	a3,a3,1
   11d40:	00c8a223          	sw	a2,4(a7)
   11d44:	0ef12623          	sw	a5,236(sp)
   11d48:	0ed12423          	sw	a3,232(sp)
   11d4c:	00700613          	li	a2,7
   11d50:	00888893          	addi	a7,a7,8
   11d54:	48d64463          	blt	a2,a3,121dc <_vfprintf_r+0x1dc4>
   11d58:	00058463          	beqz	a1,11d60 <_vfprintf_r+0x1948>
   11d5c:	eadfe06f          	j	10c08 <_vfprintf_r+0x7f0>
   11d60:	02012703          	lw	a4,32(sp)
   11d64:	001a7693          	andi	a3,s4,1
   11d68:	00e6e6b3          	or	a3,a3,a4
   11d6c:	00069463          	bnez	a3,11d74 <_vfprintf_r+0x195c>
   11d70:	9b1fe06f          	j	10720 <_vfprintf_r+0x308>
   11d74:	03012683          	lw	a3,48(sp)
   11d78:	02c12703          	lw	a4,44(sp)
   11d7c:	00700613          	li	a2,7
   11d80:	00d8a023          	sw	a3,0(a7)
   11d84:	0e812683          	lw	a3,232(sp)
   11d88:	00f707b3          	add	a5,a4,a5
   11d8c:	00e8a223          	sw	a4,4(a7)
   11d90:	00168693          	addi	a3,a3,1
   11d94:	0ef12623          	sw	a5,236(sp)
   11d98:	0ed12423          	sw	a3,232(sp)
   11d9c:	00d65463          	bge	a2,a3,11da4 <_vfprintf_r+0x198c>
   11da0:	e99fe06f          	j	10c38 <_vfprintf_r+0x820>
   11da4:	00888893          	addi	a7,a7,8
   11da8:	ebdfe06f          	j	10c64 <_vfprintf_r+0x84c>
   11dac:	01012b83          	lw	s7,16(sp)
   11db0:	00040d13          	mv	s10,s0
   11db4:	00048c13          	mv	s8,s1
   11db8:	eb4ff06f          	j	1146c <_vfprintf_r+0x1054>
   11dbc:	040a7793          	andi	a5,s4,64
   11dc0:	14078063          	beqz	a5,11f00 <_vfprintf_r+0x1ae8>
   11dc4:	01412783          	lw	a5,20(sp)
   11dc8:	00000c93          	li	s9,0
   11dcc:	00e12a23          	sw	a4,20(sp)
   11dd0:	0007d903          	lhu	s2,0(a5)
   11dd4:	d0dff06f          	j	11ae0 <_vfprintf_r+0x16c8>
   11dd8:	0e410613          	addi	a2,sp,228
   11ddc:	000c0593          	mv	a1,s8
   11de0:	000d0513          	mv	a0,s10
   11de4:	021090ef          	jal	ra,1b604 <__sprint_r>
   11de8:	e8051063          	bnez	a0,11468 <_vfprintf_r+0x1050>
   11dec:	0ec12783          	lw	a5,236(sp)
   11df0:	10c10893          	addi	a7,sp,268
   11df4:	c3cff06f          	j	11230 <_vfprintf_r+0xe18>
   11df8:	00812683          	lw	a3,8(sp)
   11dfc:	009787b3          	add	a5,a5,s1
   11e00:	0098a223          	sw	s1,4(a7)
   11e04:	00d8a023          	sw	a3,0(a7)
   11e08:	00170713          	addi	a4,a4,1
   11e0c:	0ef12623          	sw	a5,236(sp)
   11e10:	0ee12423          	sw	a4,232(sp)
   11e14:	00700693          	li	a3,7
   11e18:	00e6c463          	blt	a3,a4,11e20 <_vfprintf_r+0x1a08>
   11e1c:	901fe06f          	j	1071c <_vfprintf_r+0x304>
   11e20:	e69fe06f          	j	10c88 <_vfprintf_r+0x870>
   11e24:	0f012783          	lw	a5,240(sp)
   11e28:	0a010593          	addi	a1,sp,160
   11e2c:	0b010513          	addi	a0,sp,176
   11e30:	0af12823          	sw	a5,176(sp)
   11e34:	0f412783          	lw	a5,244(sp)
   11e38:	0a012023          	sw	zero,160(sp)
   11e3c:	0a012223          	sw	zero,164(sp)
   11e40:	0af12a23          	sw	a5,180(sp)
   11e44:	0f812783          	lw	a5,248(sp)
   11e48:	0a012423          	sw	zero,168(sp)
   11e4c:	0a012623          	sw	zero,172(sp)
   11e50:	0af12c23          	sw	a5,184(sp)
   11e54:	0fc12783          	lw	a5,252(sp)
   11e58:	0af12e23          	sw	a5,188(sp)
   11e5c:	5a80f0ef          	jal	ra,21404 <__letf2>
   11e60:	01012883          	lw	a7,16(sp)
   11e64:	260540e3          	bltz	a0,128c4 <_vfprintf_r+0x24ac>
   11e68:	0c714783          	lbu	a5,199(sp)
   11e6c:	04700713          	li	a4,71
   11e70:	38975863          	bge	a4,s1,12200 <_vfprintf_r+0x1de8>
   11e74:	00024737          	lui	a4,0x24
   11e78:	75870b13          	addi	s6,a4,1880 # 24758 <__clzsi2+0x5c>
   11e7c:	00012823          	sw	zero,16(sp)
   11e80:	02012423          	sw	zero,40(sp)
   11e84:	02012223          	sw	zero,36(sp)
   11e88:	00012e23          	sw	zero,28(sp)
   11e8c:	f7fa7a13          	andi	s4,s4,-129
   11e90:	00300a93          	li	s5,3
   11e94:	00300c93          	li	s9,3
   11e98:	00000d93          	li	s11,0
   11e9c:	00078463          	beqz	a5,11ea4 <_vfprintf_r+0x1a8c>
   11ea0:	f75fe06f          	j	10e14 <_vfprintf_r+0x9fc>
   11ea4:	facfe06f          	j	10650 <_vfprintf_r+0x238>
   11ea8:	00c12783          	lw	a5,12(sp)
   11eac:	00040b13          	mv	s6,s0
   11eb0:	00f72023          	sw	a5,0(a4)
   11eb4:	8b5fe06f          	j	10768 <_vfprintf_r+0x350>
   11eb8:	000b0513          	mv	a0,s6
   11ebc:	05912023          	sw	s9,64(sp)
   11ec0:	2e5060ef          	jal	ra,189a4 <strlen>
   11ec4:	0c714783          	lbu	a5,199(sp)
   11ec8:	fff54a93          	not	s5,a0
   11ecc:	41fada93          	srai	s5,s5,0x1f
   11ed0:	01212a23          	sw	s2,20(sp)
   11ed4:	00012823          	sw	zero,16(sp)
   11ed8:	02012423          	sw	zero,40(sp)
   11edc:	02012223          	sw	zero,36(sp)
   11ee0:	00012e23          	sw	zero,28(sp)
   11ee4:	04012883          	lw	a7,64(sp)
   11ee8:	00050c93          	mv	s9,a0
   11eec:	01557ab3          	and	s5,a0,s5
   11ef0:	00000d93          	li	s11,0
   11ef4:	00078463          	beqz	a5,11efc <_vfprintf_r+0x1ae4>
   11ef8:	f1dfe06f          	j	10e14 <_vfprintf_r+0x9fc>
   11efc:	f54fe06f          	j	10650 <_vfprintf_r+0x238>
   11f00:	200a7793          	andi	a5,s4,512
   11f04:	3a078263          	beqz	a5,122a8 <_vfprintf_r+0x1e90>
   11f08:	01412783          	lw	a5,20(sp)
   11f0c:	00000c93          	li	s9,0
   11f10:	00e12a23          	sw	a4,20(sp)
   11f14:	0007c903          	lbu	s2,0(a5)
   11f18:	bc9ff06f          	j	11ae0 <_vfprintf_r+0x16c8>
   11f1c:	200bf793          	andi	a5,s7,512
   11f20:	36078863          	beqz	a5,12290 <_vfprintf_r+0x1e78>
   11f24:	01412783          	lw	a5,20(sp)
   11f28:	00000c93          	li	s9,0
   11f2c:	00e12a23          	sw	a4,20(sp)
   11f30:	0007c903          	lbu	s2,0(a5)
   11f34:	00100793          	li	a5,1
   11f38:	f91fe06f          	j	10ec8 <_vfprintf_r+0xab0>
   11f3c:	200a7793          	andi	a5,s4,512
   11f40:	32078c63          	beqz	a5,12278 <_vfprintf_r+0x1e60>
   11f44:	01412783          	lw	a5,20(sp)
   11f48:	00e12a23          	sw	a4,20(sp)
   11f4c:	00078903          	lb	s2,0(a5)
   11f50:	41f95c93          	srai	s9,s2,0x1f
   11f54:	000c8793          	mv	a5,s9
   11f58:	928ff06f          	j	11080 <_vfprintf_r+0xc68>
   11f5c:	200a7793          	andi	a5,s4,512
   11f60:	30078263          	beqz	a5,12264 <_vfprintf_r+0x1e4c>
   11f64:	01412783          	lw	a5,20(sp)
   11f68:	00000c93          	li	s9,0
   11f6c:	00e12a23          	sw	a4,20(sp)
   11f70:	0007c903          	lbu	s2,0(a5)
   11f74:	890ff06f          	j	11004 <_vfprintf_r+0xbec>
   11f78:	0fc12783          	lw	a5,252(sp)
   11f7c:	3407ca63          	bltz	a5,122d0 <_vfprintf_r+0x1eb8>
   11f80:	0c714783          	lbu	a5,199(sp)
   11f84:	04700713          	li	a4,71
   11f88:	1c975ce3          	bge	a4,s1,12960 <_vfprintf_r+0x2548>
   11f8c:	00024737          	lui	a4,0x24
   11f90:	76070b13          	addi	s6,a4,1888 # 24760 <__clzsi2+0x64>
   11f94:	ee9ff06f          	j	11e7c <_vfprintf_r+0x1a64>
   11f98:	00812703          	lw	a4,8(sp)
   11f9c:	009787b3          	add	a5,a5,s1
   11fa0:	00168693          	addi	a3,a3,1
   11fa4:	00e8a023          	sw	a4,0(a7)
   11fa8:	0098a223          	sw	s1,4(a7)
   11fac:	0ef12623          	sw	a5,236(sp)
   11fb0:	0ed12423          	sw	a3,232(sp)
   11fb4:	00700613          	li	a2,7
   11fb8:	00888893          	addi	a7,a7,8
   11fbc:	f4d65463          	bge	a2,a3,11704 <_vfprintf_r+0x12ec>
   11fc0:	0e410613          	addi	a2,sp,228
   11fc4:	000c0593          	mv	a1,s8
   11fc8:	000d0513          	mv	a0,s10
   11fcc:	638090ef          	jal	ra,1b604 <__sprint_r>
   11fd0:	c8051c63          	bnez	a0,11468 <_vfprintf_r+0x1050>
   11fd4:	0ec12783          	lw	a5,236(sp)
   11fd8:	10c10893          	addi	a7,sp,268
   11fdc:	f28ff06f          	j	11704 <_vfprintf_r+0x12ec>
   11fe0:	02012703          	lw	a4,32(sp)
   11fe4:	02412c83          	lw	s9,36(sp)
   11fe8:	01412e23          	sw	s4,28(sp)
   11fec:	04812023          	sw	s0,64(sp)
   11ff0:	05312223          	sw	s3,68(sp)
   11ff4:	03512223          	sw	s5,36(sp)
   11ff8:	02812983          	lw	s3,40(sp)
   11ffc:	03612423          	sw	s6,40(sp)
   12000:	00eb0bb3          	add	s7,s6,a4
   12004:	03c12403          	lw	s0,60(sp)
   12008:	04812a03          	lw	s4,72(sp)
   1200c:	04c12a83          	lw	s5,76(sp)
   12010:	00700493          	li	s1,7
   12014:	01000913          	li	s2,16
   12018:	000c0b13          	mv	s6,s8
   1201c:	080c8863          	beqz	s9,120ac <_vfprintf_r+0x1c94>
   12020:	08099863          	bnez	s3,120b0 <_vfprintf_r+0x1c98>
   12024:	fff40413          	addi	s0,s0,-1
   12028:	fffc8c93          	addi	s9,s9,-1
   1202c:	0e812703          	lw	a4,232(sp)
   12030:	014787b3          	add	a5,a5,s4
   12034:	0158a023          	sw	s5,0(a7)
   12038:	00170713          	addi	a4,a4,1
   1203c:	0148a223          	sw	s4,4(a7)
   12040:	0ef12623          	sw	a5,236(sp)
   12044:	0ee12423          	sw	a4,232(sp)
   12048:	00888893          	addi	a7,a7,8
   1204c:	0ee4ce63          	blt	s1,a4,12148 <_vfprintf_r+0x1d30>
   12050:	00044683          	lbu	a3,0(s0)
   12054:	41bb8633          	sub	a2,s7,s11
   12058:	00068c13          	mv	s8,a3
   1205c:	00d65463          	bge	a2,a3,12064 <_vfprintf_r+0x1c4c>
   12060:	00060c13          	mv	s8,a2
   12064:	03805663          	blez	s8,12090 <_vfprintf_r+0x1c78>
   12068:	0e812683          	lw	a3,232(sp)
   1206c:	018787b3          	add	a5,a5,s8
   12070:	01b8a023          	sw	s11,0(a7)
   12074:	00168693          	addi	a3,a3,1
   12078:	0188a223          	sw	s8,4(a7)
   1207c:	0ef12623          	sw	a5,236(sp)
   12080:	0ed12423          	sw	a3,232(sp)
   12084:	0ed4c263          	blt	s1,a3,12168 <_vfprintf_r+0x1d50>
   12088:	00044683          	lbu	a3,0(s0)
   1208c:	00888893          	addi	a7,a7,8
   12090:	fffc4613          	not	a2,s8
   12094:	41f65613          	srai	a2,a2,0x1f
   12098:	00cc7733          	and	a4,s8,a2
   1209c:	40e68c33          	sub	s8,a3,a4
   120a0:	01804c63          	bgtz	s8,120b8 <_vfprintf_r+0x1ca0>
   120a4:	00dd8db3          	add	s11,s11,a3
   120a8:	f60c9ce3          	bnez	s9,12020 <_vfprintf_r+0x1c08>
   120ac:	5e098a63          	beqz	s3,126a0 <_vfprintf_r+0x2288>
   120b0:	fff98993          	addi	s3,s3,-1
   120b4:	f79ff06f          	j	1202c <_vfprintf_r+0x1c14>
   120b8:	0e812683          	lw	a3,232(sp)
   120bc:	01894863          	blt	s2,s8,120cc <_vfprintf_r+0x1cb4>
   120c0:	0580006f          	j	12118 <_vfprintf_r+0x1d00>
   120c4:	ff0c0c13          	addi	s8,s8,-16
   120c8:	05895863          	bge	s2,s8,12118 <_vfprintf_r+0x1d00>
   120cc:	00812703          	lw	a4,8(sp)
   120d0:	01078793          	addi	a5,a5,16
   120d4:	00168693          	addi	a3,a3,1
   120d8:	00e8a023          	sw	a4,0(a7)
   120dc:	0128a223          	sw	s2,4(a7)
   120e0:	0ef12623          	sw	a5,236(sp)
   120e4:	0ed12423          	sw	a3,232(sp)
   120e8:	00888893          	addi	a7,a7,8
   120ec:	fcd4dce3          	bge	s1,a3,120c4 <_vfprintf_r+0x1cac>
   120f0:	0e410613          	addi	a2,sp,228
   120f4:	000b0593          	mv	a1,s6
   120f8:	000d0513          	mv	a0,s10
   120fc:	508090ef          	jal	ra,1b604 <__sprint_r>
   12100:	66051463          	bnez	a0,12768 <_vfprintf_r+0x2350>
   12104:	ff0c0c13          	addi	s8,s8,-16
   12108:	0ec12783          	lw	a5,236(sp)
   1210c:	0e812683          	lw	a3,232(sp)
   12110:	10c10893          	addi	a7,sp,268
   12114:	fb894ce3          	blt	s2,s8,120cc <_vfprintf_r+0x1cb4>
   12118:	00812703          	lw	a4,8(sp)
   1211c:	018787b3          	add	a5,a5,s8
   12120:	00168693          	addi	a3,a3,1
   12124:	00e8a023          	sw	a4,0(a7)
   12128:	0188a223          	sw	s8,4(a7)
   1212c:	0ef12623          	sw	a5,236(sp)
   12130:	0ed12423          	sw	a3,232(sp)
   12134:	66d4c063          	blt	s1,a3,12794 <_vfprintf_r+0x237c>
   12138:	00044683          	lbu	a3,0(s0)
   1213c:	00888893          	addi	a7,a7,8
   12140:	00dd8db3          	add	s11,s11,a3
   12144:	f65ff06f          	j	120a8 <_vfprintf_r+0x1c90>
   12148:	0e410613          	addi	a2,sp,228
   1214c:	000b0593          	mv	a1,s6
   12150:	000d0513          	mv	a0,s10
   12154:	4b0090ef          	jal	ra,1b604 <__sprint_r>
   12158:	60051863          	bnez	a0,12768 <_vfprintf_r+0x2350>
   1215c:	0ec12783          	lw	a5,236(sp)
   12160:	10c10893          	addi	a7,sp,268
   12164:	eedff06f          	j	12050 <_vfprintf_r+0x1c38>
   12168:	0e410613          	addi	a2,sp,228
   1216c:	000b0593          	mv	a1,s6
   12170:	000d0513          	mv	a0,s10
   12174:	490090ef          	jal	ra,1b604 <__sprint_r>
   12178:	5e051863          	bnez	a0,12768 <_vfprintf_r+0x2350>
   1217c:	00044683          	lbu	a3,0(s0)
   12180:	0ec12783          	lw	a5,236(sp)
   12184:	10c10893          	addi	a7,sp,268
   12188:	f09ff06f          	j	12090 <_vfprintf_r+0x1c78>
   1218c:	04812783          	lw	a5,72(sp)
   12190:	04c12583          	lw	a1,76(sp)
   12194:	00000913          	li	s2,0
   12198:	40f40433          	sub	s0,s0,a5
   1219c:	00078613          	mv	a2,a5
   121a0:	00040513          	mv	a0,s0
   121a4:	08d060ef          	jal	ra,18a30 <strncpy>
   121a8:	001cc583          	lbu	a1,1(s9)
   121ac:	00a00613          	li	a2,10
   121b0:	00000693          	li	a3,0
   121b4:	00b03833          	snez	a6,a1
   121b8:	00048513          	mv	a0,s1
   121bc:	00098593          	mv	a1,s3
   121c0:	010c8cb3          	add	s9,s9,a6
   121c4:	7100d0ef          	jal	ra,1f8d4 <__udivdi3>
   121c8:	ae5ff06f          	j	11cac <_vfprintf_r+0x1894>
   121cc:	00168693          	addi	a3,a3,1
   121d0:	00870893          	addi	a7,a4,8
   121d4:	00070913          	mv	s2,a4
   121d8:	b98ff06f          	j	11570 <_vfprintf_r+0x1158>
   121dc:	0e410613          	addi	a2,sp,228
   121e0:	000c0593          	mv	a1,s8
   121e4:	000d0513          	mv	a0,s10
   121e8:	41c090ef          	jal	ra,1b604 <__sprint_r>
   121ec:	a6051e63          	bnez	a0,11468 <_vfprintf_r+0x1050>
   121f0:	0cc12583          	lw	a1,204(sp)
   121f4:	0ec12783          	lw	a5,236(sp)
   121f8:	10c10893          	addi	a7,sp,268
   121fc:	b5dff06f          	j	11d58 <_vfprintf_r+0x1940>
   12200:	00024737          	lui	a4,0x24
   12204:	75470b13          	addi	s6,a4,1876 # 24754 <__clzsi2+0x58>
   12208:	c75ff06f          	j	11e7c <_vfprintf_r+0x1a64>
   1220c:	0e410613          	addi	a2,sp,228
   12210:	000c0593          	mv	a1,s8
   12214:	000d0513          	mv	a0,s10
   12218:	3ec090ef          	jal	ra,1b604 <__sprint_r>
   1221c:	a4051663          	bnez	a0,11468 <_vfprintf_r+0x1050>
   12220:	0ec12783          	lw	a5,236(sp)
   12224:	10c10893          	addi	a7,sp,268
   12228:	cc4ff06f          	j	116ec <_vfprintf_r+0x12d4>
   1222c:	00600c93          	li	s9,6
   12230:	945ff06f          	j	11b74 <_vfprintf_r+0x175c>
   12234:	02012683          	lw	a3,32(sp)
   12238:	00db0733          	add	a4,s6,a3
   1223c:	409684b3          	sub	s1,a3,s1
   12240:	41b70833          	sub	a6,a4,s11
   12244:	00048913          	mv	s2,s1
   12248:	d6985063          	bge	a6,s1,117a8 <_vfprintf_r+0x1390>
   1224c:	00080913          	mv	s2,a6
   12250:	d58ff06f          	j	117a8 <_vfprintf_r+0x1390>
   12254:	00c12783          	lw	a5,12(sp)
   12258:	00040b13          	mv	s6,s0
   1225c:	00f71023          	sh	a5,0(a4)
   12260:	d08fe06f          	j	10768 <_vfprintf_r+0x350>
   12264:	01412783          	lw	a5,20(sp)
   12268:	00000c93          	li	s9,0
   1226c:	00e12a23          	sw	a4,20(sp)
   12270:	0007a903          	lw	s2,0(a5)
   12274:	d91fe06f          	j	11004 <_vfprintf_r+0xbec>
   12278:	01412783          	lw	a5,20(sp)
   1227c:	00e12a23          	sw	a4,20(sp)
   12280:	0007a903          	lw	s2,0(a5)
   12284:	41f95c93          	srai	s9,s2,0x1f
   12288:	000c8793          	mv	a5,s9
   1228c:	df5fe06f          	j	11080 <_vfprintf_r+0xc68>
   12290:	01412783          	lw	a5,20(sp)
   12294:	00000c93          	li	s9,0
   12298:	00e12a23          	sw	a4,20(sp)
   1229c:	0007a903          	lw	s2,0(a5)
   122a0:	00100793          	li	a5,1
   122a4:	c25fe06f          	j	10ec8 <_vfprintf_r+0xab0>
   122a8:	01412783          	lw	a5,20(sp)
   122ac:	00000c93          	li	s9,0
   122b0:	00e12a23          	sw	a4,20(sp)
   122b4:	0007a903          	lw	s2,0(a5)
   122b8:	829ff06f          	j	11ae0 <_vfprintf_r+0x16c8>
   122bc:	0e410613          	addi	a2,sp,228
   122c0:	000c0593          	mv	a1,s8
   122c4:	000d0513          	mv	a0,s10
   122c8:	33c090ef          	jal	ra,1b604 <__sprint_r>
   122cc:	cb0fe06f          	j	1077c <_vfprintf_r+0x364>
   122d0:	02d00793          	li	a5,45
   122d4:	0cf103a3          	sb	a5,199(sp)
   122d8:	cadff06f          	j	11f84 <_vfprintf_r+0x1b6c>
   122dc:	03000793          	li	a5,48
   122e0:	0cf10423          	sb	a5,200(sp)
   122e4:	05800793          	li	a5,88
   122e8:	002a6713          	ori	a4,s4,2
   122ec:	0cf104a3          	sb	a5,201(sp)
   122f0:	02e12423          	sw	a4,40(sp)
   122f4:	06300793          	li	a5,99
   122f8:	00012823          	sw	zero,16(sp)
   122fc:	14c10b13          	addi	s6,sp,332
   12300:	03b7c4e3          	blt	a5,s11,12b28 <_vfprintf_r+0x2710>
   12304:	0fc12303          	lw	t1,252(sp)
   12308:	fdf4fb93          	andi	s7,s1,-33
   1230c:	05712223          	sw	s7,68(sp)
   12310:	04012c23          	sw	zero,88(sp)
   12314:	0f012e03          	lw	t3,240(sp)
   12318:	0f412e83          	lw	t4,244(sp)
   1231c:	0f812f03          	lw	t5,248(sp)
   12320:	102a6a13          	ori	s4,s4,258
   12324:	44034e63          	bltz	t1,12780 <_vfprintf_r+0x2368>
   12328:	06100793          	li	a5,97
   1232c:	0af48ee3          	beq	s1,a5,12be8 <_vfprintf_r+0x27d0>
   12330:	04100793          	li	a5,65
   12334:	00f48463          	beq	s1,a5,1233c <_vfprintf_r+0x1f24>
   12338:	e44fe06f          	j	1097c <_vfprintf_r+0x564>
   1233c:	0b010a93          	addi	s5,sp,176
   12340:	000a8513          	mv	a0,s5
   12344:	05112a23          	sw	a7,84(sp)
   12348:	0bc12823          	sw	t3,176(sp)
   1234c:	0bd12a23          	sw	t4,180(sp)
   12350:	0be12c23          	sw	t5,184(sp)
   12354:	0a612e23          	sw	t1,188(sp)
   12358:	781110ef          	jal	ra,242d8 <__trunctfdf2>
   1235c:	0cc10613          	addi	a2,sp,204
   12360:	250060ef          	jal	ra,185b0 <frexp>
   12364:	00058613          	mv	a2,a1
   12368:	00050593          	mv	a1,a0
   1236c:	000a8513          	mv	a0,s5
   12370:	579110ef          	jal	ra,240e8 <__extenddftf2>
   12374:	0b012783          	lw	a5,176(sp)
   12378:	0a010c93          	addi	s9,sp,160
   1237c:	09010913          	addi	s2,sp,144
   12380:	08f12823          	sw	a5,144(sp)
   12384:	0b412783          	lw	a5,180(sp)
   12388:	08010613          	addi	a2,sp,128
   1238c:	00090593          	mv	a1,s2
   12390:	08f12a23          	sw	a5,148(sp)
   12394:	0b812783          	lw	a5,184(sp)
   12398:	000c8513          	mv	a0,s9
   1239c:	04c12023          	sw	a2,64(sp)
   123a0:	08f12c23          	sw	a5,152(sp)
   123a4:	0bc12783          	lw	a5,188(sp)
   123a8:	08012023          	sw	zero,128(sp)
   123ac:	08012223          	sw	zero,132(sp)
   123b0:	08f12e23          	sw	a5,156(sp)
   123b4:	3ffc07b7          	lui	a5,0x3ffc0
   123b8:	08f12623          	sw	a5,140(sp)
   123bc:	08012423          	sw	zero,136(sp)
   123c0:	1880f0ef          	jal	ra,21548 <__multf3>
   123c4:	0a012803          	lw	a6,160(sp)
   123c8:	0a412e03          	lw	t3,164(sp)
   123cc:	0a812e83          	lw	t4,168(sp)
   123d0:	0ac12f03          	lw	t5,172(sp)
   123d4:	000c8593          	mv	a1,s9
   123d8:	000a8513          	mv	a0,s5
   123dc:	0b012823          	sw	a6,176(sp)
   123e0:	05012823          	sw	a6,80(sp)
   123e4:	0bc12a23          	sw	t3,180(sp)
   123e8:	03c12223          	sw	t3,36(sp)
   123ec:	0bd12c23          	sw	t4,184(sp)
   123f0:	03d12023          	sw	t4,32(sp)
   123f4:	0be12e23          	sw	t5,188(sp)
   123f8:	01e12e23          	sw	t5,28(sp)
   123fc:	0a012023          	sw	zero,160(sp)
   12400:	0a012223          	sw	zero,164(sp)
   12404:	0a012423          	sw	zero,168(sp)
   12408:	0a012623          	sw	zero,172(sp)
   1240c:	5e90e0ef          	jal	ra,211f4 <__eqtf2>
   12410:	01c12f03          	lw	t5,28(sp)
   12414:	02012e83          	lw	t4,32(sp)
   12418:	02412e03          	lw	t3,36(sp)
   1241c:	05012803          	lw	a6,80(sp)
   12420:	05412883          	lw	a7,84(sp)
   12424:	00051663          	bnez	a0,12430 <_vfprintf_r+0x2018>
   12428:	00100793          	li	a5,1
   1242c:	0cf12623          	sw	a5,204(sp)
   12430:	000247b7          	lui	a5,0x24
   12434:	77878793          	addi	a5,a5,1912 # 24778 <__clzsi2+0x7c>
   12438:	02f12223          	sw	a5,36(sp)
   1243c:	fffd8693          	addi	a3,s11,-1
   12440:	05412e23          	sw	s4,92(sp)
   12444:	06912223          	sw	s1,100(sp)
   12448:	07b12623          	sw	s11,108(sp)
   1244c:	07a12a23          	sw	s10,116(sp)
   12450:	07812c23          	sw	s8,120(sp)
   12454:	06812023          	sw	s0,96(sp)
   12458:	07312423          	sw	s3,104(sp)
   1245c:	07112823          	sw	a7,112(sp)
   12460:	000b0c13          	mv	s8,s6
   12464:	00068b93          	mv	s7,a3
   12468:	07612e23          	sw	s6,124(sp)
   1246c:	00080d13          	mv	s10,a6
   12470:	000e0d93          	mv	s11,t3
   12474:	000e8493          	mv	s1,t4
   12478:	000f0a13          	mv	s4,t5
   1247c:	0480006f          	j	124c4 <_vfprintf_r+0x20ac>
   12480:	000c8593          	mv	a1,s9
   12484:	000a8513          	mv	a0,s5
   12488:	02c12023          	sw	a2,32(sp)
   1248c:	01f12e23          	sw	t6,28(sp)
   12490:	0bf12c23          	sw	t6,184(sp)
   12494:	0ac12e23          	sw	a2,188(sp)
   12498:	0b612823          	sw	s6,176(sp)
   1249c:	0b312a23          	sw	s3,180(sp)
   124a0:	0a012023          	sw	zero,160(sp)
   124a4:	0a012223          	sw	zero,164(sp)
   124a8:	0a012423          	sw	zero,168(sp)
   124ac:	0a012623          	sw	zero,172(sp)
   124b0:	5450e0ef          	jal	ra,211f4 <__eqtf2>
   124b4:	01c12f83          	lw	t6,28(sp)
   124b8:	02012603          	lw	a2,32(sp)
   124bc:	fffb8b93          	addi	s7,s7,-1
   124c0:	0e050263          	beqz	a0,125a4 <_vfprintf_r+0x218c>
   124c4:	400307b7          	lui	a5,0x40030
   124c8:	00090613          	mv	a2,s2
   124cc:	000c8593          	mv	a1,s9
   124d0:	000a8513          	mv	a0,s5
   124d4:	08f12e23          	sw	a5,156(sp)
   124d8:	0ba12023          	sw	s10,160(sp)
   124dc:	0bb12223          	sw	s11,164(sp)
   124e0:	0a912423          	sw	s1,168(sp)
   124e4:	0b412623          	sw	s4,172(sp)
   124e8:	08012823          	sw	zero,144(sp)
   124ec:	08012a23          	sw	zero,148(sp)
   124f0:	08012c23          	sw	zero,152(sp)
   124f4:	0540f0ef          	jal	ra,21548 <__multf3>
   124f8:	000a8513          	mv	a0,s5
   124fc:	189110ef          	jal	ra,23e84 <__fixtfsi>
   12500:	00050593          	mv	a1,a0
   12504:	00050413          	mv	s0,a0
   12508:	000a8513          	mv	a0,s5
   1250c:	0b012983          	lw	s3,176(sp)
   12510:	0b412483          	lw	s1,180(sp)
   12514:	0b812b03          	lw	s6,184(sp)
   12518:	0bc12a03          	lw	s4,188(sp)
   1251c:	27d110ef          	jal	ra,23f98 <__floatsitf>
   12520:	0b012703          	lw	a4,176(sp)
   12524:	04012603          	lw	a2,64(sp)
   12528:	00090593          	mv	a1,s2
   1252c:	08e12023          	sw	a4,128(sp)
   12530:	0b412703          	lw	a4,180(sp)
   12534:	000c8513          	mv	a0,s9
   12538:	09312823          	sw	s3,144(sp)
   1253c:	08e12223          	sw	a4,132(sp)
   12540:	0b812703          	lw	a4,184(sp)
   12544:	08912a23          	sw	s1,148(sp)
   12548:	09612c23          	sw	s6,152(sp)
   1254c:	08e12423          	sw	a4,136(sp)
   12550:	0bc12703          	lw	a4,188(sp)
   12554:	09412e23          	sw	s4,156(sp)
   12558:	08e12623          	sw	a4,140(sp)
   1255c:	388100ef          	jal	ra,228e4 <__subtf3>
   12560:	02412783          	lw	a5,36(sp)
   12564:	0a012b03          	lw	s6,160(sp)
   12568:	0a412983          	lw	s3,164(sp)
   1256c:	00878733          	add	a4,a5,s0
   12570:	00074703          	lbu	a4,0(a4)
   12574:	0a812f83          	lw	t6,168(sp)
   12578:	0ac12603          	lw	a2,172(sp)
   1257c:	05812a23          	sw	s8,84(sp)
   12580:	00ec0023          	sb	a4,0(s8)
   12584:	05712823          	sw	s7,80(sp)
   12588:	fff00793          	li	a5,-1
   1258c:	001c0c13          	addi	s8,s8,1
   12590:	000b0d13          	mv	s10,s6
   12594:	00098d93          	mv	s11,s3
   12598:	000f8493          	mv	s1,t6
   1259c:	00060a13          	mv	s4,a2
   125a0:	eefb90e3          	bne	s7,a5,12480 <_vfprintf_r+0x2068>
   125a4:	07012883          	lw	a7,112(sp)
   125a8:	000b0393          	mv	t2,s6
   125ac:	00098293          	mv	t0,s3
   125b0:	3ffe0937          	lui	s2,0x3ffe0
   125b4:	000c8593          	mv	a1,s9
   125b8:	000a8513          	mv	a0,s5
   125bc:	03112023          	sw	a7,32(sp)
   125c0:	00812e23          	sw	s0,28(sp)
   125c4:	05c12a03          	lw	s4,92(sp)
   125c8:	06412483          	lw	s1,100(sp)
   125cc:	06012403          	lw	s0,96(sp)
   125d0:	0a712823          	sw	t2,176(sp)
   125d4:	06712223          	sw	t2,100(sp)
   125d8:	0a512a23          	sw	t0,180(sp)
   125dc:	06512023          	sw	t0,96(sp)
   125e0:	0bf12c23          	sw	t6,184(sp)
   125e4:	05f12e23          	sw	t6,92(sp)
   125e8:	0ac12e23          	sw	a2,188(sp)
   125ec:	04c12023          	sw	a2,64(sp)
   125f0:	0a012023          	sw	zero,160(sp)
   125f4:	0a012223          	sw	zero,164(sp)
   125f8:	0a012423          	sw	zero,168(sp)
   125fc:	0b212623          	sw	s2,172(sp)
   12600:	4c10e0ef          	jal	ra,212c0 <__getf2>
   12604:	000c0b93          	mv	s7,s8
   12608:	06c12d83          	lw	s11,108(sp)
   1260c:	07412d03          	lw	s10,116(sp)
   12610:	07812c03          	lw	s8,120(sp)
   12614:	07c12b03          	lw	s6,124(sp)
   12618:	06812983          	lw	s3,104(sp)
   1261c:	02012883          	lw	a7,32(sp)
   12620:	48a04263          	bgtz	a0,12aa4 <_vfprintf_r+0x268c>
   12624:	06412383          	lw	t2,100(sp)
   12628:	06012283          	lw	t0,96(sp)
   1262c:	05c12f83          	lw	t6,92(sp)
   12630:	04012603          	lw	a2,64(sp)
   12634:	000c8593          	mv	a1,s9
   12638:	000a8513          	mv	a0,s5
   1263c:	0a712823          	sw	t2,176(sp)
   12640:	0a512a23          	sw	t0,180(sp)
   12644:	0bf12c23          	sw	t6,184(sp)
   12648:	0ac12e23          	sw	a2,188(sp)
   1264c:	0a012023          	sw	zero,160(sp)
   12650:	0a012223          	sw	zero,164(sp)
   12654:	0a012423          	sw	zero,168(sp)
   12658:	0b212623          	sw	s2,172(sp)
   1265c:	3990e0ef          	jal	ra,211f4 <__eqtf2>
   12660:	02012883          	lw	a7,32(sp)
   12664:	00051863          	bnez	a0,12674 <_vfprintf_r+0x225c>
   12668:	01c12783          	lw	a5,28(sp)
   1266c:	0017fc93          	andi	s9,a5,1
   12670:	420c9a63          	bnez	s9,12aa4 <_vfprintf_r+0x268c>
   12674:	05012783          	lw	a5,80(sp)
   12678:	03000613          	li	a2,48
   1267c:	00178693          	addi	a3,a5,1 # 40030001 <__BSS_END__+0x400090d5>
   12680:	00db86b3          	add	a3,s7,a3
   12684:	0007c863          	bltz	a5,12694 <_vfprintf_r+0x227c>
   12688:	001b8b93          	addi	s7,s7,1
   1268c:	fecb8fa3          	sb	a2,-1(s7)
   12690:	ff769ce3          	bne	a3,s7,12688 <_vfprintf_r+0x2270>
   12694:	416b87b3          	sub	a5,s7,s6
   12698:	02f12023          	sw	a5,32(sp)
   1269c:	bc8fe06f          	j	10a64 <_vfprintf_r+0x64c>
   126a0:	02012703          	lw	a4,32(sp)
   126a4:	000b0c13          	mv	s8,s6
   126a8:	02812b03          	lw	s6,40(sp)
   126ac:	02812e23          	sw	s0,60(sp)
   126b0:	01c12a03          	lw	s4,28(sp)
   126b4:	00eb06b3          	add	a3,s6,a4
   126b8:	04012403          	lw	s0,64(sp)
   126bc:	04412983          	lw	s3,68(sp)
   126c0:	02412a83          	lw	s5,36(sp)
   126c4:	01b6e463          	bltu	a3,s11,126cc <_vfprintf_r+0x22b4>
   126c8:	84cff06f          	j	11714 <_vfprintf_r+0x12fc>
   126cc:	00068d93          	mv	s11,a3
   126d0:	844ff06f          	j	11714 <_vfprintf_r+0x12fc>
   126d4:	01c12703          	lw	a4,28(sp)
   126d8:	ffd00793          	li	a5,-3
   126dc:	00f74463          	blt	a4,a5,126e4 <_vfprintf_r+0x22cc>
   126e0:	00edda63          	bge	s11,a4,126f4 <_vfprintf_r+0x22dc>
   126e4:	ffe48493          	addi	s1,s1,-2
   126e8:	fdf4f793          	andi	a5,s1,-33
   126ec:	04f12223          	sw	a5,68(sp)
   126f0:	b9cfe06f          	j	10a8c <_vfprintf_r+0x674>
   126f4:	02012783          	lw	a5,32(sp)
   126f8:	01c12703          	lw	a4,28(sp)
   126fc:	2af74063          	blt	a4,a5,1299c <_vfprintf_r+0x2584>
   12700:	02812783          	lw	a5,40(sp)
   12704:	00070c93          	mv	s9,a4
   12708:	0017f793          	andi	a5,a5,1
   1270c:	00078663          	beqz	a5,12718 <_vfprintf_r+0x2300>
   12710:	02c12783          	lw	a5,44(sp)
   12714:	00f70cb3          	add	s9,a4,a5
   12718:	02812783          	lw	a5,40(sp)
   1271c:	4007f793          	andi	a5,a5,1024
   12720:	00078663          	beqz	a5,1272c <_vfprintf_r+0x2314>
   12724:	01c12783          	lw	a5,28(sp)
   12728:	5cf04263          	bgtz	a5,12cec <_vfprintf_r+0x28d4>
   1272c:	fffcca93          	not	s5,s9
   12730:	41fada93          	srai	s5,s5,0x1f
   12734:	015cfab3          	and	s5,s9,s5
   12738:	06700493          	li	s1,103
   1273c:	02012423          	sw	zero,40(sp)
   12740:	02012223          	sw	zero,36(sp)
   12744:	c84fe06f          	j	10bc8 <_vfprintf_r+0x7b0>
   12748:	0c714783          	lbu	a5,199(sp)
   1274c:	00000d93          	li	s11,0
   12750:	00078463          	beqz	a5,12758 <_vfprintf_r+0x2340>
   12754:	ec0fe06f          	j	10e14 <_vfprintf_r+0x9fc>
   12758:	ef9fd06f          	j	10650 <_vfprintf_r+0x238>
   1275c:	00900793          	li	a5,9
   12760:	d497e663          	bltu	a5,s1,11cac <_vfprintf_r+0x1894>
   12764:	d90ff06f          	j	11cf4 <_vfprintf_r+0x18dc>
   12768:	01012b83          	lw	s7,16(sp)
   1276c:	000b0c13          	mv	s8,s6
   12770:	cfdfe06f          	j	1146c <_vfprintf_r+0x1054>
   12774:	03412423          	sw	s4,40(sp)
   12778:	00012823          	sw	zero,16(sp)
   1277c:	00090a13          	mv	s4,s2
   12780:	800007b7          	lui	a5,0x80000
   12784:	0067c333          	xor	t1,a5,t1
   12788:	02d00793          	li	a5,45
   1278c:	04f12c23          	sw	a5,88(sp)
   12790:	b99ff06f          	j	12328 <_vfprintf_r+0x1f10>
   12794:	0e410613          	addi	a2,sp,228
   12798:	000b0593          	mv	a1,s6
   1279c:	000d0513          	mv	a0,s10
   127a0:	665080ef          	jal	ra,1b604 <__sprint_r>
   127a4:	fc0512e3          	bnez	a0,12768 <_vfprintf_r+0x2350>
   127a8:	00044683          	lbu	a3,0(s0)
   127ac:	0ec12783          	lw	a5,236(sp)
   127b0:	10c10893          	addi	a7,sp,268
   127b4:	00dd8db3          	add	s11,s11,a3
   127b8:	8f1ff06f          	j	120a8 <_vfprintf_r+0x1c90>
   127bc:	0b010a93          	addi	s5,sp,176
   127c0:	0d010793          	addi	a5,sp,208
   127c4:	0dc10813          	addi	a6,sp,220
   127c8:	0cc10713          	addi	a4,sp,204
   127cc:	000d8693          	mv	a3,s11
   127d0:	00200613          	li	a2,2
   127d4:	000a8593          	mv	a1,s5
   127d8:	000d0513          	mv	a0,s10
   127dc:	0bc12823          	sw	t3,176(sp)
   127e0:	05c12023          	sw	t3,64(sp)
   127e4:	0bd12a23          	sw	t4,180(sp)
   127e8:	03d12223          	sw	t4,36(sp)
   127ec:	0be12c23          	sw	t5,184(sp)
   127f0:	03e12023          	sw	t5,32(sp)
   127f4:	0a612e23          	sw	t1,188(sp)
   127f8:	00612e23          	sw	t1,28(sp)
   127fc:	725020ef          	jal	ra,15720 <_ldtoa_r>
   12800:	04700793          	li	a5,71
   12804:	01c12303          	lw	t1,28(sp)
   12808:	02012f03          	lw	t5,32(sp)
   1280c:	02412e83          	lw	t4,36(sp)
   12810:	04012e03          	lw	t3,64(sp)
   12814:	05012883          	lw	a7,80(sp)
   12818:	00050b13          	mv	s6,a0
   1281c:	08fb9063          	bne	s7,a5,1289c <_vfprintf_r+0x2484>
   12820:	02812783          	lw	a5,40(sp)
   12824:	0017f793          	andi	a5,a5,1
   12828:	2e079663          	bnez	a5,12b14 <_vfprintf_r+0x26fc>
   1282c:	04700793          	li	a5,71
   12830:	0dc12703          	lw	a4,220(sp)
   12834:	04f12223          	sw	a5,68(sp)
   12838:	a24fe06f          	j	10a5c <_vfprintf_r+0x644>
   1283c:	0b010a93          	addi	s5,sp,176
   12840:	0dc10813          	addi	a6,sp,220
   12844:	0d010793          	addi	a5,sp,208
   12848:	0cc10713          	addi	a4,sp,204
   1284c:	000d8693          	mv	a3,s11
   12850:	00300613          	li	a2,3
   12854:	000a8593          	mv	a1,s5
   12858:	000d0513          	mv	a0,s10
   1285c:	05112823          	sw	a7,80(sp)
   12860:	0bc12823          	sw	t3,176(sp)
   12864:	05c12023          	sw	t3,64(sp)
   12868:	0bd12a23          	sw	t4,180(sp)
   1286c:	03d12223          	sw	t4,36(sp)
   12870:	0be12c23          	sw	t5,184(sp)
   12874:	03e12023          	sw	t5,32(sp)
   12878:	0a612e23          	sw	t1,188(sp)
   1287c:	00612e23          	sw	t1,28(sp)
   12880:	6a1020ef          	jal	ra,15720 <_ldtoa_r>
   12884:	01c12303          	lw	t1,28(sp)
   12888:	02012f03          	lw	t5,32(sp)
   1288c:	02412e83          	lw	t4,36(sp)
   12890:	04012e03          	lw	t3,64(sp)
   12894:	05012883          	lw	a7,80(sp)
   12898:	00050b13          	mv	s6,a0
   1289c:	04600793          	li	a5,70
   128a0:	01bb0933          	add	s2,s6,s11
   128a4:	26fb9e63          	bne	s7,a5,12b20 <_vfprintf_r+0x2708>
   128a8:	000b4683          	lbu	a3,0(s6)
   128ac:	03000793          	li	a5,48
   128b0:	50f68a63          	beq	a3,a5,12dc4 <_vfprintf_r+0x29ac>
   128b4:	0a010c93          	addi	s9,sp,160
   128b8:	0cc12783          	lw	a5,204(sp)
   128bc:	00f90933          	add	s2,s2,a5
   128c0:	940fe06f          	j	10a00 <_vfprintf_r+0x5e8>
   128c4:	02d00793          	li	a5,45
   128c8:	0cf103a3          	sb	a5,199(sp)
   128cc:	da0ff06f          	j	11e6c <_vfprintf_r+0x1a54>
   128d0:	0e410613          	addi	a2,sp,228
   128d4:	000c0593          	mv	a1,s8
   128d8:	000d0513          	mv	a0,s10
   128dc:	529080ef          	jal	ra,1b604 <__sprint_r>
   128e0:	00050463          	beqz	a0,128e8 <_vfprintf_r+0x24d0>
   128e4:	b85fe06f          	j	11468 <_vfprintf_r+0x1050>
   128e8:	0cc12483          	lw	s1,204(sp)
   128ec:	0ec12783          	lw	a5,236(sp)
   128f0:	10c10893          	addi	a7,sp,268
   128f4:	e69fe06f          	j	1175c <_vfprintf_r+0x1344>
   128f8:	0c714783          	lbu	a5,199(sp)
   128fc:	01212a23          	sw	s2,20(sp)
   12900:	02012423          	sw	zero,40(sp)
   12904:	02012223          	sw	zero,36(sp)
   12908:	00012e23          	sw	zero,28(sp)
   1290c:	000d8a93          	mv	s5,s11
   12910:	000d8c93          	mv	s9,s11
   12914:	00000d93          	li	s11,0
   12918:	00078463          	beqz	a5,12920 <_vfprintf_r+0x2508>
   1291c:	cf8fe06f          	j	10e14 <_vfprintf_r+0x9fc>
   12920:	d31fd06f          	j	10650 <_vfprintf_r+0x238>
   12924:	02812783          	lw	a5,40(sp)
   12928:	01c12703          	lw	a4,28(sp)
   1292c:	0017f793          	andi	a5,a5,1
   12930:	01b7e7b3          	or	a5,a5,s11
   12934:	50e05a63          	blez	a4,12e48 <_vfprintf_r+0x2a30>
   12938:	44079463          	bnez	a5,12d80 <_vfprintf_r+0x2968>
   1293c:	01c12c83          	lw	s9,28(sp)
   12940:	06600493          	li	s1,102
   12944:	02812783          	lw	a5,40(sp)
   12948:	4007f793          	andi	a5,a5,1024
   1294c:	3a079263          	bnez	a5,12cf0 <_vfprintf_r+0x28d8>
   12950:	fffcca93          	not	s5,s9
   12954:	41fada93          	srai	s5,s5,0x1f
   12958:	015cfab3          	and	s5,s9,s5
   1295c:	de1ff06f          	j	1273c <_vfprintf_r+0x2324>
   12960:	00024737          	lui	a4,0x24
   12964:	75c70b13          	addi	s6,a4,1884 # 2475c <__clzsi2+0x60>
   12968:	d14ff06f          	j	11e7c <_vfprintf_r+0x1a64>
   1296c:	0e410613          	addi	a2,sp,228
   12970:	000c0593          	mv	a1,s8
   12974:	000d0513          	mv	a0,s10
   12978:	48d080ef          	jal	ra,1b604 <__sprint_r>
   1297c:	00050463          	beqz	a0,12984 <_vfprintf_r+0x256c>
   12980:	ae9fe06f          	j	11468 <_vfprintf_r+0x1050>
   12984:	0cc12483          	lw	s1,204(sp)
   12988:	02012703          	lw	a4,32(sp)
   1298c:	0ec12783          	lw	a5,236(sp)
   12990:	10c10893          	addi	a7,sp,268
   12994:	409704b3          	sub	s1,a4,s1
   12998:	e11fe06f          	j	117a8 <_vfprintf_r+0x1390>
   1299c:	02012783          	lw	a5,32(sp)
   129a0:	02c12703          	lw	a4,44(sp)
   129a4:	06700493          	li	s1,103
   129a8:	00e78cb3          	add	s9,a5,a4
   129ac:	01c12783          	lw	a5,28(sp)
   129b0:	f8f04ae3          	bgtz	a5,12944 <_vfprintf_r+0x252c>
   129b4:	40fc8cb3          	sub	s9,s9,a5
   129b8:	001c8c93          	addi	s9,s9,1
   129bc:	fffcca93          	not	s5,s9
   129c0:	41fada93          	srai	s5,s5,0x1f
   129c4:	015cfab3          	and	s5,s9,s5
   129c8:	d75ff06f          	j	1273c <_vfprintf_r+0x2324>
   129cc:	000256b7          	lui	a3,0x25
   129d0:	90468e93          	addi	t4,a3,-1788 # 24904 <blanks.4483>
   129d4:	b50fe06f          	j	10d24 <_vfprintf_r+0x90c>
   129d8:	fff00793          	li	a5,-1
   129dc:	00f12623          	sw	a5,12(sp)
   129e0:	dadfd06f          	j	1078c <_vfprintf_r+0x374>
   129e4:	ff000613          	li	a2,-16
   129e8:	40b004b3          	neg	s1,a1
   129ec:	06c5d263          	bge	a1,a2,12a50 <_vfprintf_r+0x2638>
   129f0:	01000913          	li	s2,16
   129f4:	00700c93          	li	s9,7
   129f8:	00c0006f          	j	12a04 <_vfprintf_r+0x25ec>
   129fc:	ff048493          	addi	s1,s1,-16
   12a00:	04995863          	bge	s2,s1,12a50 <_vfprintf_r+0x2638>
   12a04:	00812703          	lw	a4,8(sp)
   12a08:	01078793          	addi	a5,a5,16 # 80000010 <__BSS_END__+0x7ffd90e4>
   12a0c:	00168693          	addi	a3,a3,1
   12a10:	00e8a023          	sw	a4,0(a7)
   12a14:	0128a223          	sw	s2,4(a7)
   12a18:	0ef12623          	sw	a5,236(sp)
   12a1c:	0ed12423          	sw	a3,232(sp)
   12a20:	00888893          	addi	a7,a7,8
   12a24:	fcdcdce3          	bge	s9,a3,129fc <_vfprintf_r+0x25e4>
   12a28:	0e410613          	addi	a2,sp,228
   12a2c:	000c0593          	mv	a1,s8
   12a30:	000d0513          	mv	a0,s10
   12a34:	3d1080ef          	jal	ra,1b604 <__sprint_r>
   12a38:	00050463          	beqz	a0,12a40 <_vfprintf_r+0x2628>
   12a3c:	a2dfe06f          	j	11468 <_vfprintf_r+0x1050>
   12a40:	0ec12783          	lw	a5,236(sp)
   12a44:	0e812683          	lw	a3,232(sp)
   12a48:	10c10893          	addi	a7,sp,268
   12a4c:	fb1ff06f          	j	129fc <_vfprintf_r+0x25e4>
   12a50:	00812703          	lw	a4,8(sp)
   12a54:	009787b3          	add	a5,a5,s1
   12a58:	00168693          	addi	a3,a3,1
   12a5c:	00e8a023          	sw	a4,0(a7)
   12a60:	0098a223          	sw	s1,4(a7)
   12a64:	0ef12623          	sw	a5,236(sp)
   12a68:	0ed12423          	sw	a3,232(sp)
   12a6c:	00700613          	li	a2,7
   12a70:	b2d65a63          	bge	a2,a3,11da4 <_vfprintf_r+0x198c>
   12a74:	0e410613          	addi	a2,sp,228
   12a78:	000c0593          	mv	a1,s8
   12a7c:	000d0513          	mv	a0,s10
   12a80:	385080ef          	jal	ra,1b604 <__sprint_r>
   12a84:	00050463          	beqz	a0,12a8c <_vfprintf_r+0x2674>
   12a88:	9e1fe06f          	j	11468 <_vfprintf_r+0x1050>
   12a8c:	0ec12783          	lw	a5,236(sp)
   12a90:	0e812683          	lw	a3,232(sp)
   12a94:	10c10893          	addi	a7,sp,268
   12a98:	9ccfe06f          	j	10c64 <_vfprintf_r+0x84c>
   12a9c:	000a0b93          	mv	s7,s4
   12aa0:	e20fe06f          	j	110c0 <_vfprintf_r+0xca8>
   12aa4:	05412783          	lw	a5,84(sp)
   12aa8:	000b8693          	mv	a3,s7
   12aac:	0cf12e23          	sw	a5,220(sp)
   12ab0:	02412783          	lw	a5,36(sp)
   12ab4:	fffbc603          	lbu	a2,-1(s7)
   12ab8:	00f7c583          	lbu	a1,15(a5)
   12abc:	02b61063          	bne	a2,a1,12adc <_vfprintf_r+0x26c4>
   12ac0:	03000513          	li	a0,48
   12ac4:	fea68fa3          	sb	a0,-1(a3)
   12ac8:	0dc12683          	lw	a3,220(sp)
   12acc:	fff68793          	addi	a5,a3,-1
   12ad0:	0cf12e23          	sw	a5,220(sp)
   12ad4:	fff6c603          	lbu	a2,-1(a3)
   12ad8:	fec586e3          	beq	a1,a2,12ac4 <_vfprintf_r+0x26ac>
   12adc:	00160593          	addi	a1,a2,1
   12ae0:	03900513          	li	a0,57
   12ae4:	0ff5f593          	andi	a1,a1,255
   12ae8:	00a60663          	beq	a2,a0,12af4 <_vfprintf_r+0x26dc>
   12aec:	feb68fa3          	sb	a1,-1(a3)
   12af0:	ba5ff06f          	j	12694 <_vfprintf_r+0x227c>
   12af4:	02412783          	lw	a5,36(sp)
   12af8:	00a7c583          	lbu	a1,10(a5)
   12afc:	feb68fa3          	sb	a1,-1(a3)
   12b00:	b95ff06f          	j	12694 <_vfprintf_r+0x227c>
   12b04:	03000793          	li	a5,48
   12b08:	0cf10423          	sb	a5,200(sp)
   12b0c:	07800793          	li	a5,120
   12b10:	fd8ff06f          	j	122e8 <_vfprintf_r+0x1ed0>
   12b14:	04700793          	li	a5,71
   12b18:	01bb0933          	add	s2,s6,s11
   12b1c:	04f12223          	sw	a5,68(sp)
   12b20:	0a010c93          	addi	s9,sp,160
   12b24:	eddfd06f          	j	10a00 <_vfprintf_r+0x5e8>
   12b28:	001d8593          	addi	a1,s11,1
   12b2c:	000d0513          	mv	a0,s10
   12b30:	01112823          	sw	a7,16(sp)
   12b34:	0f0040ef          	jal	ra,16c24 <_malloc_r>
   12b38:	01012883          	lw	a7,16(sp)
   12b3c:	00050b13          	mv	s6,a0
   12b40:	36050463          	beqz	a0,12ea8 <_vfprintf_r+0x2a90>
   12b44:	00a12823          	sw	a0,16(sp)
   12b48:	fbcff06f          	j	12304 <_vfprintf_r+0x1eec>
   12b4c:	000d9463          	bnez	s11,12b54 <_vfprintf_r+0x273c>
   12b50:	00100d93          	li	s11,1
   12b54:	0fc12303          	lw	t1,252(sp)
   12b58:	0f012e03          	lw	t3,240(sp)
   12b5c:	0f412e83          	lw	t4,244(sp)
   12b60:	0f812f03          	lw	t5,248(sp)
   12b64:	100a6913          	ori	s2,s4,256
   12b68:	c00346e3          	bltz	t1,12774 <_vfprintf_r+0x235c>
   12b6c:	0b010a93          	addi	s5,sp,176
   12b70:	0dc10813          	addi	a6,sp,220
   12b74:	0d010793          	addi	a5,sp,208
   12b78:	0cc10713          	addi	a4,sp,204
   12b7c:	000d8693          	mv	a3,s11
   12b80:	00200613          	li	a2,2
   12b84:	000a8593          	mv	a1,s5
   12b88:	000d0513          	mv	a0,s10
   12b8c:	05112223          	sw	a7,68(sp)
   12b90:	0bc12823          	sw	t3,176(sp)
   12b94:	05c12023          	sw	t3,64(sp)
   12b98:	0bd12a23          	sw	t4,180(sp)
   12b9c:	03d12223          	sw	t4,36(sp)
   12ba0:	0be12c23          	sw	t5,184(sp)
   12ba4:	03e12023          	sw	t5,32(sp)
   12ba8:	0a612e23          	sw	t1,188(sp)
   12bac:	00612e23          	sw	t1,28(sp)
   12bb0:	371020ef          	jal	ra,15720 <_ldtoa_r>
   12bb4:	01c12303          	lw	t1,28(sp)
   12bb8:	03412423          	sw	s4,40(sp)
   12bbc:	02012f03          	lw	t5,32(sp)
   12bc0:	02412e83          	lw	t4,36(sp)
   12bc4:	04012e03          	lw	t3,64(sp)
   12bc8:	04412883          	lw	a7,68(sp)
   12bcc:	00050b13          	mv	s6,a0
   12bd0:	00090a13          	mv	s4,s2
   12bd4:	04012c23          	sw	zero,88(sp)
   12bd8:	00012823          	sw	zero,16(sp)
   12bdc:	c45ff06f          	j	12820 <_vfprintf_r+0x2408>
   12be0:	00600d93          	li	s11,6
   12be4:	d6dfd06f          	j	10950 <_vfprintf_r+0x538>
   12be8:	0b010a93          	addi	s5,sp,176
   12bec:	000a8513          	mv	a0,s5
   12bf0:	05112a23          	sw	a7,84(sp)
   12bf4:	0bc12823          	sw	t3,176(sp)
   12bf8:	0bd12a23          	sw	t4,180(sp)
   12bfc:	0be12c23          	sw	t5,184(sp)
   12c00:	0a612e23          	sw	t1,188(sp)
   12c04:	6d4110ef          	jal	ra,242d8 <__trunctfdf2>
   12c08:	0cc10613          	addi	a2,sp,204
   12c0c:	1a5050ef          	jal	ra,185b0 <frexp>
   12c10:	00058613          	mv	a2,a1
   12c14:	00050593          	mv	a1,a0
   12c18:	000a8513          	mv	a0,s5
   12c1c:	4cc110ef          	jal	ra,240e8 <__extenddftf2>
   12c20:	0b012783          	lw	a5,176(sp)
   12c24:	0a010c93          	addi	s9,sp,160
   12c28:	09010913          	addi	s2,sp,144
   12c2c:	08f12823          	sw	a5,144(sp)
   12c30:	0b412783          	lw	a5,180(sp)
   12c34:	08010613          	addi	a2,sp,128
   12c38:	00090593          	mv	a1,s2
   12c3c:	08f12a23          	sw	a5,148(sp)
   12c40:	0b812783          	lw	a5,184(sp)
   12c44:	000c8513          	mv	a0,s9
   12c48:	04c12023          	sw	a2,64(sp)
   12c4c:	08f12c23          	sw	a5,152(sp)
   12c50:	0bc12783          	lw	a5,188(sp)
   12c54:	08012023          	sw	zero,128(sp)
   12c58:	08012223          	sw	zero,132(sp)
   12c5c:	08f12e23          	sw	a5,156(sp)
   12c60:	3ffc07b7          	lui	a5,0x3ffc0
   12c64:	08f12623          	sw	a5,140(sp)
   12c68:	08012423          	sw	zero,136(sp)
   12c6c:	0dd0e0ef          	jal	ra,21548 <__multf3>
   12c70:	0a012803          	lw	a6,160(sp)
   12c74:	0a412e03          	lw	t3,164(sp)
   12c78:	0a812e83          	lw	t4,168(sp)
   12c7c:	0ac12f03          	lw	t5,172(sp)
   12c80:	000c8593          	mv	a1,s9
   12c84:	000a8513          	mv	a0,s5
   12c88:	0b012823          	sw	a6,176(sp)
   12c8c:	05012823          	sw	a6,80(sp)
   12c90:	0bc12a23          	sw	t3,180(sp)
   12c94:	03c12223          	sw	t3,36(sp)
   12c98:	0bd12c23          	sw	t4,184(sp)
   12c9c:	03d12023          	sw	t4,32(sp)
   12ca0:	0be12e23          	sw	t5,188(sp)
   12ca4:	01e12e23          	sw	t5,28(sp)
   12ca8:	0a012023          	sw	zero,160(sp)
   12cac:	0a012223          	sw	zero,164(sp)
   12cb0:	0a012423          	sw	zero,168(sp)
   12cb4:	0a012623          	sw	zero,172(sp)
   12cb8:	53c0e0ef          	jal	ra,211f4 <__eqtf2>
   12cbc:	01c12f03          	lw	t5,28(sp)
   12cc0:	02012e83          	lw	t4,32(sp)
   12cc4:	02412e03          	lw	t3,36(sp)
   12cc8:	05012803          	lw	a6,80(sp)
   12ccc:	05412883          	lw	a7,84(sp)
   12cd0:	00051663          	bnez	a0,12cdc <_vfprintf_r+0x28c4>
   12cd4:	00100793          	li	a5,1
   12cd8:	0cf12623          	sw	a5,204(sp)
   12cdc:	000247b7          	lui	a5,0x24
   12ce0:	76478793          	addi	a5,a5,1892 # 24764 <__clzsi2+0x68>
   12ce4:	02f12223          	sw	a5,36(sp)
   12ce8:	f54ff06f          	j	1243c <_vfprintf_r+0x2024>
   12cec:	06700493          	li	s1,103
   12cf0:	03c12603          	lw	a2,60(sp)
   12cf4:	0ff00693          	li	a3,255
   12cf8:	00064783          	lbu	a5,0(a2)
   12cfc:	1ad78e63          	beq	a5,a3,12eb8 <_vfprintf_r+0x2aa0>
   12d00:	01c12703          	lw	a4,28(sp)
   12d04:	00000513          	li	a0,0
   12d08:	00000593          	li	a1,0
   12d0c:	00e7de63          	bge	a5,a4,12d28 <_vfprintf_r+0x2910>
   12d10:	40f70733          	sub	a4,a4,a5
   12d14:	00164783          	lbu	a5,1(a2)
   12d18:	04078863          	beqz	a5,12d68 <_vfprintf_r+0x2950>
   12d1c:	00158593          	addi	a1,a1,1
   12d20:	00160613          	addi	a2,a2,1
   12d24:	fed794e3          	bne	a5,a3,12d0c <_vfprintf_r+0x28f4>
   12d28:	02c12e23          	sw	a2,60(sp)
   12d2c:	00e12e23          	sw	a4,28(sp)
   12d30:	02b12223          	sw	a1,36(sp)
   12d34:	02a12423          	sw	a0,40(sp)
   12d38:	02412783          	lw	a5,36(sp)
   12d3c:	02812703          	lw	a4,40(sp)
   12d40:	04812583          	lw	a1,72(sp)
   12d44:	05112023          	sw	a7,64(sp)
   12d48:	00e78533          	add	a0,a5,a4
   12d4c:	0d9110ef          	jal	ra,24624 <__mulsi3>
   12d50:	01950cb3          	add	s9,a0,s9
   12d54:	fffcca93          	not	s5,s9
   12d58:	41fada93          	srai	s5,s5,0x1f
   12d5c:	04012883          	lw	a7,64(sp)
   12d60:	015cfab3          	and	s5,s9,s5
   12d64:	e65fd06f          	j	10bc8 <_vfprintf_r+0x7b0>
   12d68:	00064783          	lbu	a5,0(a2)
   12d6c:	00150513          	addi	a0,a0,1
   12d70:	fb5ff06f          	j	12d24 <_vfprintf_r+0x290c>
   12d74:	00012823          	sw	zero,16(sp)
   12d78:	00078a13          	mv	s4,a5
   12d7c:	a05ff06f          	j	12780 <_vfprintf_r+0x2368>
   12d80:	02c12783          	lw	a5,44(sp)
   12d84:	06600493          	li	s1,102
   12d88:	00f70cb3          	add	s9,a4,a5
   12d8c:	01bc8cb3          	add	s9,s9,s11
   12d90:	bb5ff06f          	j	12944 <_vfprintf_r+0x252c>
   12d94:	0d610793          	addi	a5,sp,214
   12d98:	00069863          	bnez	a3,12da8 <_vfprintf_r+0x2990>
   12d9c:	03000793          	li	a5,48
   12da0:	0cf10b23          	sb	a5,214(sp)
   12da4:	0d710793          	addi	a5,sp,215
   12da8:	1b010713          	addi	a4,sp,432
   12dac:	030a8a93          	addi	s5,s5,48
   12db0:	40e786b3          	sub	a3,a5,a4
   12db4:	01578023          	sb	s5,0(a5)
   12db8:	0dd68793          	addi	a5,a3,221
   12dbc:	02f12c23          	sw	a5,56(sp)
   12dc0:	dc5fd06f          	j	10b84 <_vfprintf_r+0x76c>
   12dc4:	0a010c93          	addi	s9,sp,160
   12dc8:	000c8593          	mv	a1,s9
   12dcc:	000a8513          	mv	a0,s5
   12dd0:	05112823          	sw	a7,80(sp)
   12dd4:	0bc12823          	sw	t3,176(sp)
   12dd8:	05c12023          	sw	t3,64(sp)
   12ddc:	0bd12a23          	sw	t4,180(sp)
   12de0:	03d12223          	sw	t4,36(sp)
   12de4:	0be12c23          	sw	t5,184(sp)
   12de8:	03e12023          	sw	t5,32(sp)
   12dec:	0a612e23          	sw	t1,188(sp)
   12df0:	00612e23          	sw	t1,28(sp)
   12df4:	0a012023          	sw	zero,160(sp)
   12df8:	0a012223          	sw	zero,164(sp)
   12dfc:	0a012423          	sw	zero,168(sp)
   12e00:	0a012623          	sw	zero,172(sp)
   12e04:	3f00e0ef          	jal	ra,211f4 <__eqtf2>
   12e08:	01c12303          	lw	t1,28(sp)
   12e0c:	02012f03          	lw	t5,32(sp)
   12e10:	02412e83          	lw	t4,36(sp)
   12e14:	04012e03          	lw	t3,64(sp)
   12e18:	05012883          	lw	a7,80(sp)
   12e1c:	a8050ee3          	beqz	a0,128b8 <_vfprintf_r+0x24a0>
   12e20:	00100793          	li	a5,1
   12e24:	41b787b3          	sub	a5,a5,s11
   12e28:	0cf12623          	sw	a5,204(sp)
   12e2c:	00f90933          	add	s2,s2,a5
   12e30:	bd1fd06f          	j	10a00 <_vfprintf_r+0x5e8>
   12e34:	02812783          	lw	a5,40(sp)
   12e38:	0017f793          	andi	a5,a5,1
   12e3c:	00079463          	bnez	a5,12e44 <_vfprintf_r+0x2a2c>
   12e40:	d65fd06f          	j	10ba4 <_vfprintf_r+0x78c>
   12e44:	d59fd06f          	j	10b9c <_vfprintf_r+0x784>
   12e48:	00079a63          	bnez	a5,12e5c <_vfprintf_r+0x2a44>
   12e4c:	00100a93          	li	s5,1
   12e50:	06600493          	li	s1,102
   12e54:	00100c93          	li	s9,1
   12e58:	8e5ff06f          	j	1273c <_vfprintf_r+0x2324>
   12e5c:	02c12783          	lw	a5,44(sp)
   12e60:	06600493          	li	s1,102
   12e64:	00178c93          	addi	s9,a5,1
   12e68:	01bc8cb3          	add	s9,s9,s11
   12e6c:	fffcca93          	not	s5,s9
   12e70:	41fada93          	srai	s5,s5,0x1f
   12e74:	015cfab3          	and	s5,s9,s5
   12e78:	8c5ff06f          	j	1273c <_vfprintf_r+0x2324>
   12e7c:	00088713          	mv	a4,a7
   12e80:	bd5fe06f          	j	11a54 <_vfprintf_r+0x163c>
   12e84:	01412783          	lw	a5,20(sp)
   12e88:	0007ad83          	lw	s11,0(a5)
   12e8c:	00478793          	addi	a5,a5,4
   12e90:	000dd463          	bgez	s11,12e98 <_vfprintf_r+0x2a80>
   12e94:	fff00d93          	li	s11,-1
   12e98:	00144483          	lbu	s1,1(s0)
   12e9c:	00f12a23          	sw	a5,20(sp)
   12ea0:	00070413          	mv	s0,a4
   12ea4:	f2cfd06f          	j	105d0 <_vfprintf_r+0x1b8>
   12ea8:	00cc5783          	lhu	a5,12(s8)
   12eac:	0407e793          	ori	a5,a5,64
   12eb0:	00fc1623          	sh	a5,12(s8)
   12eb4:	8c9fd06f          	j	1077c <_vfprintf_r+0x364>
   12eb8:	02012423          	sw	zero,40(sp)
   12ebc:	02012223          	sw	zero,36(sp)
   12ec0:	e79ff06f          	j	12d38 <_vfprintf_r+0x2920>
   12ec4:	00200793          	li	a5,2
   12ec8:	02f12c23          	sw	a5,56(sp)
   12ecc:	cb9fd06f          	j	10b84 <_vfprintf_r+0x76c>

00012ed0 <vfprintf>:
   12ed0:	00050793          	mv	a5,a0
   12ed4:	1cc1a503          	lw	a0,460(gp) # 26ec4 <_impure_ptr>
   12ed8:	00060693          	mv	a3,a2
   12edc:	00058613          	mv	a2,a1
   12ee0:	00078593          	mv	a1,a5
   12ee4:	d34fd06f          	j	10418 <_vfprintf_r>

00012ee8 <__sbprintf>:
   12ee8:	00c5d783          	lhu	a5,12(a1)
   12eec:	0645ae03          	lw	t3,100(a1)
   12ef0:	00e5d303          	lhu	t1,14(a1)
   12ef4:	01c5a883          	lw	a7,28(a1)
   12ef8:	0245a803          	lw	a6,36(a1)
   12efc:	b8010113          	addi	sp,sp,-1152
   12f00:	ffd7f793          	andi	a5,a5,-3
   12f04:	40000713          	li	a4,1024
   12f08:	46812c23          	sw	s0,1144(sp)
   12f0c:	00f11a23          	sh	a5,20(sp)
   12f10:	00058413          	mv	s0,a1
   12f14:	07010793          	addi	a5,sp,112
   12f18:	00810593          	addi	a1,sp,8
   12f1c:	46912a23          	sw	s1,1140(sp)
   12f20:	47212823          	sw	s2,1136(sp)
   12f24:	46112e23          	sw	ra,1148(sp)
   12f28:	00050913          	mv	s2,a0
   12f2c:	07c12623          	sw	t3,108(sp)
   12f30:	00611b23          	sh	t1,22(sp)
   12f34:	03112223          	sw	a7,36(sp)
   12f38:	03012623          	sw	a6,44(sp)
   12f3c:	00f12423          	sw	a5,8(sp)
   12f40:	00f12c23          	sw	a5,24(sp)
   12f44:	00e12823          	sw	a4,16(sp)
   12f48:	00e12e23          	sw	a4,28(sp)
   12f4c:	02012023          	sw	zero,32(sp)
   12f50:	cc8fd0ef          	jal	ra,10418 <_vfprintf_r>
   12f54:	00050493          	mv	s1,a0
   12f58:	02055c63          	bgez	a0,12f90 <__sbprintf+0xa8>
   12f5c:	01415783          	lhu	a5,20(sp)
   12f60:	0407f793          	andi	a5,a5,64
   12f64:	00078863          	beqz	a5,12f74 <__sbprintf+0x8c>
   12f68:	00c45783          	lhu	a5,12(s0)
   12f6c:	0407e793          	ori	a5,a5,64
   12f70:	00f41623          	sh	a5,12(s0)
   12f74:	47c12083          	lw	ra,1148(sp)
   12f78:	47812403          	lw	s0,1144(sp)
   12f7c:	47012903          	lw	s2,1136(sp)
   12f80:	00048513          	mv	a0,s1
   12f84:	47412483          	lw	s1,1140(sp)
   12f88:	48010113          	addi	sp,sp,1152
   12f8c:	00008067          	ret
   12f90:	00810593          	addi	a1,sp,8
   12f94:	00090513          	mv	a0,s2
   12f98:	4fc000ef          	jal	ra,13494 <_fflush_r>
   12f9c:	fc0500e3          	beqz	a0,12f5c <__sbprintf+0x74>
   12fa0:	fff00493          	li	s1,-1
   12fa4:	fb9ff06f          	j	12f5c <__sbprintf+0x74>

00012fa8 <__swsetup_r>:
   12fa8:	1cc1a783          	lw	a5,460(gp) # 26ec4 <_impure_ptr>
   12fac:	ff010113          	addi	sp,sp,-16
   12fb0:	00812423          	sw	s0,8(sp)
   12fb4:	00912223          	sw	s1,4(sp)
   12fb8:	00112623          	sw	ra,12(sp)
   12fbc:	00050493          	mv	s1,a0
   12fc0:	00058413          	mv	s0,a1
   12fc4:	00078663          	beqz	a5,12fd0 <__swsetup_r+0x28>
   12fc8:	0387a703          	lw	a4,56(a5)
   12fcc:	0e070063          	beqz	a4,130ac <__swsetup_r+0x104>
   12fd0:	00c41703          	lh	a4,12(s0)
   12fd4:	01071793          	slli	a5,a4,0x10
   12fd8:	00877693          	andi	a3,a4,8
   12fdc:	0107d793          	srli	a5,a5,0x10
   12fe0:	04068063          	beqz	a3,13020 <__swsetup_r+0x78>
   12fe4:	01042683          	lw	a3,16(s0)
   12fe8:	06068063          	beqz	a3,13048 <__swsetup_r+0xa0>
   12fec:	0017f613          	andi	a2,a5,1
   12ff0:	08060463          	beqz	a2,13078 <__swsetup_r+0xd0>
   12ff4:	01442603          	lw	a2,20(s0)
   12ff8:	00042423          	sw	zero,8(s0)
   12ffc:	00000513          	li	a0,0
   13000:	40c00633          	neg	a2,a2
   13004:	00c42c23          	sw	a2,24(s0)
   13008:	08068663          	beqz	a3,13094 <__swsetup_r+0xec>
   1300c:	00c12083          	lw	ra,12(sp)
   13010:	00812403          	lw	s0,8(sp)
   13014:	00412483          	lw	s1,4(sp)
   13018:	01010113          	addi	sp,sp,16
   1301c:	00008067          	ret
   13020:	0107f693          	andi	a3,a5,16
   13024:	0c068463          	beqz	a3,130ec <__swsetup_r+0x144>
   13028:	0047f793          	andi	a5,a5,4
   1302c:	08079663          	bnez	a5,130b8 <__swsetup_r+0x110>
   13030:	01042683          	lw	a3,16(s0)
   13034:	00876713          	ori	a4,a4,8
   13038:	01071793          	slli	a5,a4,0x10
   1303c:	00e41623          	sh	a4,12(s0)
   13040:	0107d793          	srli	a5,a5,0x10
   13044:	fa0694e3          	bnez	a3,12fec <__swsetup_r+0x44>
   13048:	2807f613          	andi	a2,a5,640
   1304c:	20000593          	li	a1,512
   13050:	f8b60ee3          	beq	a2,a1,12fec <__swsetup_r+0x44>
   13054:	00040593          	mv	a1,s0
   13058:	00048513          	mv	a0,s1
   1305c:	2a9030ef          	jal	ra,16b04 <__smakebuf_r>
   13060:	00c41703          	lh	a4,12(s0)
   13064:	01042683          	lw	a3,16(s0)
   13068:	01071793          	slli	a5,a4,0x10
   1306c:	0107d793          	srli	a5,a5,0x10
   13070:	0017f613          	andi	a2,a5,1
   13074:	f80610e3          	bnez	a2,12ff4 <__swsetup_r+0x4c>
   13078:	0027f613          	andi	a2,a5,2
   1307c:	00000593          	li	a1,0
   13080:	00061463          	bnez	a2,13088 <__swsetup_r+0xe0>
   13084:	01442583          	lw	a1,20(s0)
   13088:	00b42423          	sw	a1,8(s0)
   1308c:	00000513          	li	a0,0
   13090:	f6069ee3          	bnez	a3,1300c <__swsetup_r+0x64>
   13094:	0807f793          	andi	a5,a5,128
   13098:	f6078ae3          	beqz	a5,1300c <__swsetup_r+0x64>
   1309c:	04076713          	ori	a4,a4,64
   130a0:	00e41623          	sh	a4,12(s0)
   130a4:	fff00513          	li	a0,-1
   130a8:	f65ff06f          	j	1300c <__swsetup_r+0x64>
   130ac:	00078513          	mv	a0,a5
   130b0:	78c000ef          	jal	ra,1383c <__sinit>
   130b4:	f1dff06f          	j	12fd0 <__swsetup_r+0x28>
   130b8:	03042583          	lw	a1,48(s0)
   130bc:	00058e63          	beqz	a1,130d8 <__swsetup_r+0x130>
   130c0:	04040793          	addi	a5,s0,64
   130c4:	00f58863          	beq	a1,a5,130d4 <__swsetup_r+0x12c>
   130c8:	00048513          	mv	a0,s1
   130cc:	13d000ef          	jal	ra,13a08 <_free_r>
   130d0:	00c41703          	lh	a4,12(s0)
   130d4:	02042823          	sw	zero,48(s0)
   130d8:	01042683          	lw	a3,16(s0)
   130dc:	fdb77713          	andi	a4,a4,-37
   130e0:	00042223          	sw	zero,4(s0)
   130e4:	00d42023          	sw	a3,0(s0)
   130e8:	f4dff06f          	j	13034 <__swsetup_r+0x8c>
   130ec:	00900793          	li	a5,9
   130f0:	00f4a023          	sw	a5,0(s1)
   130f4:	04076713          	ori	a4,a4,64
   130f8:	00e41623          	sh	a4,12(s0)
   130fc:	fff00513          	li	a0,-1
   13100:	f0dff06f          	j	1300c <__swsetup_r+0x64>

00013104 <__call_exitprocs>:
   13104:	fd010113          	addi	sp,sp,-48
   13108:	01412c23          	sw	s4,24(sp)
   1310c:	1b81aa03          	lw	s4,440(gp) # 26eb0 <_global_impure_ptr>
   13110:	03212023          	sw	s2,32(sp)
   13114:	02112623          	sw	ra,44(sp)
   13118:	148a2903          	lw	s2,328(s4)
   1311c:	02812423          	sw	s0,40(sp)
   13120:	02912223          	sw	s1,36(sp)
   13124:	01312e23          	sw	s3,28(sp)
   13128:	01512a23          	sw	s5,20(sp)
   1312c:	01612823          	sw	s6,16(sp)
   13130:	01712623          	sw	s7,12(sp)
   13134:	01812423          	sw	s8,8(sp)
   13138:	04090063          	beqz	s2,13178 <__call_exitprocs+0x74>
   1313c:	00050b13          	mv	s6,a0
   13140:	00058b93          	mv	s7,a1
   13144:	00100a93          	li	s5,1
   13148:	fff00993          	li	s3,-1
   1314c:	00492483          	lw	s1,4(s2) # 3ffe0004 <__BSS_END__+0x3ffb90d8>
   13150:	fff48413          	addi	s0,s1,-1
   13154:	02044263          	bltz	s0,13178 <__call_exitprocs+0x74>
   13158:	00249493          	slli	s1,s1,0x2
   1315c:	009904b3          	add	s1,s2,s1
   13160:	040b8463          	beqz	s7,131a8 <__call_exitprocs+0xa4>
   13164:	1044a783          	lw	a5,260(s1)
   13168:	05778063          	beq	a5,s7,131a8 <__call_exitprocs+0xa4>
   1316c:	fff40413          	addi	s0,s0,-1
   13170:	ffc48493          	addi	s1,s1,-4
   13174:	ff3416e3          	bne	s0,s3,13160 <__call_exitprocs+0x5c>
   13178:	02c12083          	lw	ra,44(sp)
   1317c:	02812403          	lw	s0,40(sp)
   13180:	02412483          	lw	s1,36(sp)
   13184:	02012903          	lw	s2,32(sp)
   13188:	01c12983          	lw	s3,28(sp)
   1318c:	01812a03          	lw	s4,24(sp)
   13190:	01412a83          	lw	s5,20(sp)
   13194:	01012b03          	lw	s6,16(sp)
   13198:	00c12b83          	lw	s7,12(sp)
   1319c:	00812c03          	lw	s8,8(sp)
   131a0:	03010113          	addi	sp,sp,48
   131a4:	00008067          	ret
   131a8:	00492783          	lw	a5,4(s2)
   131ac:	0044a683          	lw	a3,4(s1)
   131b0:	fff78793          	addi	a5,a5,-1
   131b4:	04878e63          	beq	a5,s0,13210 <__call_exitprocs+0x10c>
   131b8:	0004a223          	sw	zero,4(s1)
   131bc:	fa0688e3          	beqz	a3,1316c <__call_exitprocs+0x68>
   131c0:	18892783          	lw	a5,392(s2)
   131c4:	008a9733          	sll	a4,s5,s0
   131c8:	00492c03          	lw	s8,4(s2)
   131cc:	00f777b3          	and	a5,a4,a5
   131d0:	02079263          	bnez	a5,131f4 <__call_exitprocs+0xf0>
   131d4:	000680e7          	jalr	a3
   131d8:	00492703          	lw	a4,4(s2)
   131dc:	148a2783          	lw	a5,328(s4)
   131e0:	01871463          	bne	a4,s8,131e8 <__call_exitprocs+0xe4>
   131e4:	f8f904e3          	beq	s2,a5,1316c <__call_exitprocs+0x68>
   131e8:	f80788e3          	beqz	a5,13178 <__call_exitprocs+0x74>
   131ec:	00078913          	mv	s2,a5
   131f0:	f5dff06f          	j	1314c <__call_exitprocs+0x48>
   131f4:	18c92783          	lw	a5,396(s2)
   131f8:	0844a583          	lw	a1,132(s1)
   131fc:	00f77733          	and	a4,a4,a5
   13200:	00071c63          	bnez	a4,13218 <__call_exitprocs+0x114>
   13204:	000b0513          	mv	a0,s6
   13208:	000680e7          	jalr	a3
   1320c:	fcdff06f          	j	131d8 <__call_exitprocs+0xd4>
   13210:	00892223          	sw	s0,4(s2)
   13214:	fa9ff06f          	j	131bc <__call_exitprocs+0xb8>
   13218:	00058513          	mv	a0,a1
   1321c:	000680e7          	jalr	a3
   13220:	fb9ff06f          	j	131d8 <__call_exitprocs+0xd4>

00013224 <atexit>:
   13224:	00050593          	mv	a1,a0
   13228:	00000693          	li	a3,0
   1322c:	00000613          	li	a2,0
   13230:	00000513          	li	a0,0
   13234:	76c0906f          	j	1c9a0 <__register_exitproc>

00013238 <__sflush_r>:
   13238:	00c59783          	lh	a5,12(a1)
   1323c:	fe010113          	addi	sp,sp,-32
   13240:	00812c23          	sw	s0,24(sp)
   13244:	01312623          	sw	s3,12(sp)
   13248:	00112e23          	sw	ra,28(sp)
   1324c:	00912a23          	sw	s1,20(sp)
   13250:	01212823          	sw	s2,16(sp)
   13254:	0087f693          	andi	a3,a5,8
   13258:	00058413          	mv	s0,a1
   1325c:	00050993          	mv	s3,a0
   13260:	10069a63          	bnez	a3,13374 <__sflush_r+0x13c>
   13264:	00001737          	lui	a4,0x1
   13268:	80070713          	addi	a4,a4,-2048 # 800 <register_fini-0xf874>
   1326c:	0045a683          	lw	a3,4(a1)
   13270:	00e7e7b3          	or	a5,a5,a4
   13274:	00f59623          	sh	a5,12(a1)
   13278:	18d05463          	blez	a3,13400 <__sflush_r+0x1c8>
   1327c:	02842703          	lw	a4,40(s0)
   13280:	0c070a63          	beqz	a4,13354 <__sflush_r+0x11c>
   13284:	0009a483          	lw	s1,0(s3)
   13288:	01079693          	slli	a3,a5,0x10
   1328c:	0009a023          	sw	zero,0(s3)
   13290:	01379613          	slli	a2,a5,0x13
   13294:	01c42583          	lw	a1,28(s0)
   13298:	0106d693          	srli	a3,a3,0x10
   1329c:	16064863          	bltz	a2,1340c <__sflush_r+0x1d4>
   132a0:	00100693          	li	a3,1
   132a4:	00000613          	li	a2,0
   132a8:	00098513          	mv	a0,s3
   132ac:	000700e7          	jalr	a4
   132b0:	fff00793          	li	a5,-1
   132b4:	18f50c63          	beq	a0,a5,1344c <__sflush_r+0x214>
   132b8:	00c45683          	lhu	a3,12(s0)
   132bc:	02842703          	lw	a4,40(s0)
   132c0:	01c42583          	lw	a1,28(s0)
   132c4:	0046f693          	andi	a3,a3,4
   132c8:	00068e63          	beqz	a3,132e4 <__sflush_r+0xac>
   132cc:	00442683          	lw	a3,4(s0)
   132d0:	03042783          	lw	a5,48(s0)
   132d4:	40d50533          	sub	a0,a0,a3
   132d8:	00078663          	beqz	a5,132e4 <__sflush_r+0xac>
   132dc:	03c42783          	lw	a5,60(s0)
   132e0:	40f50533          	sub	a0,a0,a5
   132e4:	00050613          	mv	a2,a0
   132e8:	00000693          	li	a3,0
   132ec:	00098513          	mv	a0,s3
   132f0:	000700e7          	jalr	a4
   132f4:	fff00793          	li	a5,-1
   132f8:	10f51e63          	bne	a0,a5,13414 <__sflush_r+0x1dc>
   132fc:	0009a703          	lw	a4,0(s3)
   13300:	00c41783          	lh	a5,12(s0)
   13304:	16070863          	beqz	a4,13474 <__sflush_r+0x23c>
   13308:	01d00693          	li	a3,29
   1330c:	00d70663          	beq	a4,a3,13318 <__sflush_r+0xe0>
   13310:	01600693          	li	a3,22
   13314:	0cd71463          	bne	a4,a3,133dc <__sflush_r+0x1a4>
   13318:	01042683          	lw	a3,16(s0)
   1331c:	fffff737          	lui	a4,0xfffff
   13320:	7ff70713          	addi	a4,a4,2047 # fffff7ff <__BSS_END__+0xfffd88d3>
   13324:	00e7f7b3          	and	a5,a5,a4
   13328:	00f41623          	sh	a5,12(s0)
   1332c:	00042223          	sw	zero,4(s0)
   13330:	00d42023          	sw	a3,0(s0)
   13334:	03042583          	lw	a1,48(s0)
   13338:	0099a023          	sw	s1,0(s3)
   1333c:	00058c63          	beqz	a1,13354 <__sflush_r+0x11c>
   13340:	04040793          	addi	a5,s0,64
   13344:	00f58663          	beq	a1,a5,13350 <__sflush_r+0x118>
   13348:	00098513          	mv	a0,s3
   1334c:	6bc000ef          	jal	ra,13a08 <_free_r>
   13350:	02042823          	sw	zero,48(s0)
   13354:	00000513          	li	a0,0
   13358:	01c12083          	lw	ra,28(sp)
   1335c:	01812403          	lw	s0,24(sp)
   13360:	01412483          	lw	s1,20(sp)
   13364:	01012903          	lw	s2,16(sp)
   13368:	00c12983          	lw	s3,12(sp)
   1336c:	02010113          	addi	sp,sp,32
   13370:	00008067          	ret
   13374:	0105a903          	lw	s2,16(a1)
   13378:	fc090ee3          	beqz	s2,13354 <__sflush_r+0x11c>
   1337c:	0005a483          	lw	s1,0(a1)
   13380:	01079713          	slli	a4,a5,0x10
   13384:	01075713          	srli	a4,a4,0x10
   13388:	00377713          	andi	a4,a4,3
   1338c:	0125a023          	sw	s2,0(a1)
   13390:	412484b3          	sub	s1,s1,s2
   13394:	00000793          	li	a5,0
   13398:	00071463          	bnez	a4,133a0 <__sflush_r+0x168>
   1339c:	0145a783          	lw	a5,20(a1)
   133a0:	00f42423          	sw	a5,8(s0)
   133a4:	00904863          	bgtz	s1,133b4 <__sflush_r+0x17c>
   133a8:	fadff06f          	j	13354 <__sflush_r+0x11c>
   133ac:	00a90933          	add	s2,s2,a0
   133b0:	fa9052e3          	blez	s1,13354 <__sflush_r+0x11c>
   133b4:	02442783          	lw	a5,36(s0)
   133b8:	01c42583          	lw	a1,28(s0)
   133bc:	00048693          	mv	a3,s1
   133c0:	00090613          	mv	a2,s2
   133c4:	00098513          	mv	a0,s3
   133c8:	000780e7          	jalr	a5
   133cc:	40a484b3          	sub	s1,s1,a0
   133d0:	fca04ee3          	bgtz	a0,133ac <__sflush_r+0x174>
   133d4:	00c45783          	lhu	a5,12(s0)
   133d8:	fff00513          	li	a0,-1
   133dc:	0407e793          	ori	a5,a5,64
   133e0:	01c12083          	lw	ra,28(sp)
   133e4:	00f41623          	sh	a5,12(s0)
   133e8:	01812403          	lw	s0,24(sp)
   133ec:	01412483          	lw	s1,20(sp)
   133f0:	01012903          	lw	s2,16(sp)
   133f4:	00c12983          	lw	s3,12(sp)
   133f8:	02010113          	addi	sp,sp,32
   133fc:	00008067          	ret
   13400:	03c5a703          	lw	a4,60(a1)
   13404:	e6e04ce3          	bgtz	a4,1327c <__sflush_r+0x44>
   13408:	f4dff06f          	j	13354 <__sflush_r+0x11c>
   1340c:	05042503          	lw	a0,80(s0)
   13410:	eb5ff06f          	j	132c4 <__sflush_r+0x8c>
   13414:	00c45783          	lhu	a5,12(s0)
   13418:	fffff737          	lui	a4,0xfffff
   1341c:	7ff70713          	addi	a4,a4,2047 # fffff7ff <__BSS_END__+0xfffd88d3>
   13420:	00e7f7b3          	and	a5,a5,a4
   13424:	01042683          	lw	a3,16(s0)
   13428:	01079793          	slli	a5,a5,0x10
   1342c:	4107d793          	srai	a5,a5,0x10
   13430:	00f41623          	sh	a5,12(s0)
   13434:	00042223          	sw	zero,4(s0)
   13438:	00d42023          	sw	a3,0(s0)
   1343c:	01379713          	slli	a4,a5,0x13
   13440:	ee075ae3          	bgez	a4,13334 <__sflush_r+0xfc>
   13444:	04a42823          	sw	a0,80(s0)
   13448:	eedff06f          	j	13334 <__sflush_r+0xfc>
   1344c:	0009a783          	lw	a5,0(s3)
   13450:	e60784e3          	beqz	a5,132b8 <__sflush_r+0x80>
   13454:	01d00713          	li	a4,29
   13458:	02e78863          	beq	a5,a4,13488 <__sflush_r+0x250>
   1345c:	01600713          	li	a4,22
   13460:	02e78463          	beq	a5,a4,13488 <__sflush_r+0x250>
   13464:	00c45783          	lhu	a5,12(s0)
   13468:	0407e793          	ori	a5,a5,64
   1346c:	00f41623          	sh	a5,12(s0)
   13470:	ee9ff06f          	j	13358 <__sflush_r+0x120>
   13474:	fffff737          	lui	a4,0xfffff
   13478:	7ff70713          	addi	a4,a4,2047 # fffff7ff <__BSS_END__+0xfffd88d3>
   1347c:	01042683          	lw	a3,16(s0)
   13480:	00e7f7b3          	and	a5,a5,a4
   13484:	fadff06f          	j	13430 <__sflush_r+0x1f8>
   13488:	0099a023          	sw	s1,0(s3)
   1348c:	00000513          	li	a0,0
   13490:	ec9ff06f          	j	13358 <__sflush_r+0x120>

00013494 <_fflush_r>:
   13494:	fe010113          	addi	sp,sp,-32
   13498:	00812c23          	sw	s0,24(sp)
   1349c:	00112e23          	sw	ra,28(sp)
   134a0:	00050413          	mv	s0,a0
   134a4:	00050663          	beqz	a0,134b0 <_fflush_r+0x1c>
   134a8:	03852783          	lw	a5,56(a0)
   134ac:	02078063          	beqz	a5,134cc <_fflush_r+0x38>
   134b0:	00c59783          	lh	a5,12(a1)
   134b4:	02079663          	bnez	a5,134e0 <_fflush_r+0x4c>
   134b8:	01c12083          	lw	ra,28(sp)
   134bc:	01812403          	lw	s0,24(sp)
   134c0:	00000513          	li	a0,0
   134c4:	02010113          	addi	sp,sp,32
   134c8:	00008067          	ret
   134cc:	00b12623          	sw	a1,12(sp)
   134d0:	36c000ef          	jal	ra,1383c <__sinit>
   134d4:	00c12583          	lw	a1,12(sp)
   134d8:	00c59783          	lh	a5,12(a1)
   134dc:	fc078ee3          	beqz	a5,134b8 <_fflush_r+0x24>
   134e0:	00040513          	mv	a0,s0
   134e4:	01812403          	lw	s0,24(sp)
   134e8:	01c12083          	lw	ra,28(sp)
   134ec:	02010113          	addi	sp,sp,32
   134f0:	d49ff06f          	j	13238 <__sflush_r>

000134f4 <fflush>:
   134f4:	00050593          	mv	a1,a0
   134f8:	00050663          	beqz	a0,13504 <fflush+0x10>
   134fc:	1cc1a503          	lw	a0,460(gp) # 26ec4 <_impure_ptr>
   13500:	f95ff06f          	j	13494 <_fflush_r>
   13504:	1b81a503          	lw	a0,440(gp) # 26eb0 <_global_impure_ptr>
   13508:	000135b7          	lui	a1,0x13
   1350c:	49458593          	addi	a1,a1,1172 # 13494 <_fflush_r>
   13510:	09d0006f          	j	13dac <_fwalk_reent>

00013514 <__fp_lock>:
   13514:	00000513          	li	a0,0
   13518:	00008067          	ret

0001351c <_cleanup_r>:
   1351c:	0001d5b7          	lui	a1,0x1d
   13520:	b5858593          	addi	a1,a1,-1192 # 1cb58 <_fclose_r>
   13524:	0890006f          	j	13dac <_fwalk_reent>

00013528 <__sinit.part.0>:
   13528:	fe010113          	addi	sp,sp,-32
   1352c:	000137b7          	lui	a5,0x13
   13530:	00112e23          	sw	ra,28(sp)
   13534:	00812c23          	sw	s0,24(sp)
   13538:	00912a23          	sw	s1,20(sp)
   1353c:	01212823          	sw	s2,16(sp)
   13540:	01312623          	sw	s3,12(sp)
   13544:	01412423          	sw	s4,8(sp)
   13548:	01512223          	sw	s5,4(sp)
   1354c:	01612023          	sw	s6,0(sp)
   13550:	00452403          	lw	s0,4(a0)
   13554:	51c78793          	addi	a5,a5,1308 # 1351c <_cleanup_r>
   13558:	02f52e23          	sw	a5,60(a0)
   1355c:	2ec50713          	addi	a4,a0,748
   13560:	00300793          	li	a5,3
   13564:	2ee52423          	sw	a4,744(a0)
   13568:	2ef52223          	sw	a5,740(a0)
   1356c:	2e052023          	sw	zero,736(a0)
   13570:	00400793          	li	a5,4
   13574:	00050913          	mv	s2,a0
   13578:	00f42623          	sw	a5,12(s0)
   1357c:	00800613          	li	a2,8
   13580:	00000593          	li	a1,0
   13584:	06042223          	sw	zero,100(s0)
   13588:	00042023          	sw	zero,0(s0)
   1358c:	00042223          	sw	zero,4(s0)
   13590:	00042423          	sw	zero,8(s0)
   13594:	00042823          	sw	zero,16(s0)
   13598:	00042a23          	sw	zero,20(s0)
   1359c:	00042c23          	sw	zero,24(s0)
   135a0:	05c40513          	addi	a0,s0,92
   135a4:	d0dfc0ef          	jal	ra,102b0 <memset>
   135a8:	00018b37          	lui	s6,0x18
   135ac:	00892483          	lw	s1,8(s2)
   135b0:	00018ab7          	lui	s5,0x18
   135b4:	00019a37          	lui	s4,0x19
   135b8:	000199b7          	lui	s3,0x19
   135bc:	798b0b13          	addi	s6,s6,1944 # 18798 <__sread>
   135c0:	7fca8a93          	addi	s5,s5,2044 # 187fc <__swrite>
   135c4:	884a0a13          	addi	s4,s4,-1916 # 18884 <__sseek>
   135c8:	8ec98993          	addi	s3,s3,-1812 # 188ec <__sclose>
   135cc:	000107b7          	lui	a5,0x10
   135d0:	03642023          	sw	s6,32(s0)
   135d4:	03542223          	sw	s5,36(s0)
   135d8:	03442423          	sw	s4,40(s0)
   135dc:	03342623          	sw	s3,44(s0)
   135e0:	00842e23          	sw	s0,28(s0)
   135e4:	00978793          	addi	a5,a5,9 # 10009 <register_fini-0x6b>
   135e8:	00f4a623          	sw	a5,12(s1)
   135ec:	00800613          	li	a2,8
   135f0:	00000593          	li	a1,0
   135f4:	0604a223          	sw	zero,100(s1)
   135f8:	0004a023          	sw	zero,0(s1)
   135fc:	0004a223          	sw	zero,4(s1)
   13600:	0004a423          	sw	zero,8(s1)
   13604:	0004a823          	sw	zero,16(s1)
   13608:	0004aa23          	sw	zero,20(s1)
   1360c:	0004ac23          	sw	zero,24(s1)
   13610:	05c48513          	addi	a0,s1,92
   13614:	c9dfc0ef          	jal	ra,102b0 <memset>
   13618:	00c92403          	lw	s0,12(s2)
   1361c:	000207b7          	lui	a5,0x20
   13620:	0364a023          	sw	s6,32(s1)
   13624:	0354a223          	sw	s5,36(s1)
   13628:	0344a423          	sw	s4,40(s1)
   1362c:	0334a623          	sw	s3,44(s1)
   13630:	0094ae23          	sw	s1,28(s1)
   13634:	01278793          	addi	a5,a5,18 # 20012 <__umoddi3+0x166>
   13638:	00f42623          	sw	a5,12(s0)
   1363c:	06042223          	sw	zero,100(s0)
   13640:	00042023          	sw	zero,0(s0)
   13644:	00042223          	sw	zero,4(s0)
   13648:	00042423          	sw	zero,8(s0)
   1364c:	00042823          	sw	zero,16(s0)
   13650:	00042a23          	sw	zero,20(s0)
   13654:	00042c23          	sw	zero,24(s0)
   13658:	05c40513          	addi	a0,s0,92
   1365c:	00800613          	li	a2,8
   13660:	00000593          	li	a1,0
   13664:	c4dfc0ef          	jal	ra,102b0 <memset>
   13668:	01c12083          	lw	ra,28(sp)
   1366c:	03642023          	sw	s6,32(s0)
   13670:	03542223          	sw	s5,36(s0)
   13674:	03442423          	sw	s4,40(s0)
   13678:	03342623          	sw	s3,44(s0)
   1367c:	00842e23          	sw	s0,28(s0)
   13680:	01812403          	lw	s0,24(sp)
   13684:	00100793          	li	a5,1
   13688:	02f92c23          	sw	a5,56(s2)
   1368c:	01412483          	lw	s1,20(sp)
   13690:	01012903          	lw	s2,16(sp)
   13694:	00c12983          	lw	s3,12(sp)
   13698:	00812a03          	lw	s4,8(sp)
   1369c:	00412a83          	lw	s5,4(sp)
   136a0:	00012b03          	lw	s6,0(sp)
   136a4:	02010113          	addi	sp,sp,32
   136a8:	00008067          	ret

000136ac <__fp_unlock>:
   136ac:	00000513          	li	a0,0
   136b0:	00008067          	ret

000136b4 <__sfmoreglue>:
   136b4:	ff010113          	addi	sp,sp,-16
   136b8:	fff58613          	addi	a2,a1,-1
   136bc:	00812423          	sw	s0,8(sp)
   136c0:	00161413          	slli	s0,a2,0x1
   136c4:	00c40433          	add	s0,s0,a2
   136c8:	00241413          	slli	s0,s0,0x2
   136cc:	00c40433          	add	s0,s0,a2
   136d0:	00341413          	slli	s0,s0,0x3
   136d4:	01212023          	sw	s2,0(sp)
   136d8:	00058913          	mv	s2,a1
   136dc:	07440593          	addi	a1,s0,116
   136e0:	00912223          	sw	s1,4(sp)
   136e4:	00112623          	sw	ra,12(sp)
   136e8:	53c030ef          	jal	ra,16c24 <_malloc_r>
   136ec:	00050493          	mv	s1,a0
   136f0:	02050063          	beqz	a0,13710 <__sfmoreglue+0x5c>
   136f4:	00c50513          	addi	a0,a0,12
   136f8:	0004a023          	sw	zero,0(s1)
   136fc:	0124a223          	sw	s2,4(s1)
   13700:	00a4a423          	sw	a0,8(s1)
   13704:	06840613          	addi	a2,s0,104
   13708:	00000593          	li	a1,0
   1370c:	ba5fc0ef          	jal	ra,102b0 <memset>
   13710:	00c12083          	lw	ra,12(sp)
   13714:	00812403          	lw	s0,8(sp)
   13718:	00012903          	lw	s2,0(sp)
   1371c:	00048513          	mv	a0,s1
   13720:	00412483          	lw	s1,4(sp)
   13724:	01010113          	addi	sp,sp,16
   13728:	00008067          	ret

0001372c <__sfp>:
   1372c:	fe010113          	addi	sp,sp,-32
   13730:	01212823          	sw	s2,16(sp)
   13734:	1b81a903          	lw	s2,440(gp) # 26eb0 <_global_impure_ptr>
   13738:	01312623          	sw	s3,12(sp)
   1373c:	00112e23          	sw	ra,28(sp)
   13740:	03892783          	lw	a5,56(s2)
   13744:	00812c23          	sw	s0,24(sp)
   13748:	00912a23          	sw	s1,20(sp)
   1374c:	00050993          	mv	s3,a0
   13750:	0a078663          	beqz	a5,137fc <__sfp+0xd0>
   13754:	2e090913          	addi	s2,s2,736
   13758:	fff00493          	li	s1,-1
   1375c:	00492783          	lw	a5,4(s2)
   13760:	00892403          	lw	s0,8(s2)
   13764:	fff78793          	addi	a5,a5,-1
   13768:	0007d863          	bgez	a5,13778 <__sfp+0x4c>
   1376c:	0800006f          	j	137ec <__sfp+0xc0>
   13770:	06840413          	addi	s0,s0,104
   13774:	06978c63          	beq	a5,s1,137ec <__sfp+0xc0>
   13778:	00c41703          	lh	a4,12(s0)
   1377c:	fff78793          	addi	a5,a5,-1
   13780:	fe0718e3          	bnez	a4,13770 <__sfp+0x44>
   13784:	ffff07b7          	lui	a5,0xffff0
   13788:	00178793          	addi	a5,a5,1 # ffff0001 <__BSS_END__+0xfffc90d5>
   1378c:	06042223          	sw	zero,100(s0)
   13790:	00042023          	sw	zero,0(s0)
   13794:	00042223          	sw	zero,4(s0)
   13798:	00042423          	sw	zero,8(s0)
   1379c:	00f42623          	sw	a5,12(s0)
   137a0:	00042823          	sw	zero,16(s0)
   137a4:	00042a23          	sw	zero,20(s0)
   137a8:	00042c23          	sw	zero,24(s0)
   137ac:	00800613          	li	a2,8
   137b0:	00000593          	li	a1,0
   137b4:	05c40513          	addi	a0,s0,92
   137b8:	af9fc0ef          	jal	ra,102b0 <memset>
   137bc:	02042823          	sw	zero,48(s0)
   137c0:	02042a23          	sw	zero,52(s0)
   137c4:	04042223          	sw	zero,68(s0)
   137c8:	04042423          	sw	zero,72(s0)
   137cc:	01c12083          	lw	ra,28(sp)
   137d0:	00040513          	mv	a0,s0
   137d4:	01812403          	lw	s0,24(sp)
   137d8:	01412483          	lw	s1,20(sp)
   137dc:	01012903          	lw	s2,16(sp)
   137e0:	00c12983          	lw	s3,12(sp)
   137e4:	02010113          	addi	sp,sp,32
   137e8:	00008067          	ret
   137ec:	00092403          	lw	s0,0(s2)
   137f0:	00040c63          	beqz	s0,13808 <__sfp+0xdc>
   137f4:	00040913          	mv	s2,s0
   137f8:	f65ff06f          	j	1375c <__sfp+0x30>
   137fc:	00090513          	mv	a0,s2
   13800:	d29ff0ef          	jal	ra,13528 <__sinit.part.0>
   13804:	f51ff06f          	j	13754 <__sfp+0x28>
   13808:	00400593          	li	a1,4
   1380c:	00098513          	mv	a0,s3
   13810:	ea5ff0ef          	jal	ra,136b4 <__sfmoreglue>
   13814:	00a92023          	sw	a0,0(s2)
   13818:	00050413          	mv	s0,a0
   1381c:	fc051ce3          	bnez	a0,137f4 <__sfp+0xc8>
   13820:	00c00793          	li	a5,12
   13824:	00f9a023          	sw	a5,0(s3)
   13828:	fa5ff06f          	j	137cc <__sfp+0xa0>

0001382c <_cleanup>:
   1382c:	1b81a503          	lw	a0,440(gp) # 26eb0 <_global_impure_ptr>
   13830:	0001d5b7          	lui	a1,0x1d
   13834:	b5858593          	addi	a1,a1,-1192 # 1cb58 <_fclose_r>
   13838:	5740006f          	j	13dac <_fwalk_reent>

0001383c <__sinit>:
   1383c:	03852783          	lw	a5,56(a0)
   13840:	00078463          	beqz	a5,13848 <__sinit+0xc>
   13844:	00008067          	ret
   13848:	ce1ff06f          	j	13528 <__sinit.part.0>

0001384c <__sfp_lock_acquire>:
   1384c:	00008067          	ret

00013850 <__sfp_lock_release>:
   13850:	00008067          	ret

00013854 <__sinit_lock_acquire>:
   13854:	00008067          	ret

00013858 <__sinit_lock_release>:
   13858:	00008067          	ret

0001385c <__fp_lock_all>:
   1385c:	1cc1a503          	lw	a0,460(gp) # 26ec4 <_impure_ptr>
   13860:	000135b7          	lui	a1,0x13
   13864:	51458593          	addi	a1,a1,1300 # 13514 <__fp_lock>
   13868:	4a00006f          	j	13d08 <_fwalk>

0001386c <__fp_unlock_all>:
   1386c:	1cc1a503          	lw	a0,460(gp) # 26ec4 <_impure_ptr>
   13870:	000135b7          	lui	a1,0x13
   13874:	6ac58593          	addi	a1,a1,1708 # 136ac <__fp_unlock>
   13878:	4900006f          	j	13d08 <_fwalk>

0001387c <__libc_fini_array>:
   1387c:	ff010113          	addi	sp,sp,-16
   13880:	00812423          	sw	s0,8(sp)
   13884:	000267b7          	lui	a5,0x26
   13888:	00026437          	lui	s0,0x26
   1388c:	4f040413          	addi	s0,s0,1264 # 264f0 <__init_array_end>
   13890:	4f478793          	addi	a5,a5,1268 # 264f4 <__fini_array_end>
   13894:	408787b3          	sub	a5,a5,s0
   13898:	00912223          	sw	s1,4(sp)
   1389c:	00112623          	sw	ra,12(sp)
   138a0:	4027d493          	srai	s1,a5,0x2
   138a4:	02048063          	beqz	s1,138c4 <__libc_fini_array+0x48>
   138a8:	ffc78793          	addi	a5,a5,-4
   138ac:	00878433          	add	s0,a5,s0
   138b0:	00042783          	lw	a5,0(s0)
   138b4:	fff48493          	addi	s1,s1,-1
   138b8:	ffc40413          	addi	s0,s0,-4
   138bc:	000780e7          	jalr	a5
   138c0:	fe0498e3          	bnez	s1,138b0 <__libc_fini_array+0x34>
   138c4:	00c12083          	lw	ra,12(sp)
   138c8:	00812403          	lw	s0,8(sp)
   138cc:	00412483          	lw	s1,4(sp)
   138d0:	01010113          	addi	sp,sp,16
   138d4:	00008067          	ret

000138d8 <_malloc_trim_r>:
   138d8:	fe010113          	addi	sp,sp,-32
   138dc:	01312623          	sw	s3,12(sp)
   138e0:	00812c23          	sw	s0,24(sp)
   138e4:	00912a23          	sw	s1,20(sp)
   138e8:	01212823          	sw	s2,16(sp)
   138ec:	01412423          	sw	s4,8(sp)
   138f0:	00112e23          	sw	ra,28(sp)
   138f4:	00058a13          	mv	s4,a1
   138f8:	00050913          	mv	s2,a0
   138fc:	c2818993          	addi	s3,gp,-984 # 26920 <__malloc_av_>
   13900:	391030ef          	jal	ra,17490 <__malloc_lock>
   13904:	0089a703          	lw	a4,8(s3)
   13908:	000017b7          	lui	a5,0x1
   1390c:	fef78413          	addi	s0,a5,-17 # fef <register_fini-0xf085>
   13910:	00472483          	lw	s1,4(a4)
   13914:	41440433          	sub	s0,s0,s4
   13918:	ffc4f493          	andi	s1,s1,-4
   1391c:	00940433          	add	s0,s0,s1
   13920:	00c45413          	srli	s0,s0,0xc
   13924:	fff40413          	addi	s0,s0,-1
   13928:	00c41413          	slli	s0,s0,0xc
   1392c:	00f44e63          	blt	s0,a5,13948 <_malloc_trim_r+0x70>
   13930:	00000593          	li	a1,0
   13934:	00090513          	mv	a0,s2
   13938:	521040ef          	jal	ra,18658 <_sbrk_r>
   1393c:	0089a783          	lw	a5,8(s3)
   13940:	009787b3          	add	a5,a5,s1
   13944:	02f50863          	beq	a0,a5,13974 <_malloc_trim_r+0x9c>
   13948:	00090513          	mv	a0,s2
   1394c:	349030ef          	jal	ra,17494 <__malloc_unlock>
   13950:	01c12083          	lw	ra,28(sp)
   13954:	01812403          	lw	s0,24(sp)
   13958:	01412483          	lw	s1,20(sp)
   1395c:	01012903          	lw	s2,16(sp)
   13960:	00c12983          	lw	s3,12(sp)
   13964:	00812a03          	lw	s4,8(sp)
   13968:	00000513          	li	a0,0
   1396c:	02010113          	addi	sp,sp,32
   13970:	00008067          	ret
   13974:	408005b3          	neg	a1,s0
   13978:	00090513          	mv	a0,s2
   1397c:	4dd040ef          	jal	ra,18658 <_sbrk_r>
   13980:	fff00793          	li	a5,-1
   13984:	04f50863          	beq	a0,a5,139d4 <_malloc_trim_r+0xfc>
   13988:	20818793          	addi	a5,gp,520 # 26f00 <__malloc_current_mallinfo>
   1398c:	0007a703          	lw	a4,0(a5)
   13990:	0089a683          	lw	a3,8(s3)
   13994:	408484b3          	sub	s1,s1,s0
   13998:	0014e493          	ori	s1,s1,1
   1399c:	40870433          	sub	s0,a4,s0
   139a0:	00090513          	mv	a0,s2
   139a4:	0096a223          	sw	s1,4(a3)
   139a8:	0087a023          	sw	s0,0(a5)
   139ac:	2e9030ef          	jal	ra,17494 <__malloc_unlock>
   139b0:	01c12083          	lw	ra,28(sp)
   139b4:	01812403          	lw	s0,24(sp)
   139b8:	01412483          	lw	s1,20(sp)
   139bc:	01012903          	lw	s2,16(sp)
   139c0:	00c12983          	lw	s3,12(sp)
   139c4:	00812a03          	lw	s4,8(sp)
   139c8:	00100513          	li	a0,1
   139cc:	02010113          	addi	sp,sp,32
   139d0:	00008067          	ret
   139d4:	00000593          	li	a1,0
   139d8:	00090513          	mv	a0,s2
   139dc:	47d040ef          	jal	ra,18658 <_sbrk_r>
   139e0:	0089a703          	lw	a4,8(s3)
   139e4:	00f00693          	li	a3,15
   139e8:	40e507b3          	sub	a5,a0,a4
   139ec:	f4f6dee3          	bge	a3,a5,13948 <_malloc_trim_r+0x70>
   139f0:	1d01a683          	lw	a3,464(gp) # 26ec8 <__malloc_sbrk_base>
   139f4:	0017e793          	ori	a5,a5,1
   139f8:	00f72223          	sw	a5,4(a4)
   139fc:	40d50533          	sub	a0,a0,a3
   13a00:	20a1a423          	sw	a0,520(gp) # 26f00 <__malloc_current_mallinfo>
   13a04:	f45ff06f          	j	13948 <_malloc_trim_r+0x70>

00013a08 <_free_r>:
   13a08:	12058463          	beqz	a1,13b30 <_free_r+0x128>
   13a0c:	ff010113          	addi	sp,sp,-16
   13a10:	00812423          	sw	s0,8(sp)
   13a14:	00912223          	sw	s1,4(sp)
   13a18:	00058413          	mv	s0,a1
   13a1c:	00050493          	mv	s1,a0
   13a20:	00112623          	sw	ra,12(sp)
   13a24:	26d030ef          	jal	ra,17490 <__malloc_lock>
   13a28:	ffc42803          	lw	a6,-4(s0)
   13a2c:	ff840713          	addi	a4,s0,-8
   13a30:	ffe87793          	andi	a5,a6,-2
   13a34:	00f70633          	add	a2,a4,a5
   13a38:	c2818593          	addi	a1,gp,-984 # 26920 <__malloc_av_>
   13a3c:	00462683          	lw	a3,4(a2)
   13a40:	0085a503          	lw	a0,8(a1)
   13a44:	ffc6f693          	andi	a3,a3,-4
   13a48:	1ac50663          	beq	a0,a2,13bf4 <_free_r+0x1ec>
   13a4c:	00d62223          	sw	a3,4(a2)
   13a50:	00187813          	andi	a6,a6,1
   13a54:	00d60533          	add	a0,a2,a3
   13a58:	08081e63          	bnez	a6,13af4 <_free_r+0xec>
   13a5c:	ff842303          	lw	t1,-8(s0)
   13a60:	00452803          	lw	a6,4(a0)
   13a64:	40670733          	sub	a4,a4,t1
   13a68:	00872883          	lw	a7,8(a4)
   13a6c:	c3018513          	addi	a0,gp,-976 # 26928 <__malloc_av_+0x8>
   13a70:	006787b3          	add	a5,a5,t1
   13a74:	00187813          	andi	a6,a6,1
   13a78:	12a88e63          	beq	a7,a0,13bb4 <_free_r+0x1ac>
   13a7c:	00c72303          	lw	t1,12(a4)
   13a80:	0068a623          	sw	t1,12(a7)
   13a84:	01132423          	sw	a7,8(t1)
   13a88:	1c080e63          	beqz	a6,13c64 <_free_r+0x25c>
   13a8c:	0017e693          	ori	a3,a5,1
   13a90:	00d72223          	sw	a3,4(a4)
   13a94:	00f62023          	sw	a5,0(a2)
   13a98:	1ff00693          	li	a3,511
   13a9c:	0af6e663          	bltu	a3,a5,13b48 <_free_r+0x140>
   13aa0:	ff87f693          	andi	a3,a5,-8
   13aa4:	00868693          	addi	a3,a3,8
   13aa8:	0045a503          	lw	a0,4(a1)
   13aac:	00d586b3          	add	a3,a1,a3
   13ab0:	0006a603          	lw	a2,0(a3)
   13ab4:	0057d813          	srli	a6,a5,0x5
   13ab8:	00100793          	li	a5,1
   13abc:	010797b3          	sll	a5,a5,a6
   13ac0:	00a7e7b3          	or	a5,a5,a0
   13ac4:	ff868513          	addi	a0,a3,-8
   13ac8:	00a72623          	sw	a0,12(a4)
   13acc:	00c72423          	sw	a2,8(a4)
   13ad0:	00f5a223          	sw	a5,4(a1)
   13ad4:	00e6a023          	sw	a4,0(a3)
   13ad8:	00e62623          	sw	a4,12(a2)
   13adc:	00812403          	lw	s0,8(sp)
   13ae0:	00c12083          	lw	ra,12(sp)
   13ae4:	00048513          	mv	a0,s1
   13ae8:	00412483          	lw	s1,4(sp)
   13aec:	01010113          	addi	sp,sp,16
   13af0:	1a50306f          	j	17494 <__malloc_unlock>
   13af4:	00452503          	lw	a0,4(a0)
   13af8:	00157513          	andi	a0,a0,1
   13afc:	02051c63          	bnez	a0,13b34 <_free_r+0x12c>
   13b00:	00d787b3          	add	a5,a5,a3
   13b04:	c3018513          	addi	a0,gp,-976 # 26928 <__malloc_av_+0x8>
   13b08:	00862683          	lw	a3,8(a2)
   13b0c:	0017e893          	ori	a7,a5,1
   13b10:	00f70833          	add	a6,a4,a5
   13b14:	16a68463          	beq	a3,a0,13c7c <_free_r+0x274>
   13b18:	00c62603          	lw	a2,12(a2)
   13b1c:	00c6a623          	sw	a2,12(a3)
   13b20:	00d62423          	sw	a3,8(a2)
   13b24:	01172223          	sw	a7,4(a4)
   13b28:	00f82023          	sw	a5,0(a6)
   13b2c:	f6dff06f          	j	13a98 <_free_r+0x90>
   13b30:	00008067          	ret
   13b34:	0017e693          	ori	a3,a5,1
   13b38:	fed42e23          	sw	a3,-4(s0)
   13b3c:	00f62023          	sw	a5,0(a2)
   13b40:	1ff00693          	li	a3,511
   13b44:	f4f6fee3          	bgeu	a3,a5,13aa0 <_free_r+0x98>
   13b48:	0097d693          	srli	a3,a5,0x9
   13b4c:	00400613          	li	a2,4
   13b50:	0ed66863          	bltu	a2,a3,13c40 <_free_r+0x238>
   13b54:	0067d693          	srli	a3,a5,0x6
   13b58:	03968813          	addi	a6,a3,57
   13b5c:	03868613          	addi	a2,a3,56
   13b60:	00381813          	slli	a6,a6,0x3
   13b64:	01058833          	add	a6,a1,a6
   13b68:	00082683          	lw	a3,0(a6)
   13b6c:	ff880813          	addi	a6,a6,-8
   13b70:	12d80463          	beq	a6,a3,13c98 <_free_r+0x290>
   13b74:	0046a603          	lw	a2,4(a3)
   13b78:	ffc67613          	andi	a2,a2,-4
   13b7c:	00c7f663          	bgeu	a5,a2,13b88 <_free_r+0x180>
   13b80:	0086a683          	lw	a3,8(a3)
   13b84:	fed818e3          	bne	a6,a3,13b74 <_free_r+0x16c>
   13b88:	00c6a803          	lw	a6,12(a3)
   13b8c:	01072623          	sw	a6,12(a4)
   13b90:	00d72423          	sw	a3,8(a4)
   13b94:	00812403          	lw	s0,8(sp)
   13b98:	00c12083          	lw	ra,12(sp)
   13b9c:	00e82423          	sw	a4,8(a6)
   13ba0:	00048513          	mv	a0,s1
   13ba4:	00412483          	lw	s1,4(sp)
   13ba8:	00e6a623          	sw	a4,12(a3)
   13bac:	01010113          	addi	sp,sp,16
   13bb0:	0e50306f          	j	17494 <__malloc_unlock>
   13bb4:	14081263          	bnez	a6,13cf8 <_free_r+0x2f0>
   13bb8:	00c62583          	lw	a1,12(a2)
   13bbc:	00862603          	lw	a2,8(a2)
   13bc0:	00f687b3          	add	a5,a3,a5
   13bc4:	00812403          	lw	s0,8(sp)
   13bc8:	00b62623          	sw	a1,12(a2)
   13bcc:	00c5a423          	sw	a2,8(a1)
   13bd0:	0017e693          	ori	a3,a5,1
   13bd4:	00c12083          	lw	ra,12(sp)
   13bd8:	00d72223          	sw	a3,4(a4)
   13bdc:	00048513          	mv	a0,s1
   13be0:	00f70733          	add	a4,a4,a5
   13be4:	00412483          	lw	s1,4(sp)
   13be8:	00f72023          	sw	a5,0(a4)
   13bec:	01010113          	addi	sp,sp,16
   13bf0:	0a50306f          	j	17494 <__malloc_unlock>
   13bf4:	00187813          	andi	a6,a6,1
   13bf8:	00d787b3          	add	a5,a5,a3
   13bfc:	02081063          	bnez	a6,13c1c <_free_r+0x214>
   13c00:	ff842503          	lw	a0,-8(s0)
   13c04:	40a70733          	sub	a4,a4,a0
   13c08:	00c72683          	lw	a3,12(a4)
   13c0c:	00872603          	lw	a2,8(a4)
   13c10:	00a787b3          	add	a5,a5,a0
   13c14:	00d62623          	sw	a3,12(a2)
   13c18:	00c6a423          	sw	a2,8(a3)
   13c1c:	0017e613          	ori	a2,a5,1
   13c20:	1d41a683          	lw	a3,468(gp) # 26ecc <__malloc_trim_threshold>
   13c24:	00c72223          	sw	a2,4(a4)
   13c28:	00e5a423          	sw	a4,8(a1)
   13c2c:	ead7e8e3          	bltu	a5,a3,13adc <_free_r+0xd4>
   13c30:	1e01a583          	lw	a1,480(gp) # 26ed8 <__malloc_top_pad>
   13c34:	00048513          	mv	a0,s1
   13c38:	ca1ff0ef          	jal	ra,138d8 <_malloc_trim_r>
   13c3c:	ea1ff06f          	j	13adc <_free_r+0xd4>
   13c40:	01400613          	li	a2,20
   13c44:	02d67463          	bgeu	a2,a3,13c6c <_free_r+0x264>
   13c48:	05400613          	li	a2,84
   13c4c:	06d66463          	bltu	a2,a3,13cb4 <_free_r+0x2ac>
   13c50:	00c7d693          	srli	a3,a5,0xc
   13c54:	06f68813          	addi	a6,a3,111
   13c58:	06e68613          	addi	a2,a3,110
   13c5c:	00381813          	slli	a6,a6,0x3
   13c60:	f05ff06f          	j	13b64 <_free_r+0x15c>
   13c64:	00d787b3          	add	a5,a5,a3
   13c68:	ea1ff06f          	j	13b08 <_free_r+0x100>
   13c6c:	05c68813          	addi	a6,a3,92
   13c70:	05b68613          	addi	a2,a3,91
   13c74:	00381813          	slli	a6,a6,0x3
   13c78:	eedff06f          	j	13b64 <_free_r+0x15c>
   13c7c:	00e5aa23          	sw	a4,20(a1)
   13c80:	00e5a823          	sw	a4,16(a1)
   13c84:	00a72623          	sw	a0,12(a4)
   13c88:	00a72423          	sw	a0,8(a4)
   13c8c:	01172223          	sw	a7,4(a4)
   13c90:	00f82023          	sw	a5,0(a6)
   13c94:	e49ff06f          	j	13adc <_free_r+0xd4>
   13c98:	0045a503          	lw	a0,4(a1)
   13c9c:	40265613          	srai	a2,a2,0x2
   13ca0:	00100793          	li	a5,1
   13ca4:	00c79633          	sll	a2,a5,a2
   13ca8:	00a66633          	or	a2,a2,a0
   13cac:	00c5a223          	sw	a2,4(a1)
   13cb0:	eddff06f          	j	13b8c <_free_r+0x184>
   13cb4:	15400613          	li	a2,340
   13cb8:	00d66c63          	bltu	a2,a3,13cd0 <_free_r+0x2c8>
   13cbc:	00f7d693          	srli	a3,a5,0xf
   13cc0:	07868813          	addi	a6,a3,120
   13cc4:	07768613          	addi	a2,a3,119
   13cc8:	00381813          	slli	a6,a6,0x3
   13ccc:	e99ff06f          	j	13b64 <_free_r+0x15c>
   13cd0:	55400613          	li	a2,1364
   13cd4:	00d66c63          	bltu	a2,a3,13cec <_free_r+0x2e4>
   13cd8:	0127d693          	srli	a3,a5,0x12
   13cdc:	07d68813          	addi	a6,a3,125
   13ce0:	07c68613          	addi	a2,a3,124
   13ce4:	00381813          	slli	a6,a6,0x3
   13ce8:	e7dff06f          	j	13b64 <_free_r+0x15c>
   13cec:	3f800813          	li	a6,1016
   13cf0:	07e00613          	li	a2,126
   13cf4:	e71ff06f          	j	13b64 <_free_r+0x15c>
   13cf8:	0017e693          	ori	a3,a5,1
   13cfc:	00d72223          	sw	a3,4(a4)
   13d00:	00f62023          	sw	a5,0(a2)
   13d04:	dd9ff06f          	j	13adc <_free_r+0xd4>

00013d08 <_fwalk>:
   13d08:	fe010113          	addi	sp,sp,-32
   13d0c:	01212823          	sw	s2,16(sp)
   13d10:	01312623          	sw	s3,12(sp)
   13d14:	01412423          	sw	s4,8(sp)
   13d18:	01512223          	sw	s5,4(sp)
   13d1c:	01612023          	sw	s6,0(sp)
   13d20:	00112e23          	sw	ra,28(sp)
   13d24:	00812c23          	sw	s0,24(sp)
   13d28:	00912a23          	sw	s1,20(sp)
   13d2c:	00058b13          	mv	s6,a1
   13d30:	2e050a93          	addi	s5,a0,736
   13d34:	00000a13          	li	s4,0
   13d38:	00100993          	li	s3,1
   13d3c:	fff00913          	li	s2,-1
   13d40:	004aa483          	lw	s1,4(s5)
   13d44:	008aa403          	lw	s0,8(s5)
   13d48:	fff48493          	addi	s1,s1,-1
   13d4c:	0204c663          	bltz	s1,13d78 <_fwalk+0x70>
   13d50:	00c45783          	lhu	a5,12(s0)
   13d54:	fff48493          	addi	s1,s1,-1
   13d58:	00f9fc63          	bgeu	s3,a5,13d70 <_fwalk+0x68>
   13d5c:	00e41783          	lh	a5,14(s0)
   13d60:	00040513          	mv	a0,s0
   13d64:	01278663          	beq	a5,s2,13d70 <_fwalk+0x68>
   13d68:	000b00e7          	jalr	s6
   13d6c:	00aa6a33          	or	s4,s4,a0
   13d70:	06840413          	addi	s0,s0,104
   13d74:	fd249ee3          	bne	s1,s2,13d50 <_fwalk+0x48>
   13d78:	000aaa83          	lw	s5,0(s5)
   13d7c:	fc0a92e3          	bnez	s5,13d40 <_fwalk+0x38>
   13d80:	01c12083          	lw	ra,28(sp)
   13d84:	01812403          	lw	s0,24(sp)
   13d88:	01412483          	lw	s1,20(sp)
   13d8c:	01012903          	lw	s2,16(sp)
   13d90:	00c12983          	lw	s3,12(sp)
   13d94:	00412a83          	lw	s5,4(sp)
   13d98:	00012b03          	lw	s6,0(sp)
   13d9c:	000a0513          	mv	a0,s4
   13da0:	00812a03          	lw	s4,8(sp)
   13da4:	02010113          	addi	sp,sp,32
   13da8:	00008067          	ret

00013dac <_fwalk_reent>:
   13dac:	fd010113          	addi	sp,sp,-48
   13db0:	03212023          	sw	s2,32(sp)
   13db4:	01312e23          	sw	s3,28(sp)
   13db8:	01412c23          	sw	s4,24(sp)
   13dbc:	01512a23          	sw	s5,20(sp)
   13dc0:	01612823          	sw	s6,16(sp)
   13dc4:	01712623          	sw	s7,12(sp)
   13dc8:	02112623          	sw	ra,44(sp)
   13dcc:	02812423          	sw	s0,40(sp)
   13dd0:	02912223          	sw	s1,36(sp)
   13dd4:	00050a93          	mv	s5,a0
   13dd8:	00058b93          	mv	s7,a1
   13ddc:	2e050b13          	addi	s6,a0,736
   13de0:	00000a13          	li	s4,0
   13de4:	00100993          	li	s3,1
   13de8:	fff00913          	li	s2,-1
   13dec:	004b2483          	lw	s1,4(s6)
   13df0:	008b2403          	lw	s0,8(s6)
   13df4:	fff48493          	addi	s1,s1,-1
   13df8:	0204c863          	bltz	s1,13e28 <_fwalk_reent+0x7c>
   13dfc:	00c45783          	lhu	a5,12(s0)
   13e00:	fff48493          	addi	s1,s1,-1
   13e04:	00f9fe63          	bgeu	s3,a5,13e20 <_fwalk_reent+0x74>
   13e08:	00e41783          	lh	a5,14(s0)
   13e0c:	00040593          	mv	a1,s0
   13e10:	000a8513          	mv	a0,s5
   13e14:	01278663          	beq	a5,s2,13e20 <_fwalk_reent+0x74>
   13e18:	000b80e7          	jalr	s7
   13e1c:	00aa6a33          	or	s4,s4,a0
   13e20:	06840413          	addi	s0,s0,104
   13e24:	fd249ce3          	bne	s1,s2,13dfc <_fwalk_reent+0x50>
   13e28:	000b2b03          	lw	s6,0(s6)
   13e2c:	fc0b10e3          	bnez	s6,13dec <_fwalk_reent+0x40>
   13e30:	02c12083          	lw	ra,44(sp)
   13e34:	02812403          	lw	s0,40(sp)
   13e38:	02412483          	lw	s1,36(sp)
   13e3c:	02012903          	lw	s2,32(sp)
   13e40:	01c12983          	lw	s3,28(sp)
   13e44:	01412a83          	lw	s5,20(sp)
   13e48:	01012b03          	lw	s6,16(sp)
   13e4c:	00c12b83          	lw	s7,12(sp)
   13e50:	000a0513          	mv	a0,s4
   13e54:	01812a03          	lw	s4,24(sp)
   13e58:	03010113          	addi	sp,sp,48
   13e5c:	00008067          	ret

00013e60 <eshdn1>:
   13e60:	00450693          	addi	a3,a0,4
   13e64:	00000793          	li	a5,0
   13e68:	01a50513          	addi	a0,a0,26
   13e6c:	ffff8837          	lui	a6,0xffff8
   13e70:	01c0006f          	j	13e8c <eshdn1+0x2c>
   13e74:	00179793          	slli	a5,a5,0x1
   13e78:	00e69023          	sh	a4,0(a3)
   13e7c:	01079793          	slli	a5,a5,0x10
   13e80:	00268693          	addi	a3,a3,2
   13e84:	0107d793          	srli	a5,a5,0x10
   13e88:	02d50e63          	beq	a0,a3,13ec4 <eshdn1+0x64>
   13e8c:	0006d703          	lhu	a4,0(a3)
   13e90:	00177613          	andi	a2,a4,1
   13e94:	00060463          	beqz	a2,13e9c <eshdn1+0x3c>
   13e98:	0017e793          	ori	a5,a5,1
   13e9c:	00175713          	srli	a4,a4,0x1
   13ea0:	0027f613          	andi	a2,a5,2
   13ea4:	010765b3          	or	a1,a4,a6
   13ea8:	fc0606e3          	beqz	a2,13e74 <eshdn1+0x14>
   13eac:	00179793          	slli	a5,a5,0x1
   13eb0:	00b69023          	sh	a1,0(a3)
   13eb4:	01079793          	slli	a5,a5,0x10
   13eb8:	00268693          	addi	a3,a3,2
   13ebc:	0107d793          	srli	a5,a5,0x10
   13ec0:	fcd516e3          	bne	a0,a3,13e8c <eshdn1+0x2c>
   13ec4:	00008067          	ret

00013ec8 <eshup1>:
   13ec8:	01850693          	addi	a3,a0,24
   13ecc:	00000713          	li	a4,0
   13ed0:	00250513          	addi	a0,a0,2
   13ed4:	01c0006f          	j	13ef0 <eshup1+0x28>
   13ed8:	00171713          	slli	a4,a4,0x1
   13edc:	00f69023          	sh	a5,0(a3)
   13ee0:	01071713          	slli	a4,a4,0x10
   13ee4:	ffe68693          	addi	a3,a3,-2
   13ee8:	01075713          	srli	a4,a4,0x10
   13eec:	04d50463          	beq	a0,a3,13f34 <eshup1+0x6c>
   13ef0:	0006d783          	lhu	a5,0(a3)
   13ef4:	01079613          	slli	a2,a5,0x10
   13ef8:	41065613          	srai	a2,a2,0x10
   13efc:	00179793          	slli	a5,a5,0x1
   13f00:	00065463          	bgez	a2,13f08 <eshup1+0x40>
   13f04:	00176713          	ori	a4,a4,1
   13f08:	01079793          	slli	a5,a5,0x10
   13f0c:	0107d793          	srli	a5,a5,0x10
   13f10:	00277613          	andi	a2,a4,2
   13f14:	0017e593          	ori	a1,a5,1
   13f18:	fc0600e3          	beqz	a2,13ed8 <eshup1+0x10>
   13f1c:	00171713          	slli	a4,a4,0x1
   13f20:	00b69023          	sh	a1,0(a3)
   13f24:	01071713          	slli	a4,a4,0x10
   13f28:	ffe68693          	addi	a3,a3,-2
   13f2c:	01075713          	srli	a4,a4,0x10
   13f30:	fcd510e3          	bne	a0,a3,13ef0 <eshup1+0x28>
   13f34:	00008067          	ret

00013f38 <m16m>:
   13f38:	fc010113          	addi	sp,sp,-64
   13f3c:	03312623          	sw	s3,44(sp)
   13f40:	000109b7          	lui	s3,0x10
   13f44:	02812c23          	sw	s0,56(sp)
   13f48:	02912a23          	sw	s1,52(sp)
   13f4c:	03212823          	sw	s2,48(sp)
   13f50:	03412423          	sw	s4,40(sp)
   13f54:	03512223          	sw	s5,36(sp)
   13f58:	02112e23          	sw	ra,60(sp)
   13f5c:	00050a13          	mv	s4,a0
   13f60:	00060493          	mv	s1,a2
   13f64:	00011d23          	sh	zero,26(sp)
   13f68:	00011e23          	sh	zero,28(sp)
   13f6c:	01858913          	addi	s2,a1,24
   13f70:	01c10413          	addi	s0,sp,28
   13f74:	00810a93          	addi	s5,sp,8
   13f78:	fff98993          	addi	s3,s3,-1 # ffff <register_fini-0x75>
   13f7c:	00095503          	lhu	a0,0(s2)
   13f80:	000a0593          	mv	a1,s4
   13f84:	ffe40413          	addi	s0,s0,-2
   13f88:	ffe90913          	addi	s2,s2,-2
   13f8c:	04051663          	bnez	a0,13fd8 <m16m+0xa0>
   13f90:	fe041f23          	sh	zero,-2(s0)
   13f94:	ff5414e3          	bne	s0,s5,13f7c <m16m+0x44>
   13f98:	00448613          	addi	a2,s1,4
   13f9c:	01e10713          	addi	a4,sp,30
   13fa0:	00045783          	lhu	a5,0(s0)
   13fa4:	00240413          	addi	s0,s0,2
   13fa8:	00260613          	addi	a2,a2,2
   13fac:	fef61f23          	sh	a5,-2(a2)
   13fb0:	fee418e3          	bne	s0,a4,13fa0 <m16m+0x68>
   13fb4:	03c12083          	lw	ra,60(sp)
   13fb8:	03812403          	lw	s0,56(sp)
   13fbc:	03412483          	lw	s1,52(sp)
   13fc0:	03012903          	lw	s2,48(sp)
   13fc4:	02c12983          	lw	s3,44(sp)
   13fc8:	02812a03          	lw	s4,40(sp)
   13fcc:	02412a83          	lw	s5,36(sp)
   13fd0:	04010113          	addi	sp,sp,64
   13fd4:	00008067          	ret
   13fd8:	64c100ef          	jal	ra,24624 <__mulsi3>
   13fdc:	00245783          	lhu	a5,2(s0)
   13fe0:	00045603          	lhu	a2,0(s0)
   13fe4:	01357733          	and	a4,a0,s3
   13fe8:	00f70733          	add	a4,a4,a5
   13fec:	01055793          	srli	a5,a0,0x10
   13ff0:	01075693          	srli	a3,a4,0x10
   13ff4:	00c787b3          	add	a5,a5,a2
   13ff8:	00d787b3          	add	a5,a5,a3
   13ffc:	0107d693          	srli	a3,a5,0x10
   14000:	00e41123          	sh	a4,2(s0)
   14004:	00f41023          	sh	a5,0(s0)
   14008:	fed41f23          	sh	a3,-2(s0)
   1400c:	f75418e3          	bne	s0,s5,13f7c <m16m+0x44>
   14010:	f89ff06f          	j	13f98 <m16m+0x60>

00014014 <eisnan.part.0>:
   14014:	01250713          	addi	a4,a0,18
   14018:	00055783          	lhu	a5,0(a0)
   1401c:	00250513          	addi	a0,a0,2
   14020:	00079863          	bnez	a5,14030 <eisnan.part.0+0x1c>
   14024:	fee51ae3          	bne	a0,a4,14018 <eisnan.part.0+0x4>
   14028:	00000513          	li	a0,0
   1402c:	00008067          	ret
   14030:	00100513          	li	a0,1
   14034:	00008067          	ret

00014038 <eneg>:
   14038:	ff010113          	addi	sp,sp,-16
   1403c:	00912223          	sw	s1,4(sp)
   14040:	01255483          	lhu	s1,18(a0)
   14044:	00812423          	sw	s0,8(sp)
   14048:	00112623          	sw	ra,12(sp)
   1404c:	fff4c793          	not	a5,s1
   14050:	01179713          	slli	a4,a5,0x11
   14054:	00050413          	mv	s0,a0
   14058:	00071663          	bnez	a4,14064 <eneg+0x2c>
   1405c:	fb9ff0ef          	jal	ra,14014 <eisnan.part.0>
   14060:	00051863          	bnez	a0,14070 <eneg+0x38>
   14064:	ffff87b7          	lui	a5,0xffff8
   14068:	00f4c4b3          	xor	s1,s1,a5
   1406c:	00941923          	sh	s1,18(s0)
   14070:	00c12083          	lw	ra,12(sp)
   14074:	00812403          	lw	s0,8(sp)
   14078:	00412483          	lw	s1,4(sp)
   1407c:	01010113          	addi	sp,sp,16
   14080:	00008067          	ret

00014084 <eisneg>:
   14084:	ff010113          	addi	sp,sp,-16
   14088:	00812423          	sw	s0,8(sp)
   1408c:	01255403          	lhu	s0,18(a0)
   14090:	00112623          	sw	ra,12(sp)
   14094:	fff44793          	not	a5,s0
   14098:	01179713          	slli	a4,a5,0x11
   1409c:	00071a63          	bnez	a4,140b0 <eisneg+0x2c>
   140a0:	f75ff0ef          	jal	ra,14014 <eisnan.part.0>
   140a4:	00050793          	mv	a5,a0
   140a8:	00000513          	li	a0,0
   140ac:	00079463          	bnez	a5,140b4 <eisneg+0x30>
   140b0:	00f45513          	srli	a0,s0,0xf
   140b4:	00c12083          	lw	ra,12(sp)
   140b8:	00812403          	lw	s0,8(sp)
   140bc:	01010113          	addi	sp,sp,16
   140c0:	00008067          	ret

000140c4 <emovi>:
   140c4:	01255783          	lhu	a5,18(a0)
   140c8:	fd010113          	addi	sp,sp,-48
   140cc:	02812423          	sw	s0,40(sp)
   140d0:	00f7d793          	srli	a5,a5,0xf
   140d4:	02912223          	sw	s1,36(sp)
   140d8:	02112623          	sw	ra,44(sp)
   140dc:	03212023          	sw	s2,32(sp)
   140e0:	01312e23          	sw	s3,28(sp)
   140e4:	40f007b3          	neg	a5,a5
   140e8:	00f59023          	sh	a5,0(a1)
   140ec:	01255783          	lhu	a5,18(a0)
   140f0:	00008737          	lui	a4,0x8
   140f4:	fff70713          	addi	a4,a4,-1 # 7fff <register_fini-0x8075>
   140f8:	00f777b3          	and	a5,a4,a5
   140fc:	00f59123          	sh	a5,2(a1)
   14100:	00050493          	mv	s1,a0
   14104:	01050413          	addi	s0,a0,16
   14108:	04e78263          	beq	a5,a4,1414c <emovi+0x88>
   1410c:	00658793          	addi	a5,a1,6
   14110:	00059223          	sh	zero,4(a1)
   14114:	ffe50513          	addi	a0,a0,-2
   14118:	00045703          	lhu	a4,0(s0)
   1411c:	ffe40413          	addi	s0,s0,-2
   14120:	00278793          	addi	a5,a5,2 # ffff8002 <__BSS_END__+0xfffd10d6>
   14124:	fee79f23          	sh	a4,-2(a5)
   14128:	fe8518e3          	bne	a0,s0,14118 <emovi+0x54>
   1412c:	00059c23          	sh	zero,24(a1)
   14130:	02c12083          	lw	ra,44(sp)
   14134:	02812403          	lw	s0,40(sp)
   14138:	02412483          	lw	s1,36(sp)
   1413c:	02012903          	lw	s2,32(sp)
   14140:	01c12983          	lw	s3,28(sp)
   14144:	03010113          	addi	sp,sp,48
   14148:	00008067          	ret
   1414c:	01255703          	lhu	a4,18(a0)
   14150:	00458913          	addi	s2,a1,4
   14154:	00e7f733          	and	a4,a5,a4
   14158:	02f71c63          	bne	a4,a5,14190 <emovi+0xcc>
   1415c:	00b12623          	sw	a1,12(sp)
   14160:	eb5ff0ef          	jal	ra,14014 <eisnan.part.0>
   14164:	00c12583          	lw	a1,12(sp)
   14168:	02050463          	beqz	a0,14190 <emovi+0xcc>
   1416c:	00658793          	addi	a5,a1,6
   14170:	00059223          	sh	zero,4(a1)
   14174:	ffc48513          	addi	a0,s1,-4
   14178:	00045703          	lhu	a4,0(s0)
   1417c:	ffe40413          	addi	s0,s0,-2
   14180:	00278793          	addi	a5,a5,2
   14184:	fee79f23          	sh	a4,-2(a5)
   14188:	fe8518e3          	bne	a0,s0,14178 <emovi+0xb4>
   1418c:	fa5ff06f          	j	14130 <emovi+0x6c>
   14190:	01a58993          	addi	s3,a1,26
   14194:	00290913          	addi	s2,s2,2
   14198:	fe091f23          	sh	zero,-2(s2)
   1419c:	ff299ce3          	bne	s3,s2,14194 <emovi+0xd0>
   141a0:	02c12083          	lw	ra,44(sp)
   141a4:	02812403          	lw	s0,40(sp)
   141a8:	02412483          	lw	s1,36(sp)
   141ac:	02012903          	lw	s2,32(sp)
   141b0:	01c12983          	lw	s3,28(sp)
   141b4:	03010113          	addi	sp,sp,48
   141b8:	00008067          	ret

000141bc <ecmp>:
   141bc:	01255783          	lhu	a5,18(a0)
   141c0:	fb010113          	addi	sp,sp,-80
   141c4:	04812423          	sw	s0,72(sp)
   141c8:	fff7c793          	not	a5,a5
   141cc:	04912223          	sw	s1,68(sp)
   141d0:	04112623          	sw	ra,76(sp)
   141d4:	01179713          	slli	a4,a5,0x11
   141d8:	00050493          	mv	s1,a0
   141dc:	00058413          	mv	s0,a1
   141e0:	00071663          	bnez	a4,141ec <ecmp+0x30>
   141e4:	e31ff0ef          	jal	ra,14014 <eisnan.part.0>
   141e8:	08051263          	bnez	a0,1426c <ecmp+0xb0>
   141ec:	01245783          	lhu	a5,18(s0)
   141f0:	fff7c793          	not	a5,a5
   141f4:	01179713          	slli	a4,a5,0x11
   141f8:	06070463          	beqz	a4,14260 <ecmp+0xa4>
   141fc:	00810593          	addi	a1,sp,8
   14200:	00048513          	mv	a0,s1
   14204:	ec1ff0ef          	jal	ra,140c4 <emovi>
   14208:	02410593          	addi	a1,sp,36
   1420c:	00040513          	mv	a0,s0
   14210:	eb5ff0ef          	jal	ra,140c4 <emovi>
   14214:	00815583          	lhu	a1,8(sp)
   14218:	02415503          	lhu	a0,36(sp)
   1421c:	04b50c63          	beq	a0,a1,14274 <ecmp+0xb8>
   14220:	00a10793          	addi	a5,sp,10
   14224:	02610713          	addi	a4,sp,38
   14228:	02010613          	addi	a2,sp,32
   1422c:	0007d683          	lhu	a3,0(a5)
   14230:	00278793          	addi	a5,a5,2
   14234:	08069a63          	bnez	a3,142c8 <ecmp+0x10c>
   14238:	00075683          	lhu	a3,0(a4)
   1423c:	00270713          	addi	a4,a4,2
   14240:	08069463          	bnez	a3,142c8 <ecmp+0x10c>
   14244:	fec794e3          	bne	a5,a2,1422c <ecmp+0x70>
   14248:	00000513          	li	a0,0
   1424c:	04c12083          	lw	ra,76(sp)
   14250:	04812403          	lw	s0,72(sp)
   14254:	04412483          	lw	s1,68(sp)
   14258:	05010113          	addi	sp,sp,80
   1425c:	00008067          	ret
   14260:	00040513          	mv	a0,s0
   14264:	db1ff0ef          	jal	ra,14014 <eisnan.part.0>
   14268:	f8050ae3          	beqz	a0,141fc <ecmp+0x40>
   1426c:	ffe00513          	li	a0,-2
   14270:	fddff06f          	j	1424c <ecmp+0x90>
   14274:	00153513          	seqz	a0,a0
   14278:	00a15603          	lhu	a2,10(sp)
   1427c:	02615683          	lhu	a3,38(sp)
   14280:	40a00533          	neg	a0,a0
   14284:	00a10713          	addi	a4,sp,10
   14288:	02610793          	addi	a5,sp,38
   1428c:	00257513          	andi	a0,a0,2
   14290:	fff50513          	addi	a0,a0,-1
   14294:	03c10593          	addi	a1,sp,60
   14298:	00278793          	addi	a5,a5,2
   1429c:	00270713          	addi	a4,a4,2
   142a0:	00d61e63          	bne	a2,a3,142bc <ecmp+0x100>
   142a4:	fab782e3          	beq	a5,a1,14248 <ecmp+0x8c>
   142a8:	00075603          	lhu	a2,0(a4)
   142ac:	0007d683          	lhu	a3,0(a5)
   142b0:	00270713          	addi	a4,a4,2
   142b4:	00278793          	addi	a5,a5,2
   142b8:	fed606e3          	beq	a2,a3,142a4 <ecmp+0xe8>
   142bc:	f8c6e8e3          	bltu	a3,a2,1424c <ecmp+0x90>
   142c0:	40a00533          	neg	a0,a0
   142c4:	f89ff06f          	j	1424c <ecmp+0x90>
   142c8:	00100513          	li	a0,1
   142cc:	f80580e3          	beqz	a1,1424c <ecmp+0x90>
   142d0:	fff00513          	li	a0,-1
   142d4:	f79ff06f          	j	1424c <ecmp+0x90>

000142d8 <eisinf.part.0>:
   142d8:	ff010113          	addi	sp,sp,-16
   142dc:	00112623          	sw	ra,12(sp)
   142e0:	d35ff0ef          	jal	ra,14014 <eisnan.part.0>
   142e4:	00c12083          	lw	ra,12(sp)
   142e8:	00153513          	seqz	a0,a0
   142ec:	01010113          	addi	sp,sp,16
   142f0:	00008067          	ret

000142f4 <eshift.part.0>:
   142f4:	fe010113          	addi	sp,sp,-32
   142f8:	00812c23          	sw	s0,24(sp)
   142fc:	00912a23          	sw	s1,20(sp)
   14300:	00112e23          	sw	ra,28(sp)
   14304:	01212823          	sw	s2,16(sp)
   14308:	01312623          	sw	s3,12(sp)
   1430c:	00058493          	mv	s1,a1
   14310:	00050413          	mv	s0,a0
   14314:	0a05c463          	bltz	a1,143bc <eshift.part.0+0xc8>
   14318:	00f00793          	li	a5,15
   1431c:	00058613          	mv	a2,a1
   14320:	00450513          	addi	a0,a0,4
   14324:	01840693          	addi	a3,s0,24
   14328:	00f00593          	li	a1,15
   1432c:	0297d463          	bge	a5,s1,14354 <eshift.part.0+0x60>
   14330:	00050793          	mv	a5,a0
   14334:	0027d703          	lhu	a4,2(a5)
   14338:	00278793          	addi	a5,a5,2
   1433c:	fee79f23          	sh	a4,-2(a5)
   14340:	fed79ae3          	bne	a5,a3,14334 <eshift.part.0+0x40>
   14344:	00041c23          	sh	zero,24(s0)
   14348:	ff060613          	addi	a2,a2,-16
   1434c:	fec5c2e3          	blt	a1,a2,14330 <eshift.part.0+0x3c>
   14350:	00f4f493          	andi	s1,s1,15
   14354:	00700793          	li	a5,7
   14358:	0297d863          	bge	a5,s1,14388 <eshift.part.0+0x94>
   1435c:	01840713          	addi	a4,s0,24
   14360:	00240593          	addi	a1,s0,2
   14364:	00000793          	li	a5,0
   14368:	00075683          	lhu	a3,0(a4)
   1436c:	ffe70713          	addi	a4,a4,-2
   14370:	00869613          	slli	a2,a3,0x8
   14374:	00c7e7b3          	or	a5,a5,a2
   14378:	00f71123          	sh	a5,2(a4)
   1437c:	0086d793          	srli	a5,a3,0x8
   14380:	feb714e3          	bne	a4,a1,14368 <eshift.part.0+0x74>
   14384:	ff848493          	addi	s1,s1,-8
   14388:	00048a63          	beqz	s1,1439c <eshift.part.0+0xa8>
   1438c:	fff48493          	addi	s1,s1,-1
   14390:	00040513          	mv	a0,s0
   14394:	b35ff0ef          	jal	ra,13ec8 <eshup1>
   14398:	fe049ae3          	bnez	s1,1438c <eshift.part.0+0x98>
   1439c:	00000513          	li	a0,0
   143a0:	01c12083          	lw	ra,28(sp)
   143a4:	01812403          	lw	s0,24(sp)
   143a8:	01412483          	lw	s1,20(sp)
   143ac:	01012903          	lw	s2,16(sp)
   143b0:	00c12983          	lw	s3,12(sp)
   143b4:	02010113          	addi	sp,sp,32
   143b8:	00008067          	ret
   143bc:	ff100793          	li	a5,-15
   143c0:	40b00933          	neg	s2,a1
   143c4:	12f5dc63          	bge	a1,a5,144fc <eshift.part.0+0x208>
   143c8:	01850593          	addi	a1,a0,24
   143cc:	00000993          	li	s3,0
   143d0:	00450693          	addi	a3,a0,4
   143d4:	00f00613          	li	a2,15
   143d8:	01845703          	lhu	a4,24(s0)
   143dc:	00058793          	mv	a5,a1
   143e0:	00e9e9b3          	or	s3,s3,a4
   143e4:	ffe7d703          	lhu	a4,-2(a5)
   143e8:	ffe78793          	addi	a5,a5,-2
   143ec:	00e79123          	sh	a4,2(a5)
   143f0:	fed79ae3          	bne	a5,a3,143e4 <eshift.part.0+0xf0>
   143f4:	00041223          	sh	zero,4(s0)
   143f8:	ff090913          	addi	s2,s2,-16
   143fc:	fd264ee3          	blt	a2,s2,143d8 <eshift.part.0+0xe4>
   14400:	ff000793          	li	a5,-16
   14404:	ff100713          	li	a4,-15
   14408:	409787b3          	sub	a5,a5,s1
   1440c:	00000913          	li	s2,0
   14410:	0ae4c463          	blt	s1,a4,144b8 <eshift.part.0+0x1c4>
   14414:	00f90933          	add	s2,s2,a5
   14418:	00700793          	li	a5,7
   1441c:	0527d663          	bge	a5,s2,14468 <eshift.part.0+0x174>
   14420:	01099993          	slli	s3,s3,0x10
   14424:	4109d993          	srai	s3,s3,0x10
   14428:	01844783          	lbu	a5,24(s0)
   1442c:	01a40593          	addi	a1,s0,26
   14430:	00f9e9b3          	or	s3,s3,a5
   14434:	01099993          	slli	s3,s3,0x10
   14438:	0109d993          	srli	s3,s3,0x10
   1443c:	00000793          	li	a5,0
   14440:	0006d603          	lhu	a2,0(a3)
   14444:	00268693          	addi	a3,a3,2
   14448:	00865713          	srli	a4,a2,0x8
   1444c:	00e7e733          	or	a4,a5,a4
   14450:	00861793          	slli	a5,a2,0x8
   14454:	01079793          	slli	a5,a5,0x10
   14458:	fee69f23          	sh	a4,-2(a3)
   1445c:	0107d793          	srli	a5,a5,0x10
   14460:	feb690e3          	bne	a3,a1,14440 <eshift.part.0+0x14c>
   14464:	ff890913          	addi	s2,s2,-8
   14468:	06090c63          	beqz	s2,144e0 <eshift.part.0+0x1ec>
   1446c:	01845783          	lhu	a5,24(s0)
   14470:	fff90913          	addi	s2,s2,-1
   14474:	00040513          	mv	a0,s0
   14478:	0017f793          	andi	a5,a5,1
   1447c:	0137e9b3          	or	s3,a5,s3
   14480:	9e1ff0ef          	jal	ra,13e60 <eshdn1>
   14484:	fe0914e3          	bnez	s2,1446c <eshift.part.0+0x178>
   14488:	01099793          	slli	a5,s3,0x10
   1448c:	4107d793          	srai	a5,a5,0x10
   14490:	04079063          	bnez	a5,144d0 <eshift.part.0+0x1dc>
   14494:	01099513          	slli	a0,s3,0x10
   14498:	01055513          	srli	a0,a0,0x10
   1449c:	01c12083          	lw	ra,28(sp)
   144a0:	01812403          	lw	s0,24(sp)
   144a4:	01412483          	lw	s1,20(sp)
   144a8:	01012903          	lw	s2,16(sp)
   144ac:	00c12983          	lw	s3,12(sp)
   144b0:	02010113          	addi	sp,sp,32
   144b4:	00008067          	ret
   144b8:	ff07f913          	andi	s2,a5,-16
   144bc:	41200933          	neg	s2,s2
   144c0:	00f90933          	add	s2,s2,a5
   144c4:	00700793          	li	a5,7
   144c8:	fb27d0e3          	bge	a5,s2,14468 <eshift.part.0+0x174>
   144cc:	f55ff06f          	j	14420 <eshift.part.0+0x12c>
   144d0:	00100993          	li	s3,1
   144d4:	01099513          	slli	a0,s3,0x10
   144d8:	01055513          	srli	a0,a0,0x10
   144dc:	fc1ff06f          	j	1449c <eshift.part.0+0x1a8>
   144e0:	00098513          	mv	a0,s3
   144e4:	00099863          	bnez	s3,144f4 <eshift.part.0+0x200>
   144e8:	01051513          	slli	a0,a0,0x10
   144ec:	01055513          	srli	a0,a0,0x10
   144f0:	eb1ff06f          	j	143a0 <eshift.part.0+0xac>
   144f4:	00100513          	li	a0,1
   144f8:	ff1ff06f          	j	144e8 <eshift.part.0+0x1f4>
   144fc:	ff900793          	li	a5,-7
   14500:	00000993          	li	s3,0
   14504:	f6f5d4e3          	bge	a1,a5,1446c <eshift.part.0+0x178>
   14508:	00440693          	addi	a3,s0,4
   1450c:	f1dff06f          	j	14428 <eshift.part.0+0x134>

00014510 <enormlz>:
   14510:	00455783          	lhu	a5,4(a0)
   14514:	ff010113          	addi	sp,sp,-16
   14518:	00912223          	sw	s1,4(sp)
   1451c:	00112623          	sw	ra,12(sp)
   14520:	00812423          	sw	s0,8(sp)
   14524:	01212023          	sw	s2,0(sp)
   14528:	00050493          	mv	s1,a0
   1452c:	0c079c63          	bnez	a5,14604 <enormlz+0xf4>
   14530:	00655703          	lhu	a4,6(a0)
   14534:	00000413          	li	s0,0
   14538:	01071793          	slli	a5,a4,0x10
   1453c:	4107d793          	srai	a5,a5,0x10
   14540:	0a07c463          	bltz	a5,145e8 <enormlz+0xd8>
   14544:	01a50693          	addi	a3,a0,26
   14548:	0a000613          	li	a2,160
   1454c:	02071863          	bnez	a4,1457c <enormlz+0x6c>
   14550:	00648793          	addi	a5,s1,6
   14554:	0080006f          	j	1455c <enormlz+0x4c>
   14558:	0007d703          	lhu	a4,0(a5)
   1455c:	00278793          	addi	a5,a5,2
   14560:	fee79e23          	sh	a4,-4(a5)
   14564:	fef69ae3          	bne	a3,a5,14558 <enormlz+0x48>
   14568:	00049c23          	sh	zero,24(s1)
   1456c:	01040413          	addi	s0,s0,16
   14570:	06c40c63          	beq	s0,a2,145e8 <enormlz+0xd8>
   14574:	0064d703          	lhu	a4,6(s1)
   14578:	fc070ce3          	beqz	a4,14550 <enormlz+0x40>
   1457c:	f0077793          	andi	a5,a4,-256
   14580:	04079063          	bnez	a5,145c0 <enormlz+0xb0>
   14584:	01848513          	addi	a0,s1,24
   14588:	00248593          	addi	a1,s1,2
   1458c:	00000793          	li	a5,0
   14590:	00050713          	mv	a4,a0
   14594:	00075683          	lhu	a3,0(a4)
   14598:	ffe70713          	addi	a4,a4,-2
   1459c:	00869613          	slli	a2,a3,0x8
   145a0:	00c7e7b3          	or	a5,a5,a2
   145a4:	00f71123          	sh	a5,2(a4)
   145a8:	0086d793          	srli	a5,a3,0x8
   145ac:	fee594e3          	bne	a1,a4,14594 <enormlz+0x84>
   145b0:	0064d703          	lhu	a4,6(s1)
   145b4:	00840413          	addi	s0,s0,8
   145b8:	f0077793          	andi	a5,a4,-256
   145bc:	fc0788e3          	beqz	a5,1458c <enormlz+0x7c>
   145c0:	0a000913          	li	s2,160
   145c4:	0140006f          	j	145d8 <enormlz+0xc8>
   145c8:	00140413          	addi	s0,s0,1
   145cc:	8fdff0ef          	jal	ra,13ec8 <eshup1>
   145d0:	00894c63          	blt	s2,s0,145e8 <enormlz+0xd8>
   145d4:	0064d703          	lhu	a4,6(s1)
   145d8:	01071713          	slli	a4,a4,0x10
   145dc:	41075713          	srai	a4,a4,0x10
   145e0:	00048513          	mv	a0,s1
   145e4:	fe0752e3          	bgez	a4,145c8 <enormlz+0xb8>
   145e8:	00c12083          	lw	ra,12(sp)
   145ec:	00040513          	mv	a0,s0
   145f0:	00812403          	lw	s0,8(sp)
   145f4:	00412483          	lw	s1,4(sp)
   145f8:	00012903          	lw	s2,0(sp)
   145fc:	01010113          	addi	sp,sp,16
   14600:	00008067          	ret
   14604:	f007f713          	andi	a4,a5,-256
   14608:	00000413          	li	s0,0
   1460c:	04071063          	bnez	a4,1464c <enormlz+0x13c>
   14610:	f6f00913          	li	s2,-145
   14614:	0140006f          	j	14628 <enormlz+0x118>
   14618:	fff40413          	addi	s0,s0,-1
   1461c:	845ff0ef          	jal	ra,13e60 <eshdn1>
   14620:	fd2404e3          	beq	s0,s2,145e8 <enormlz+0xd8>
   14624:	0044d783          	lhu	a5,4(s1)
   14628:	00048513          	mv	a0,s1
   1462c:	fe0796e3          	bnez	a5,14618 <enormlz+0x108>
   14630:	00c12083          	lw	ra,12(sp)
   14634:	00040513          	mv	a0,s0
   14638:	00812403          	lw	s0,8(sp)
   1463c:	00412483          	lw	s1,4(sp)
   14640:	00012903          	lw	s2,0(sp)
   14644:	01010113          	addi	sp,sp,16
   14648:	00008067          	ret
   1464c:	00450693          	addi	a3,a0,4
   14650:	01a50593          	addi	a1,a0,26
   14654:	00000713          	li	a4,0
   14658:	0080006f          	j	14660 <enormlz+0x150>
   1465c:	0006d783          	lhu	a5,0(a3)
   14660:	0087d613          	srli	a2,a5,0x8
   14664:	00c76733          	or	a4,a4,a2
   14668:	00879793          	slli	a5,a5,0x8
   1466c:	00e69023          	sh	a4,0(a3)
   14670:	01079713          	slli	a4,a5,0x10
   14674:	00268693          	addi	a3,a3,2
   14678:	01075713          	srli	a4,a4,0x10
   1467c:	feb690e3          	bne	a3,a1,1465c <enormlz+0x14c>
   14680:	0044d783          	lhu	a5,4(s1)
   14684:	ff800413          	li	s0,-8
   14688:	f89ff06f          	j	14610 <enormlz+0x100>

0001468c <emdnorm>:
   1468c:	fe010113          	addi	sp,sp,-32
   14690:	00812c23          	sw	s0,24(sp)
   14694:	00912a23          	sw	s1,20(sp)
   14698:	01212823          	sw	s2,16(sp)
   1469c:	01312623          	sw	s3,12(sp)
   146a0:	01412423          	sw	s4,8(sp)
   146a4:	01512223          	sw	s5,4(sp)
   146a8:	00068913          	mv	s2,a3
   146ac:	00078493          	mv	s1,a5
   146b0:	00112e23          	sw	ra,28(sp)
   146b4:	00050413          	mv	s0,a0
   146b8:	00058993          	mv	s3,a1
   146bc:	00060a13          	mv	s4,a2
   146c0:	00070a93          	mv	s5,a4
   146c4:	e4dff0ef          	jal	ra,14510 <enormlz>
   146c8:	09000793          	li	a5,144
   146cc:	40a90933          	sub	s2,s2,a0
   146d0:	16a7dc63          	bge	a5,a0,14848 <emdnorm+0x1bc>
   146d4:	000087b7          	lui	a5,0x8
   146d8:	ffe78793          	addi	a5,a5,-2 # 7ffe <register_fini-0x8076>
   146dc:	1f27da63          	bge	a5,s2,148d0 <emdnorm+0x244>
   146e0:	1c0a8463          	beqz	s5,148a8 <emdnorm+0x21c>
   146e4:	0044a503          	lw	a0,4(s1)
   146e8:	0004a783          	lw	a5,0(s1)
   146ec:	06f50a63          	beq	a0,a5,14760 <emdnorm+0xd4>
   146f0:	01a48713          	addi	a4,s1,26
   146f4:	03448793          	addi	a5,s1,52
   146f8:	00270713          	addi	a4,a4,2
   146fc:	fe071f23          	sh	zero,-2(a4)
   14700:	fef71ce3          	bne	a4,a5,146f8 <emdnorm+0x6c>
   14704:	03800793          	li	a5,56
   14708:	32f50c63          	beq	a0,a5,14a40 <emdnorm+0x3b4>
   1470c:	16a7d063          	bge	a5,a0,1486c <emdnorm+0x1e0>
   14710:	04000793          	li	a5,64
   14714:	2ef50c63          	beq	a0,a5,14a0c <emdnorm+0x380>
   14718:	07100793          	li	a5,113
   1471c:	34f51863          	bne	a0,a5,14a6c <emdnorm+0x3e0>
   14720:	400087b7          	lui	a5,0x40008
   14724:	fff78793          	addi	a5,a5,-1 # 40007fff <__BSS_END__+0x3ffe10d3>
   14728:	00a00713          	li	a4,10
   1472c:	00f4aa23          	sw	a5,20(s1)
   14730:	ffff87b7          	lui	a5,0xffff8
   14734:	00e4a423          	sw	a4,8(s1)
   14738:	00f49c23          	sh	a5,24(s1)
   1473c:	00e4a623          	sw	a4,12(s1)
   14740:	00a00793          	li	a5,10
   14744:	00008737          	lui	a4,0x8
   14748:	00878793          	addi	a5,a5,8 # ffff8008 <__BSS_END__+0xfffd10dc>
   1474c:	00179793          	slli	a5,a5,0x1
   14750:	00f487b3          	add	a5,s1,a5
   14754:	00e79523          	sh	a4,10(a5)
   14758:	00a4a023          	sw	a0,0(s1)
   1475c:	1b205863          	blez	s2,1490c <emdnorm+0x280>
   14760:	0084a583          	lw	a1,8(s1)
   14764:	0144d783          	lhu	a5,20(s1)
   14768:	08f00813          	li	a6,143
   1476c:	00159613          	slli	a2,a1,0x1
   14770:	00c40633          	add	a2,s0,a2
   14774:	00065703          	lhu	a4,0(a2)
   14778:	00f776b3          	and	a3,a4,a5
   1477c:	02a84a63          	blt	a6,a0,147b0 <emdnorm+0x124>
   14780:	00b00813          	li	a6,11
   14784:	02b84663          	blt	a6,a1,147b0 <emdnorm+0x124>
   14788:	00060793          	mv	a5,a2
   1478c:	01840593          	addi	a1,s0,24
   14790:	0027d703          	lhu	a4,2(a5)
   14794:	00070463          	beqz	a4,1479c <emdnorm+0x110>
   14798:	0016e693          	ori	a3,a3,1
   1479c:	00079123          	sh	zero,2(a5)
   147a0:	00278793          	addi	a5,a5,2
   147a4:	fef596e3          	bne	a1,a5,14790 <emdnorm+0x104>
   147a8:	00065703          	lhu	a4,0(a2)
   147ac:	0144d783          	lhu	a5,20(s1)
   147b0:	fff7c793          	not	a5,a5
   147b4:	00e7f7b3          	and	a5,a5,a4
   147b8:	00f61023          	sh	a5,0(a2)
   147bc:	0164d783          	lhu	a5,22(s1)
   147c0:	00d7f733          	and	a4,a5,a3
   147c4:	04070063          	beqz	a4,14804 <emdnorm+0x178>
   147c8:	1ad78463          	beq	a5,a3,14970 <emdnorm+0x2e4>
   147cc:	03248613          	addi	a2,s1,50
   147d0:	01840693          	addi	a3,s0,24
   147d4:	01c48493          	addi	s1,s1,28
   147d8:	00000713          	li	a4,0
   147dc:	00065783          	lhu	a5,0(a2)
   147e0:	0006d583          	lhu	a1,0(a3)
   147e4:	ffe68693          	addi	a3,a3,-2
   147e8:	ffe60613          	addi	a2,a2,-2
   147ec:	00b787b3          	add	a5,a5,a1
   147f0:	00e787b3          	add	a5,a5,a4
   147f4:	0107d713          	srli	a4,a5,0x10
   147f8:	00f69123          	sh	a5,2(a3)
   147fc:	00177713          	andi	a4,a4,1
   14800:	fc961ee3          	bne	a2,s1,147dc <emdnorm+0x150>
   14804:	19205863          	blez	s2,14994 <emdnorm+0x308>
   14808:	00445783          	lhu	a5,4(s0)
   1480c:	12079e63          	bnez	a5,14948 <emdnorm+0x2bc>
   14810:	000087b7          	lui	a5,0x8
   14814:	00041c23          	sh	zero,24(s0)
   14818:	ffe78793          	addi	a5,a5,-2 # 7ffe <register_fini-0x8076>
   1481c:	0927c863          	blt	a5,s2,148ac <emdnorm+0x220>
   14820:	01241123          	sh	s2,2(s0)
   14824:	01c12083          	lw	ra,28(sp)
   14828:	01812403          	lw	s0,24(sp)
   1482c:	01412483          	lw	s1,20(sp)
   14830:	01012903          	lw	s2,16(sp)
   14834:	00c12983          	lw	s3,12(sp)
   14838:	00812a03          	lw	s4,8(sp)
   1483c:	00412a83          	lw	s5,4(sp)
   14840:	02010113          	addi	sp,sp,32
   14844:	00008067          	ret
   14848:	0e095463          	bgez	s2,14930 <emdnorm+0x2a4>
   1484c:	f7000793          	li	a5,-144
   14850:	08f95c63          	bge	s2,a5,148e8 <emdnorm+0x25c>
   14854:	00240793          	addi	a5,s0,2
   14858:	01a40413          	addi	s0,s0,26
   1485c:	00278793          	addi	a5,a5,2
   14860:	fe079f23          	sh	zero,-2(a5)
   14864:	fe879ce3          	bne	a5,s0,1485c <emdnorm+0x1d0>
   14868:	fbdff06f          	j	14824 <emdnorm+0x198>
   1486c:	01800793          	li	a5,24
   14870:	16f50863          	beq	a0,a5,149e0 <emdnorm+0x354>
   14874:	03500793          	li	a5,53
   14878:	1ef51a63          	bne	a0,a5,14a6c <emdnorm+0x3e0>
   1487c:	00001737          	lui	a4,0x1
   14880:	040007b7          	lui	a5,0x4000
   14884:	00600693          	li	a3,6
   14888:	7ff78793          	addi	a5,a5,2047 # 40007ff <__BSS_END__+0x3fd98d3>
   1488c:	80070713          	addi	a4,a4,-2048 # 800 <register_fini-0xf874>
   14890:	00f4aa23          	sw	a5,20(s1)
   14894:	00d4a423          	sw	a3,8(s1)
   14898:	00e49c23          	sh	a4,24(s1)
   1489c:	00d4a623          	sw	a3,12(s1)
   148a0:	00600793          	li	a5,6
   148a4:	ea5ff06f          	j	14748 <emdnorm+0xbc>
   148a8:	00041c23          	sh	zero,24(s0)
   148ac:	ffff87b7          	lui	a5,0xffff8
   148b0:	fff7c793          	not	a5,a5
   148b4:	00f41123          	sh	a5,2(s0)
   148b8:	00440793          	addi	a5,s0,4
   148bc:	01840413          	addi	s0,s0,24
   148c0:	00079023          	sh	zero,0(a5) # ffff8000 <__BSS_END__+0xfffd10d4>
   148c4:	00278793          	addi	a5,a5,2
   148c8:	fef41ce3          	bne	s0,a5,148c0 <emdnorm+0x234>
   148cc:	f59ff06f          	j	14824 <emdnorm+0x198>
   148d0:	00240793          	addi	a5,s0,2
   148d4:	01a40413          	addi	s0,s0,26
   148d8:	00278793          	addi	a5,a5,2
   148dc:	fe079f23          	sh	zero,-2(a5)
   148e0:	fe879ce3          	bne	a5,s0,148d8 <emdnorm+0x24c>
   148e4:	f41ff06f          	j	14824 <emdnorm+0x198>
   148e8:	00090593          	mv	a1,s2
   148ec:	00040513          	mv	a0,s0
   148f0:	a05ff0ef          	jal	ra,142f4 <eshift.part.0>
   148f4:	00050463          	beqz	a0,148fc <emdnorm+0x270>
   148f8:	00100993          	li	s3,1
   148fc:	0c0a8c63          	beqz	s5,149d4 <emdnorm+0x348>
   14900:	0044a503          	lw	a0,4(s1)
   14904:	0004a783          	lw	a5,0(s1)
   14908:	def514e3          	bne	a0,a5,146f0 <emdnorm+0x64>
   1490c:	09000793          	li	a5,144
   14910:	0af50463          	beq	a0,a5,149b8 <emdnorm+0x32c>
   14914:	01845783          	lhu	a5,24(s0)
   14918:	00040513          	mv	a0,s0
   1491c:	0017f793          	andi	a5,a5,1
   14920:	00f9e9b3          	or	s3,s3,a5
   14924:	d3cff0ef          	jal	ra,13e60 <eshdn1>
   14928:	0044a503          	lw	a0,4(s1)
   1492c:	e35ff06f          	j	14760 <emdnorm+0xd4>
   14930:	ee0a80e3          	beqz	s5,14810 <emdnorm+0x184>
   14934:	0044a503          	lw	a0,4(s1)
   14938:	0004a783          	lw	a5,0(s1)
   1493c:	daf51ae3          	bne	a0,a5,146f0 <emdnorm+0x64>
   14940:	e32040e3          	bgtz	s2,14760 <emdnorm+0xd4>
   14944:	fc9ff06f          	j	1490c <emdnorm+0x280>
   14948:	00040513          	mv	a0,s0
   1494c:	d14ff0ef          	jal	ra,13e60 <eshdn1>
   14950:	000087b7          	lui	a5,0x8
   14954:	00190913          	addi	s2,s2,1
   14958:	00041c23          	sh	zero,24(s0)
   1495c:	ffe78793          	addi	a5,a5,-2 # 7ffe <register_fini-0x8076>
   14960:	f527c6e3          	blt	a5,s2,148ac <emdnorm+0x220>
   14964:	ea095ee3          	bgez	s2,14820 <emdnorm+0x194>
   14968:	00041123          	sh	zero,2(s0)
   1496c:	eb9ff06f          	j	14824 <emdnorm+0x198>
   14970:	0c099463          	bnez	s3,14a38 <emdnorm+0x3ac>
   14974:	00c4a783          	lw	a5,12(s1)
   14978:	0184d703          	lhu	a4,24(s1)
   1497c:	00179793          	slli	a5,a5,0x1
   14980:	00f407b3          	add	a5,s0,a5
   14984:	0007d783          	lhu	a5,0(a5)
   14988:	00e7f7b3          	and	a5,a5,a4
   1498c:	e40790e3          	bnez	a5,147cc <emdnorm+0x140>
   14990:	e7204ce3          	bgtz	s2,14808 <emdnorm+0x17c>
   14994:	09000793          	li	a5,144
   14998:	00f50663          	beq	a0,a5,149a4 <emdnorm+0x318>
   1499c:	00040513          	mv	a0,s0
   149a0:	d28ff0ef          	jal	ra,13ec8 <eshup1>
   149a4:	00445783          	lhu	a5,4(s0)
   149a8:	fa0790e3          	bnez	a5,14948 <emdnorm+0x2bc>
   149ac:	00041c23          	sh	zero,24(s0)
   149b0:	fa094ce3          	bltz	s2,14968 <emdnorm+0x2dc>
   149b4:	e6dff06f          	j	14820 <emdnorm+0x194>
   149b8:	0084a603          	lw	a2,8(s1)
   149bc:	0144d783          	lhu	a5,20(s1)
   149c0:	00161613          	slli	a2,a2,0x1
   149c4:	00c40633          	add	a2,s0,a2
   149c8:	00065703          	lhu	a4,0(a2)
   149cc:	00e7f6b3          	and	a3,a5,a4
   149d0:	de1ff06f          	j	147b0 <emdnorm+0x124>
   149d4:	00041c23          	sh	zero,24(s0)
   149d8:	00041123          	sh	zero,2(s0)
   149dc:	e49ff06f          	j	14824 <emdnorm+0x198>
   149e0:	008007b7          	lui	a5,0x800
   149e4:	0ff78793          	addi	a5,a5,255 # 8000ff <__BSS_END__+0x7d91d3>
   149e8:	00400713          	li	a4,4
   149ec:	00f4aa23          	sw	a5,20(s1)
   149f0:	10000793          	li	a5,256
   149f4:	00e4a423          	sw	a4,8(s1)
   149f8:	00f49c23          	sh	a5,24(s1)
   149fc:	00e4a623          	sw	a4,12(s1)
   14a00:	00400793          	li	a5,4
   14a04:	10000713          	li	a4,256
   14a08:	d41ff06f          	j	14748 <emdnorm+0xbc>
   14a0c:	00700793          	li	a5,7
   14a10:	00f4a423          	sw	a5,8(s1)
   14a14:	800107b7          	lui	a5,0x80010
   14a18:	fff78793          	addi	a5,a5,-1 # 8000ffff <__BSS_END__+0x7ffe90d3>
   14a1c:	00f4aa23          	sw	a5,20(s1)
   14a20:	00100793          	li	a5,1
   14a24:	00f49c23          	sh	a5,24(s1)
   14a28:	00600793          	li	a5,6
   14a2c:	00f4a623          	sw	a5,12(s1)
   14a30:	00100713          	li	a4,1
   14a34:	d15ff06f          	j	14748 <emdnorm+0xbc>
   14a38:	d80a0ae3          	beqz	s4,147cc <emdnorm+0x140>
   14a3c:	dc9ff06f          	j	14804 <emdnorm+0x178>
   14a40:	008007b7          	lui	a5,0x800
   14a44:	0ff78793          	addi	a5,a5,255 # 8000ff <__BSS_END__+0x7d91d3>
   14a48:	00600713          	li	a4,6
   14a4c:	00f4aa23          	sw	a5,20(s1)
   14a50:	10000793          	li	a5,256
   14a54:	00e4a423          	sw	a4,8(s1)
   14a58:	00f49c23          	sh	a5,24(s1)
   14a5c:	00e4a623          	sw	a4,12(s1)
   14a60:	00600793          	li	a5,6
   14a64:	10000713          	li	a4,256
   14a68:	ce1ff06f          	j	14748 <emdnorm+0xbc>
   14a6c:	00c00793          	li	a5,12
   14a70:	00f4a423          	sw	a5,8(s1)
   14a74:	800107b7          	lui	a5,0x80010
   14a78:	fff78793          	addi	a5,a5,-1 # 8000ffff <__BSS_END__+0x7ffe90d3>
   14a7c:	00f4aa23          	sw	a5,20(s1)
   14a80:	00100793          	li	a5,1
   14a84:	00f49c23          	sh	a5,24(s1)
   14a88:	00b00793          	li	a5,11
   14a8c:	00f4a623          	sw	a5,12(s1)
   14a90:	00100713          	li	a4,1
   14a94:	cb5ff06f          	j	14748 <emdnorm+0xbc>

00014a98 <eiremain>:
   14a98:	fd010113          	addi	sp,sp,-48
   14a9c:	02912223          	sw	s1,36(sp)
   14aa0:	01312e23          	sw	s3,28(sp)
   14aa4:	00058493          	mv	s1,a1
   14aa8:	00255983          	lhu	s3,2(a0)
   14aac:	02112623          	sw	ra,44(sp)
   14ab0:	02812423          	sw	s0,40(sp)
   14ab4:	03212023          	sw	s2,32(sp)
   14ab8:	01412c23          	sw	s4,24(sp)
   14abc:	00060913          	mv	s2,a2
   14ac0:	01512a23          	sw	s5,20(sp)
   14ac4:	01612823          	sw	s6,16(sp)
   14ac8:	01712623          	sw	s7,12(sp)
   14acc:	01812423          	sw	s8,8(sp)
   14ad0:	01912223          	sw	s9,4(sp)
   14ad4:	01a12023          	sw	s10,0(sp)
   14ad8:	00050a13          	mv	s4,a0
   14adc:	a35ff0ef          	jal	ra,14510 <enormlz>
   14ae0:	0024d403          	lhu	s0,2(s1)
   14ae4:	00050793          	mv	a5,a0
   14ae8:	00048513          	mv	a0,s1
   14aec:	40f989b3          	sub	s3,s3,a5
   14af0:	03490a93          	addi	s5,s2,52
   14af4:	a1dff0ef          	jal	ra,14510 <enormlz>
   14af8:	40a40433          	sub	s0,s0,a0
   14afc:	04e90713          	addi	a4,s2,78
   14b00:	000a8793          	mv	a5,s5
   14b04:	00278793          	addi	a5,a5,2
   14b08:	fe079f23          	sh	zero,-2(a5)
   14b0c:	fee79ce3          	bne	a5,a4,14b04 <eiremain+0x6c>
   14b10:	09344a63          	blt	s0,s3,14ba4 <eiremain+0x10c>
   14b14:	004a0b93          	addi	s7,s4,4
   14b18:	00448b13          	addi	s6,s1,4
   14b1c:	fff98993          	addi	s3,s3,-1
   14b20:	01aa0c93          	addi	s9,s4,26
   14b24:	00248c13          	addi	s8,s1,2
   14b28:	000b0713          	mv	a4,s6
   14b2c:	000b8793          	mv	a5,s7
   14b30:	0007d603          	lhu	a2,0(a5)
   14b34:	00075683          	lhu	a3,0(a4)
   14b38:	00278793          	addi	a5,a5,2
   14b3c:	00270713          	addi	a4,a4,2
   14b40:	0ad61a63          	bne	a2,a3,14bf4 <eiremain+0x15c>
   14b44:	ff9796e3          	bne	a5,s9,14b30 <eiremain+0x98>
   14b48:	018a0613          	addi	a2,s4,24
   14b4c:	01848713          	addi	a4,s1,24
   14b50:	00000693          	li	a3,0
   14b54:	00075783          	lhu	a5,0(a4)
   14b58:	00065583          	lhu	a1,0(a2)
   14b5c:	ffe70713          	addi	a4,a4,-2
   14b60:	40d787b3          	sub	a5,a5,a3
   14b64:	40b787b3          	sub	a5,a5,a1
   14b68:	0107d693          	srli	a3,a5,0x10
   14b6c:	00f71123          	sh	a5,2(a4)
   14b70:	0016f693          	andi	a3,a3,1
   14b74:	ffe60613          	addi	a2,a2,-2
   14b78:	fcec1ee3          	bne	s8,a4,14b54 <eiremain+0xbc>
   14b7c:	00100d13          	li	s10,1
   14b80:	000a8513          	mv	a0,s5
   14b84:	b44ff0ef          	jal	ra,13ec8 <eshup1>
   14b88:	04c95783          	lhu	a5,76(s2)
   14b8c:	fff40413          	addi	s0,s0,-1
   14b90:	00048513          	mv	a0,s1
   14b94:	00fd6d33          	or	s10,s10,a5
   14b98:	05a91623          	sh	s10,76(s2)
   14b9c:	b2cff0ef          	jal	ra,13ec8 <eshup1>
   14ba0:	f93414e3          	bne	s0,s3,14b28 <eiremain+0x90>
   14ba4:	00040693          	mv	a3,s0
   14ba8:	02812403          	lw	s0,40(sp)
   14bac:	02c12083          	lw	ra,44(sp)
   14bb0:	01c12983          	lw	s3,28(sp)
   14bb4:	01812a03          	lw	s4,24(sp)
   14bb8:	01412a83          	lw	s5,20(sp)
   14bbc:	01012b03          	lw	s6,16(sp)
   14bc0:	00c12b83          	lw	s7,12(sp)
   14bc4:	00812c03          	lw	s8,8(sp)
   14bc8:	00412c83          	lw	s9,4(sp)
   14bcc:	00012d03          	lw	s10,0(sp)
   14bd0:	00090793          	mv	a5,s2
   14bd4:	00048513          	mv	a0,s1
   14bd8:	02012903          	lw	s2,32(sp)
   14bdc:	02412483          	lw	s1,36(sp)
   14be0:	00000713          	li	a4,0
   14be4:	00000613          	li	a2,0
   14be8:	00000593          	li	a1,0
   14bec:	03010113          	addi	sp,sp,48
   14bf0:	a9dff06f          	j	1468c <emdnorm>
   14bf4:	00000d13          	li	s10,0
   14bf8:	f8c6e4e3          	bltu	a3,a2,14b80 <eiremain+0xe8>
   14bfc:	f4dff06f          	j	14b48 <eiremain+0xb0>

00014c00 <emovo.isra.0>:
   14c00:	00055703          	lhu	a4,0(a0)
   14c04:	00255783          	lhu	a5,2(a0)
   14c08:	00070663          	beqz	a4,14c14 <emovo.isra.0+0x14>
   14c0c:	00008737          	lui	a4,0x8
   14c10:	00e7e7b3          	or	a5,a5,a4
   14c14:	00f59923          	sh	a5,18(a1)
   14c18:	00255703          	lhu	a4,2(a0)
   14c1c:	000087b7          	lui	a5,0x8
   14c20:	fff78793          	addi	a5,a5,-1 # 7fff <register_fini-0x8075>
   14c24:	02f70463          	beq	a4,a5,14c4c <emovo.isra.0+0x4c>
   14c28:	00650793          	addi	a5,a0,6
   14c2c:	01058593          	addi	a1,a1,16
   14c30:	01850513          	addi	a0,a0,24
   14c34:	0007d703          	lhu	a4,0(a5)
   14c38:	00278793          	addi	a5,a5,2
   14c3c:	ffe58593          	addi	a1,a1,-2
   14c40:	00e59123          	sh	a4,2(a1)
   14c44:	fea798e3          	bne	a5,a0,14c34 <emovo.isra.0+0x34>
   14c48:	00008067          	ret
   14c4c:	00650793          	addi	a5,a0,6
   14c50:	01a50513          	addi	a0,a0,26
   14c54:	0007d703          	lhu	a4,0(a5)
   14c58:	00278793          	addi	a5,a5,2
   14c5c:	02071a63          	bnez	a4,14c90 <emovo.isra.0+0x90>
   14c60:	fea79ae3          	bne	a5,a0,14c54 <emovo.isra.0+0x54>
   14c64:	01258713          	addi	a4,a1,18
   14c68:	00058793          	mv	a5,a1
   14c6c:	00278793          	addi	a5,a5,2
   14c70:	fe079f23          	sh	zero,-2(a5)
   14c74:	fef71ce3          	bne	a4,a5,14c6c <emovo.isra.0+0x6c>
   14c78:	0125d783          	lhu	a5,18(a1)
   14c7c:	00008737          	lui	a4,0x8
   14c80:	fff70713          	addi	a4,a4,-1 # 7fff <register_fini-0x8075>
   14c84:	00e7e7b3          	or	a5,a5,a4
   14c88:	00f59923          	sh	a5,18(a1)
   14c8c:	00008067          	ret
   14c90:	01058713          	addi	a4,a1,16
   14c94:	00058793          	mv	a5,a1
   14c98:	00278793          	addi	a5,a5,2
   14c9c:	fe079f23          	sh	zero,-2(a5)
   14ca0:	fef71ce3          	bne	a4,a5,14c98 <emovo.isra.0+0x98>
   14ca4:	7fffc7b7          	lui	a5,0x7fffc
   14ca8:	00f5a823          	sw	a5,16(a1)
   14cac:	00008067          	ret

00014cb0 <emul>:
   14cb0:	f7010113          	addi	sp,sp,-144
   14cb4:	07612823          	sw	s6,112(sp)
   14cb8:	01255b03          	lhu	s6,18(a0)
   14cbc:	000087b7          	lui	a5,0x8
   14cc0:	fff78793          	addi	a5,a5,-1 # 7fff <register_fini-0x8075>
   14cc4:	07412c23          	sw	s4,120(sp)
   14cc8:	0167fa33          	and	s4,a5,s6
   14ccc:	010a1a13          	slli	s4,s4,0x10
   14cd0:	08812423          	sw	s0,136(sp)
   14cd4:	08912223          	sw	s1,132(sp)
   14cd8:	09212023          	sw	s2,128(sp)
   14cdc:	07312e23          	sw	s3,124(sp)
   14ce0:	08112623          	sw	ra,140(sp)
   14ce4:	07512a23          	sw	s5,116(sp)
   14ce8:	07712623          	sw	s7,108(sp)
   14cec:	07812423          	sw	s8,104(sp)
   14cf0:	07912223          	sw	s9,100(sp)
   14cf4:	010a5a13          	srli	s4,s4,0x10
   14cf8:	00050493          	mv	s1,a0
   14cfc:	00058913          	mv	s2,a1
   14d00:	00060413          	mv	s0,a2
   14d04:	00068993          	mv	s3,a3
   14d08:	10fa1263          	bne	s4,a5,14e0c <emul+0x15c>
   14d0c:	b08ff0ef          	jal	ra,14014 <eisnan.part.0>
   14d10:	28051a63          	bnez	a0,14fa4 <emul+0x2f4>
   14d14:	01295a83          	lhu	s5,18(s2)
   14d18:	015a77b3          	and	a5,s4,s5
   14d1c:	2b478263          	beq	a5,s4,14fc0 <emul+0x310>
   14d20:	00048513          	mv	a0,s1
   14d24:	db4ff0ef          	jal	ra,142d8 <eisinf.part.0>
   14d28:	2e050e63          	beqz	a0,15024 <emul+0x374>
   14d2c:	000255b7          	lui	a1,0x25
   14d30:	94c58593          	addi	a1,a1,-1716 # 2494c <ezero>
   14d34:	00090513          	mv	a0,s2
   14d38:	c84ff0ef          	jal	ra,141bc <ecmp>
   14d3c:	36050663          	beqz	a0,150a8 <emul+0x3f8>
   14d40:	01295a83          	lhu	s5,18(s2)
   14d44:	000087b7          	lui	a5,0x8
   14d48:	fff78793          	addi	a5,a5,-1 # 7fff <register_fini-0x8075>
   14d4c:	0157fab3          	and	s5,a5,s5
   14d50:	010a9a93          	slli	s5,s5,0x10
   14d54:	010ada93          	srli	s5,s5,0x10
   14d58:	2cfa9463          	bne	s5,a5,15020 <emul+0x370>
   14d5c:	00090513          	mv	a0,s2
   14d60:	d78ff0ef          	jal	ra,142d8 <eisinf.part.0>
   14d64:	32051063          	bnez	a0,15084 <emul+0x3d4>
   14d68:	0124d783          	lhu	a5,18(s1)
   14d6c:	00faf7b3          	and	a5,s5,a5
   14d70:	0b579863          	bne	a5,s5,14e20 <emul+0x170>
   14d74:	00048513          	mv	a0,s1
   14d78:	d60ff0ef          	jal	ra,142d8 <eisinf.part.0>
   14d7c:	00051863          	bnez	a0,14d8c <emul+0xdc>
   14d80:	00090513          	mv	a0,s2
   14d84:	d54ff0ef          	jal	ra,142d8 <eisinf.part.0>
   14d88:	08050c63          	beqz	a0,14e20 <emul+0x170>
   14d8c:	00048513          	mv	a0,s1
   14d90:	af4ff0ef          	jal	ra,14084 <eisneg>
   14d94:	00050493          	mv	s1,a0
   14d98:	00090513          	mv	a0,s2
   14d9c:	ae8ff0ef          	jal	ra,14084 <eisneg>
   14da0:	40a484b3          	sub	s1,s1,a0
   14da4:	009034b3          	snez	s1,s1
   14da8:	00f49493          	slli	s1,s1,0xf
   14dac:	00941923          	sh	s1,18(s0)
   14db0:	01240713          	addi	a4,s0,18
   14db4:	00040793          	mv	a5,s0
   14db8:	00278793          	addi	a5,a5,2
   14dbc:	fe079f23          	sh	zero,-2(a5)
   14dc0:	fef71ce3          	bne	a4,a5,14db8 <emul+0x108>
   14dc4:	01245783          	lhu	a5,18(s0)
   14dc8:	00008737          	lui	a4,0x8
   14dcc:	fff70713          	addi	a4,a4,-1 # 7fff <register_fini-0x8075>
   14dd0:	00e7e7b3          	or	a5,a5,a4
   14dd4:	00f41923          	sh	a5,18(s0)
   14dd8:	08c12083          	lw	ra,140(sp)
   14ddc:	08812403          	lw	s0,136(sp)
   14de0:	08412483          	lw	s1,132(sp)
   14de4:	08012903          	lw	s2,128(sp)
   14de8:	07c12983          	lw	s3,124(sp)
   14dec:	07812a03          	lw	s4,120(sp)
   14df0:	07412a83          	lw	s5,116(sp)
   14df4:	07012b03          	lw	s6,112(sp)
   14df8:	06c12b83          	lw	s7,108(sp)
   14dfc:	06812c03          	lw	s8,104(sp)
   14e00:	06412c83          	lw	s9,100(sp)
   14e04:	09010113          	addi	sp,sp,144
   14e08:	00008067          	ret
   14e0c:	0125da83          	lhu	s5,18(a1)
   14e10:	0157f733          	and	a4,a5,s5
   14e14:	01071713          	slli	a4,a4,0x10
   14e18:	01075713          	srli	a4,a4,0x10
   14e1c:	04f70a63          	beq	a4,a5,14e70 <emul+0x1c0>
   14e20:	00048513          	mv	a0,s1
   14e24:	00c10593          	addi	a1,sp,12
   14e28:	a9cff0ef          	jal	ra,140c4 <emovi>
   14e2c:	00090513          	mv	a0,s2
   14e30:	02810593          	addi	a1,sp,40
   14e34:	a90ff0ef          	jal	ra,140c4 <emovi>
   14e38:	00e15483          	lhu	s1,14(sp)
   14e3c:	02a15903          	lhu	s2,42(sp)
   14e40:	04049c63          	bnez	s1,14e98 <emul+0x1e8>
   14e44:	01010793          	addi	a5,sp,16
   14e48:	02410693          	addi	a3,sp,36
   14e4c:	20d78863          	beq	a5,a3,1505c <emul+0x3ac>
   14e50:	0007d703          	lhu	a4,0(a5)
   14e54:	00278793          	addi	a5,a5,2
   14e58:	fe070ae3          	beqz	a4,14e4c <emul+0x19c>
   14e5c:	00c10513          	addi	a0,sp,12
   14e60:	eb0ff0ef          	jal	ra,14510 <enormlz>
   14e64:	02a15703          	lhu	a4,42(sp)
   14e68:	40a004b3          	neg	s1,a0
   14e6c:	0300006f          	j	14e9c <emul+0x1ec>
   14e70:	00058513          	mv	a0,a1
   14e74:	9a0ff0ef          	jal	ra,14014 <eisnan.part.0>
   14e78:	ec0506e3          	beqz	a0,14d44 <emul+0x94>
   14e7c:	01490713          	addi	a4,s2,20
   14e80:	00095783          	lhu	a5,0(s2)
   14e84:	00290913          	addi	s2,s2,2
   14e88:	00240413          	addi	s0,s0,2
   14e8c:	fef41f23          	sh	a5,-2(s0)
   14e90:	fee918e3          	bne	s2,a4,14e80 <emul+0x1d0>
   14e94:	f45ff06f          	j	14dd8 <emul+0x128>
   14e98:	00090713          	mv	a4,s2
   14e9c:	00090a93          	mv	s5,s2
   14ea0:	02c10793          	addi	a5,sp,44
   14ea4:	04010693          	addi	a3,sp,64
   14ea8:	02071263          	bnez	a4,14ecc <emul+0x21c>
   14eac:	1cf68263          	beq	a3,a5,15070 <emul+0x3c0>
   14eb0:	0007d703          	lhu	a4,0(a5)
   14eb4:	00278793          	addi	a5,a5,2
   14eb8:	fe070ae3          	beqz	a4,14eac <emul+0x1fc>
   14ebc:	02810513          	addi	a0,sp,40
   14ec0:	e50ff0ef          	jal	ra,14510 <enormlz>
   14ec4:	02a15703          	lhu	a4,42(sp)
   14ec8:	40a90ab3          	sub	s5,s2,a0
   14ecc:	02815783          	lhu	a5,40(sp)
   14ed0:	03898c13          	addi	s8,s3,56
   14ed4:	02e99b23          	sh	a4,54(s3)
   14ed8:	02f99a23          	sh	a5,52(s3)
   14edc:	04e98713          	addi	a4,s3,78
   14ee0:	000c0793          	mv	a5,s8
   14ee4:	00079023          	sh	zero,0(a5)
   14ee8:	00278793          	addi	a5,a5,2
   14eec:	fef71ce3          	bne	a4,a5,14ee4 <emul+0x234>
   14ef0:	04c98a13          	addi	s4,s3,76
   14ef4:	00000b93          	li	s7,0
   14ef8:	02410913          	addi	s2,sp,36
   14efc:	01010c93          	addi	s9,sp,16
   14f00:	04610b13          	addi	s6,sp,70
   14f04:	00095503          	lhu	a0,0(s2)
   14f08:	ffe90913          	addi	s2,s2,-2
   14f0c:	0c051863          	bnez	a0,14fdc <emul+0x32c>
   14f10:	04c9d703          	lhu	a4,76(s3)
   14f14:	000a0793          	mv	a5,s4
   14f18:	00ebebb3          	or	s7,s7,a4
   14f1c:	ffe7d703          	lhu	a4,-2(a5)
   14f20:	ffe78793          	addi	a5,a5,-2
   14f24:	00e79123          	sh	a4,2(a5)
   14f28:	ff879ae3          	bne	a5,s8,14f1c <emul+0x26c>
   14f2c:	02099c23          	sh	zero,56(s3)
   14f30:	fd991ae3          	bne	s2,s9,14f04 <emul+0x254>
   14f34:	03498713          	addi	a4,s3,52
   14f38:	02810793          	addi	a5,sp,40
   14f3c:	04210593          	addi	a1,sp,66
   14f40:	00075603          	lhu	a2,0(a4)
   14f44:	00278793          	addi	a5,a5,2
   14f48:	00270713          	addi	a4,a4,2
   14f4c:	fec79f23          	sh	a2,-2(a5)
   14f50:	fef598e3          	bne	a1,a5,14f40 <emul+0x290>
   14f54:	ffffc6b7          	lui	a3,0xffffc
   14f58:	015484b3          	add	s1,s1,s5
   14f5c:	00268693          	addi	a3,a3,2 # ffffc002 <__BSS_END__+0xfffd50d6>
   14f60:	000b8593          	mv	a1,s7
   14f64:	02810513          	addi	a0,sp,40
   14f68:	00098793          	mv	a5,s3
   14f6c:	04000713          	li	a4,64
   14f70:	00d486b3          	add	a3,s1,a3
   14f74:	00000613          	li	a2,0
   14f78:	f14ff0ef          	jal	ra,1468c <emdnorm>
   14f7c:	02815703          	lhu	a4,40(sp)
   14f80:	00c15783          	lhu	a5,12(sp)
   14f84:	00040593          	mv	a1,s0
   14f88:	02810513          	addi	a0,sp,40
   14f8c:	40e787b3          	sub	a5,a5,a4
   14f90:	00f037b3          	snez	a5,a5
   14f94:	40f007b3          	neg	a5,a5
   14f98:	02f11423          	sh	a5,40(sp)
   14f9c:	c65ff0ef          	jal	ra,14c00 <emovo.isra.0>
   14fa0:	e39ff06f          	j	14dd8 <emul+0x128>
   14fa4:	01448713          	addi	a4,s1,20
   14fa8:	0004d783          	lhu	a5,0(s1)
   14fac:	00248493          	addi	s1,s1,2
   14fb0:	00240413          	addi	s0,s0,2
   14fb4:	fef41f23          	sh	a5,-2(s0)
   14fb8:	fee498e3          	bne	s1,a4,14fa8 <emul+0x2f8>
   14fbc:	e1dff06f          	j	14dd8 <emul+0x128>
   14fc0:	00090513          	mv	a0,s2
   14fc4:	850ff0ef          	jal	ra,14014 <eisnan.part.0>
   14fc8:	ea051ae3          	bnez	a0,14e7c <emul+0x1cc>
   14fcc:	00048513          	mv	a0,s1
   14fd0:	b08ff0ef          	jal	ra,142d8 <eisinf.part.0>
   14fd4:	d60508e3          	beqz	a0,14d44 <emul+0x94>
   14fd8:	d55ff06f          	j	14d2c <emul+0x7c>
   14fdc:	04410613          	addi	a2,sp,68
   14fe0:	02810593          	addi	a1,sp,40
   14fe4:	f55fe0ef          	jal	ra,13f38 <m16m>
   14fe8:	000a0593          	mv	a1,s4
   14fec:	00000613          	li	a2,0
   14ff0:	05c10713          	addi	a4,sp,92
   14ff4:	0005d803          	lhu	a6,0(a1)
   14ff8:	00075783          	lhu	a5,0(a4)
   14ffc:	ffe58593          	addi	a1,a1,-2
   15000:	ffe70713          	addi	a4,a4,-2
   15004:	010787b3          	add	a5,a5,a6
   15008:	00c787b3          	add	a5,a5,a2
   1500c:	0107d613          	srli	a2,a5,0x10
   15010:	00f59123          	sh	a5,2(a1)
   15014:	00167613          	andi	a2,a2,1
   15018:	fd671ee3          	bne	a4,s6,14ff4 <emul+0x344>
   1501c:	ef5ff06f          	j	14f10 <emul+0x260>
   15020:	0124db03          	lhu	s6,18(s1)
   15024:	000087b7          	lui	a5,0x8
   15028:	fff78793          	addi	a5,a5,-1 # 7fff <register_fini-0x8075>
   1502c:	0167fb33          	and	s6,a5,s6
   15030:	010b1b13          	slli	s6,s6,0x10
   15034:	010b5b13          	srli	s6,s6,0x10
   15038:	defb14e3          	bne	s6,a5,14e20 <emul+0x170>
   1503c:	00048513          	mv	a0,s1
   15040:	a98ff0ef          	jal	ra,142d8 <eisinf.part.0>
   15044:	d40514e3          	bnez	a0,14d8c <emul+0xdc>
   15048:	01295783          	lhu	a5,18(s2)
   1504c:	fff7c793          	not	a5,a5
   15050:	01179713          	slli	a4,a5,0x11
   15054:	dc0716e3          	bnez	a4,14e20 <emul+0x170>
   15058:	d29ff06f          	j	14d80 <emul+0xd0>
   1505c:	01440793          	addi	a5,s0,20
   15060:	00240413          	addi	s0,s0,2
   15064:	fe041f23          	sh	zero,-2(s0)
   15068:	fe879ce3          	bne	a5,s0,15060 <emul+0x3b0>
   1506c:	d6dff06f          	j	14dd8 <emul+0x128>
   15070:	01440793          	addi	a5,s0,20
   15074:	00240413          	addi	s0,s0,2
   15078:	fe041f23          	sh	zero,-2(s0)
   1507c:	fef41ce3          	bne	s0,a5,15074 <emul+0x3c4>
   15080:	d59ff06f          	j	14dd8 <emul+0x128>
   15084:	000255b7          	lui	a1,0x25
   15088:	94c58593          	addi	a1,a1,-1716 # 2494c <ezero>
   1508c:	00048513          	mv	a0,s1
   15090:	92cff0ef          	jal	ra,141bc <ecmp>
   15094:	00050a63          	beqz	a0,150a8 <emul+0x3f8>
   15098:	0124d783          	lhu	a5,18(s1)
   1509c:	00faf7b3          	and	a5,s5,a5
   150a0:	f9578ee3          	beq	a5,s5,1503c <emul+0x38c>
   150a4:	fa5ff06f          	j	15048 <emul+0x398>
   150a8:	01040713          	addi	a4,s0,16
   150ac:	00040793          	mv	a5,s0
   150b0:	00278793          	addi	a5,a5,2
   150b4:	fe079f23          	sh	zero,-2(a5)
   150b8:	fee79ce3          	bne	a5,a4,150b0 <emul+0x400>
   150bc:	7fffc7b7          	lui	a5,0x7fffc
   150c0:	00f42823          	sw	a5,16(s0)
   150c4:	d15ff06f          	j	14dd8 <emul+0x128>

000150c8 <ediv>:
   150c8:	01255783          	lhu	a5,18(a0)
   150cc:	f5010113          	addi	sp,sp,-176
   150d0:	0a812423          	sw	s0,168(sp)
   150d4:	fff7c793          	not	a5,a5
   150d8:	0a912223          	sw	s1,164(sp)
   150dc:	0b212023          	sw	s2,160(sp)
   150e0:	09312e23          	sw	s3,156(sp)
   150e4:	0a112623          	sw	ra,172(sp)
   150e8:	09412c23          	sw	s4,152(sp)
   150ec:	09512a23          	sw	s5,148(sp)
   150f0:	09612823          	sw	s6,144(sp)
   150f4:	09712623          	sw	s7,140(sp)
   150f8:	09812423          	sw	s8,136(sp)
   150fc:	09912223          	sw	s9,132(sp)
   15100:	09a12023          	sw	s10,128(sp)
   15104:	07b12e23          	sw	s11,124(sp)
   15108:	01179713          	slli	a4,a5,0x11
   1510c:	00050493          	mv	s1,a0
   15110:	00058913          	mv	s2,a1
   15114:	00060413          	mv	s0,a2
   15118:	00068993          	mv	s3,a3
   1511c:	00071663          	bnez	a4,15128 <ediv+0x60>
   15120:	ef5fe0ef          	jal	ra,14014 <eisnan.part.0>
   15124:	38051a63          	bnez	a0,154b8 <ediv+0x3f0>
   15128:	01295783          	lhu	a5,18(s2)
   1512c:	fff7c793          	not	a5,a5
   15130:	01179713          	slli	a4,a5,0x11
   15134:	08070e63          	beqz	a4,151d0 <ediv+0x108>
   15138:	00025a37          	lui	s4,0x25
   1513c:	94ca0593          	addi	a1,s4,-1716 # 2494c <ezero>
   15140:	00048513          	mv	a0,s1
   15144:	878ff0ef          	jal	ra,141bc <ecmp>
   15148:	10050463          	beqz	a0,15250 <ediv+0x188>
   1514c:	0124da03          	lhu	s4,18(s1)
   15150:	01295703          	lhu	a4,18(s2)
   15154:	000087b7          	lui	a5,0x8
   15158:	fff78793          	addi	a5,a5,-1 # 7fff <register_fini-0x8075>
   1515c:	0147fa33          	and	s4,a5,s4
   15160:	00e7fab3          	and	s5,a5,a4
   15164:	08fa1a63          	bne	s4,a5,151f8 <ediv+0x130>
   15168:	00048513          	mv	a0,s1
   1516c:	96cff0ef          	jal	ra,142d8 <eisinf.part.0>
   15170:	10050863          	beqz	a0,15280 <ediv+0x1b8>
   15174:	014a9863          	bne	s5,s4,15184 <ediv+0xbc>
   15178:	00090513          	mv	a0,s2
   1517c:	95cff0ef          	jal	ra,142d8 <eisinf.part.0>
   15180:	0e051063          	bnez	a0,15260 <ediv+0x198>
   15184:	01440793          	addi	a5,s0,20
   15188:	00240413          	addi	s0,s0,2
   1518c:	fe041f23          	sh	zero,-2(s0)
   15190:	fef41ce3          	bne	s0,a5,15188 <ediv+0xc0>
   15194:	0ac12083          	lw	ra,172(sp)
   15198:	0a812403          	lw	s0,168(sp)
   1519c:	0a412483          	lw	s1,164(sp)
   151a0:	0a012903          	lw	s2,160(sp)
   151a4:	09c12983          	lw	s3,156(sp)
   151a8:	09812a03          	lw	s4,152(sp)
   151ac:	09412a83          	lw	s5,148(sp)
   151b0:	09012b03          	lw	s6,144(sp)
   151b4:	08c12b83          	lw	s7,140(sp)
   151b8:	08812c03          	lw	s8,136(sp)
   151bc:	08412c83          	lw	s9,132(sp)
   151c0:	08012d03          	lw	s10,128(sp)
   151c4:	07c12d83          	lw	s11,124(sp)
   151c8:	0b010113          	addi	sp,sp,176
   151cc:	00008067          	ret
   151d0:	00090513          	mv	a0,s2
   151d4:	e41fe0ef          	jal	ra,14014 <eisnan.part.0>
   151d8:	f60500e3          	beqz	a0,15138 <ediv+0x70>
   151dc:	01490713          	addi	a4,s2,20
   151e0:	00095783          	lhu	a5,0(s2)
   151e4:	00290913          	addi	s2,s2,2
   151e8:	00240413          	addi	s0,s0,2
   151ec:	fef41f23          	sh	a5,-2(s0)
   151f0:	fee918e3          	bne	s2,a4,151e0 <ediv+0x118>
   151f4:	fa1ff06f          	j	15194 <ediv+0xcc>
   151f8:	08fa8663          	beq	s5,a5,15284 <ediv+0x1bc>
   151fc:	01c10593          	addi	a1,sp,28
   15200:	00048513          	mv	a0,s1
   15204:	ec1fe0ef          	jal	ra,140c4 <emovi>
   15208:	00090513          	mv	a0,s2
   1520c:	03810593          	addi	a1,sp,56
   15210:	eb5fe0ef          	jal	ra,140c4 <emovi>
   15214:	03a15c83          	lhu	s9,58(sp)
   15218:	01e15903          	lhu	s2,30(sp)
   1521c:	0c0c9263          	bnez	s9,152e0 <ediv+0x218>
   15220:	03c10793          	addi	a5,sp,60
   15224:	05010493          	addi	s1,sp,80
   15228:	36f48063          	beq	s1,a5,15588 <ediv+0x4c0>
   1522c:	0007d703          	lhu	a4,0(a5)
   15230:	00278793          	addi	a5,a5,2
   15234:	fe070ae3          	beqz	a4,15228 <ediv+0x160>
   15238:	03810513          	addi	a0,sp,56
   1523c:	ad4ff0ef          	jal	ra,14510 <enormlz>
   15240:	40a007b3          	neg	a5,a0
   15244:	01e15603          	lhu	a2,30(sp)
   15248:	00f12623          	sw	a5,12(sp)
   1524c:	09c0006f          	j	152e8 <ediv+0x220>
   15250:	94ca0593          	addi	a1,s4,-1716
   15254:	00090513          	mv	a0,s2
   15258:	f65fe0ef          	jal	ra,141bc <ecmp>
   1525c:	ee0518e3          	bnez	a0,1514c <ediv+0x84>
   15260:	01040713          	addi	a4,s0,16
   15264:	00040793          	mv	a5,s0
   15268:	00278793          	addi	a5,a5,2
   1526c:	fe079f23          	sh	zero,-2(a5)
   15270:	fee79ce3          	bne	a5,a4,15268 <ediv+0x1a0>
   15274:	7fffc7b7          	lui	a5,0x7fffc
   15278:	00f42823          	sw	a5,16(s0)
   1527c:	f19ff06f          	j	15194 <ediv+0xcc>
   15280:	f74a9ee3          	bne	s5,s4,151fc <ediv+0x134>
   15284:	00090513          	mv	a0,s2
   15288:	850ff0ef          	jal	ra,142d8 <eisinf.part.0>
   1528c:	f60508e3          	beqz	a0,151fc <ediv+0x134>
   15290:	00048513          	mv	a0,s1
   15294:	df1fe0ef          	jal	ra,14084 <eisneg>
   15298:	00050493          	mv	s1,a0
   1529c:	00090513          	mv	a0,s2
   152a0:	de5fe0ef          	jal	ra,14084 <eisneg>
   152a4:	40a487b3          	sub	a5,s1,a0
   152a8:	00f037b3          	snez	a5,a5
   152ac:	00f79793          	slli	a5,a5,0xf
   152b0:	00f41923          	sh	a5,18(s0)
   152b4:	01240713          	addi	a4,s0,18
   152b8:	00040793          	mv	a5,s0
   152bc:	00278793          	addi	a5,a5,2 # 7fffc002 <__BSS_END__+0x7ffd50d6>
   152c0:	fe079f23          	sh	zero,-2(a5)
   152c4:	fee79ce3          	bne	a5,a4,152bc <ediv+0x1f4>
   152c8:	01245783          	lhu	a5,18(s0)
   152cc:	00008737          	lui	a4,0x8
   152d0:	fff70713          	addi	a4,a4,-1 # 7fff <register_fini-0x8075>
   152d4:	00e7e7b3          	or	a5,a5,a4
   152d8:	00f41923          	sh	a5,18(s0)
   152dc:	eb9ff06f          	j	15194 <ediv+0xcc>
   152e0:	01912623          	sw	s9,12(sp)
   152e4:	00090613          	mv	a2,s2
   152e8:	01212423          	sw	s2,8(sp)
   152ec:	02010793          	addi	a5,sp,32
   152f0:	03410693          	addi	a3,sp,52
   152f4:	02061263          	bnez	a2,15318 <ediv+0x250>
   152f8:	2af68263          	beq	a3,a5,1559c <ediv+0x4d4>
   152fc:	0007d703          	lhu	a4,0(a5)
   15300:	00278793          	addi	a5,a5,2
   15304:	fe070ae3          	beqz	a4,152f8 <ediv+0x230>
   15308:	01c10513          	addi	a0,sp,28
   1530c:	a04ff0ef          	jal	ra,14510 <enormlz>
   15310:	40a907b3          	sub	a5,s2,a0
   15314:	00f12423          	sw	a5,8(sp)
   15318:	03812703          	lw	a4,56(sp)
   1531c:	03898d93          	addi	s11,s3,56
   15320:	000d8793          	mv	a5,s11
   15324:	02e9aa23          	sw	a4,52(s3)
   15328:	04e98a13          	addi	s4,s3,78
   1532c:	00278793          	addi	a5,a5,2
   15330:	fe079f23          	sh	zero,-2(a5)
   15334:	fefa1ce3          	bne	s4,a5,1532c <ediv+0x264>
   15338:	03810513          	addi	a0,sp,56
   1533c:	b25fe0ef          	jal	ra,13e60 <eshdn1>
   15340:	02215d03          	lhu	s10,34(sp)
   15344:	00010b37          	lui	s6,0x10
   15348:	05010493          	addi	s1,sp,80
   1534c:	010d1b93          	slli	s7,s10,0x10
   15350:	41ab8bb3          	sub	s7,s7,s10
   15354:	03a10c13          	addi	s8,sp,58
   15358:	fffb0b13          	addi	s6,s6,-1 # ffff <register_fini-0x75>
   1535c:	06e10913          	addi	s2,sp,110
   15360:	05610a93          	addi	s5,sp,86
   15364:	03c15783          	lhu	a5,60(sp)
   15368:	03e15703          	lhu	a4,62(sp)
   1536c:	000b0c93          	mv	s9,s6
   15370:	01079793          	slli	a5,a5,0x10
   15374:	00e78533          	add	a0,a5,a4
   15378:	00abea63          	bltu	s7,a0,1538c <ediv+0x2c4>
   1537c:	000d0593          	mv	a1,s10
   15380:	2d00f0ef          	jal	ra,24650 <__udivsi3>
   15384:	01051c93          	slli	s9,a0,0x10
   15388:	010cdc93          	srli	s9,s9,0x10
   1538c:	05410613          	addi	a2,sp,84
   15390:	01c10593          	addi	a1,sp,28
   15394:	000c8513          	mv	a0,s9
   15398:	ba1fe0ef          	jal	ra,13f38 <m16m>
   1539c:	03c10713          	addi	a4,sp,60
   153a0:	05810793          	addi	a5,sp,88
   153a4:	0007d583          	lhu	a1,0(a5)
   153a8:	00075603          	lhu	a2,0(a4)
   153ac:	00278793          	addi	a5,a5,2
   153b0:	00270713          	addi	a4,a4,2
   153b4:	12c59063          	bne	a1,a2,154d4 <ediv+0x40c>
   153b8:	ff2796e3          	bne	a5,s2,153a4 <ediv+0x2dc>
   153bc:	00000613          	li	a2,0
   153c0:	06c10593          	addi	a1,sp,108
   153c4:	00048713          	mv	a4,s1
   153c8:	00075783          	lhu	a5,0(a4)
   153cc:	0005d803          	lhu	a6,0(a1)
   153d0:	ffe70713          	addi	a4,a4,-2
   153d4:	40c787b3          	sub	a5,a5,a2
   153d8:	410787b3          	sub	a5,a5,a6
   153dc:	0107d613          	srli	a2,a5,0x10
   153e0:	00f71123          	sh	a5,2(a4)
   153e4:	00167613          	andi	a2,a2,1
   153e8:	ffe58593          	addi	a1,a1,-2
   153ec:	fd871ee3          	bne	a4,s8,153c8 <ediv+0x300>
   153f0:	019d9023          	sh	s9,0(s11)
   153f4:	03c10793          	addi	a5,sp,60
   153f8:	0027d703          	lhu	a4,2(a5)
   153fc:	00278793          	addi	a5,a5,2
   15400:	fee79f23          	sh	a4,-2(a5)
   15404:	fe979ae3          	bne	a5,s1,153f8 <ediv+0x330>
   15408:	04011823          	sh	zero,80(sp)
   1540c:	002d8d93          	addi	s11,s11,2
   15410:	f5ba1ae3          	bne	s4,s11,15364 <ediv+0x29c>
   15414:	00000593          	li	a1,0
   15418:	03c10793          	addi	a5,sp,60
   1541c:	05210693          	addi	a3,sp,82
   15420:	0007d703          	lhu	a4,0(a5)
   15424:	00278793          	addi	a5,a5,2
   15428:	00e5e5b3          	or	a1,a1,a4
   1542c:	fed79ae3          	bne	a5,a3,15420 <ediv+0x358>
   15430:	01059793          	slli	a5,a1,0x10
   15434:	4107d793          	srai	a5,a5,0x10
   15438:	00078463          	beqz	a5,15440 <ediv+0x378>
   1543c:	00100593          	li	a1,1
   15440:	01059593          	slli	a1,a1,0x10
   15444:	0105d593          	srli	a1,a1,0x10
   15448:	03498713          	addi	a4,s3,52
   1544c:	03810793          	addi	a5,sp,56
   15450:	00075603          	lhu	a2,0(a4)
   15454:	00278793          	addi	a5,a5,2
   15458:	00270713          	addi	a4,a4,2
   1545c:	fec79f23          	sh	a2,-2(a5)
   15460:	fef698e3          	bne	a3,a5,15450 <ediv+0x388>
   15464:	00c12783          	lw	a5,12(sp)
   15468:	00812703          	lw	a4,8(sp)
   1546c:	000046b7          	lui	a3,0x4
   15470:	fff68693          	addi	a3,a3,-1 # 3fff <register_fini-0xc075>
   15474:	40e78cb3          	sub	s9,a5,a4
   15478:	03810513          	addi	a0,sp,56
   1547c:	00098793          	mv	a5,s3
   15480:	04000713          	li	a4,64
   15484:	00dc86b3          	add	a3,s9,a3
   15488:	00000613          	li	a2,0
   1548c:	a00ff0ef          	jal	ra,1468c <emdnorm>
   15490:	03815703          	lhu	a4,56(sp)
   15494:	01c15783          	lhu	a5,28(sp)
   15498:	00040593          	mv	a1,s0
   1549c:	03810513          	addi	a0,sp,56
   154a0:	40e787b3          	sub	a5,a5,a4
   154a4:	00f037b3          	snez	a5,a5
   154a8:	40f007b3          	neg	a5,a5
   154ac:	02f11c23          	sh	a5,56(sp)
   154b0:	f50ff0ef          	jal	ra,14c00 <emovo.isra.0>
   154b4:	ce1ff06f          	j	15194 <ediv+0xcc>
   154b8:	01448713          	addi	a4,s1,20
   154bc:	0004d783          	lhu	a5,0(s1)
   154c0:	00248493          	addi	s1,s1,2
   154c4:	00240413          	addi	s0,s0,2
   154c8:	fef41f23          	sh	a5,-2(s0)
   154cc:	fee498e3          	bne	s1,a4,154bc <ediv+0x3f4>
   154d0:	cc5ff06f          	j	15194 <ediv+0xcc>
   154d4:	eeb674e3          	bgeu	a2,a1,153bc <ediv+0x2f4>
   154d8:	fffc8793          	addi	a5,s9,-1
   154dc:	01079893          	slli	a7,a5,0x10
   154e0:	0108d893          	srli	a7,a7,0x10
   154e4:	00000613          	li	a2,0
   154e8:	03410593          	addi	a1,sp,52
   154ec:	06c10713          	addi	a4,sp,108
   154f0:	00075783          	lhu	a5,0(a4)
   154f4:	0005d803          	lhu	a6,0(a1)
   154f8:	ffe70713          	addi	a4,a4,-2
   154fc:	40c787b3          	sub	a5,a5,a2
   15500:	410787b3          	sub	a5,a5,a6
   15504:	0107d613          	srli	a2,a5,0x10
   15508:	00f71123          	sh	a5,2(a4)
   1550c:	00167613          	andi	a2,a2,1
   15510:	ffe58593          	addi	a1,a1,-2
   15514:	fd571ee3          	bne	a4,s5,154f0 <ediv+0x428>
   15518:	03c10713          	addi	a4,sp,60
   1551c:	05810793          	addi	a5,sp,88
   15520:	0007d583          	lhu	a1,0(a5)
   15524:	00075603          	lhu	a2,0(a4)
   15528:	00278793          	addi	a5,a5,2
   1552c:	00270713          	addi	a4,a4,2
   15530:	00c59863          	bne	a1,a2,15540 <ediv+0x478>
   15534:	ff2796e3          	bne	a5,s2,15520 <ediv+0x458>
   15538:	00088c93          	mv	s9,a7
   1553c:	e81ff06f          	j	153bc <ediv+0x2f4>
   15540:	feb67ce3          	bgeu	a2,a1,15538 <ediv+0x470>
   15544:	ffec8513          	addi	a0,s9,-2
   15548:	01051c93          	slli	s9,a0,0x10
   1554c:	010cdc93          	srli	s9,s9,0x10
   15550:	00000613          	li	a2,0
   15554:	03410593          	addi	a1,sp,52
   15558:	06c10713          	addi	a4,sp,108
   1555c:	00075783          	lhu	a5,0(a4)
   15560:	0005d803          	lhu	a6,0(a1)
   15564:	ffe70713          	addi	a4,a4,-2
   15568:	40c787b3          	sub	a5,a5,a2
   1556c:	410787b3          	sub	a5,a5,a6
   15570:	0107d613          	srli	a2,a5,0x10
   15574:	00f71123          	sh	a5,2(a4)
   15578:	00167613          	andi	a2,a2,1
   1557c:	ffe58593          	addi	a1,a1,-2
   15580:	fd571ee3          	bne	a4,s5,1555c <ediv+0x494>
   15584:	e39ff06f          	j	153bc <ediv+0x2f4>
   15588:	01440793          	addi	a5,s0,20
   1558c:	00240413          	addi	s0,s0,2
   15590:	fe041f23          	sh	zero,-2(s0)
   15594:	fe879ce3          	bne	a5,s0,1558c <ediv+0x4c4>
   15598:	bfdff06f          	j	15194 <ediv+0xcc>
   1559c:	01c15703          	lhu	a4,28(sp)
   155a0:	03815783          	lhu	a5,56(sp)
   155a4:	00f70463          	beq	a4,a5,155ac <ediv+0x4e4>
   155a8:	00008637          	lui	a2,0x8
   155ac:	00c41923          	sh	a2,18(s0)
   155b0:	01240713          	addi	a4,s0,18
   155b4:	00040793          	mv	a5,s0
   155b8:	00278793          	addi	a5,a5,2
   155bc:	fe079f23          	sh	zero,-2(a5)
   155c0:	fef71ce3          	bne	a4,a5,155b8 <ediv+0x4f0>
   155c4:	01245783          	lhu	a5,18(s0)
   155c8:	00008737          	lui	a4,0x8
   155cc:	fff70713          	addi	a4,a4,-1 # 7fff <register_fini-0x8075>
   155d0:	00e7e7b3          	or	a5,a5,a4
   155d4:	00f41923          	sh	a5,18(s0)
   155d8:	bbdff06f          	j	15194 <ediv+0xcc>

000155dc <e113toe.isra.0>:
   155dc:	fd010113          	addi	sp,sp,-48
   155e0:	02812423          	sw	s0,40(sp)
   155e4:	02112623          	sw	ra,44(sp)
   155e8:	00058413          	mv	s0,a1
   155ec:	00410793          	addi	a5,sp,4
   155f0:	01e10713          	addi	a4,sp,30
   155f4:	00278793          	addi	a5,a5,2
   155f8:	fe079f23          	sh	zero,-2(a5)
   155fc:	fee79ce3          	bne	a5,a4,155f4 <e113toe.isra.0+0x18>
   15600:	00e55603          	lhu	a2,14(a0)
   15604:	01061793          	slli	a5,a2,0x10
   15608:	4107d793          	srai	a5,a5,0x10
   1560c:	0607ca63          	bltz	a5,15680 <e113toe.isra.0+0xa4>
   15610:	000087b7          	lui	a5,0x8
   15614:	fff78793          	addi	a5,a5,-1 # 7fff <register_fini-0x8075>
   15618:	00011223          	sh	zero,4(sp)
   1561c:	00f67633          	and	a2,a2,a5
   15620:	06f60c63          	beq	a2,a5,15698 <e113toe.isra.0+0xbc>
   15624:	00e50793          	addi	a5,a0,14
   15628:	00c11323          	sh	a2,6(sp)
   1562c:	00a10713          	addi	a4,sp,10
   15630:	ffe7d683          	lhu	a3,-2(a5)
   15634:	ffe78793          	addi	a5,a5,-2
   15638:	00270713          	addi	a4,a4,2
   1563c:	fed71f23          	sh	a3,-2(a4)
   15640:	fef518e3          	bne	a0,a5,15630 <e113toe.isra.0+0x54>
   15644:	02061263          	bnez	a2,15668 <e113toe.isra.0+0x8c>
   15648:	00011423          	sh	zero,8(sp)
   1564c:	00040593          	mv	a1,s0
   15650:	00410513          	addi	a0,sp,4
   15654:	dacff0ef          	jal	ra,14c00 <emovo.isra.0>
   15658:	02c12083          	lw	ra,44(sp)
   1565c:	02812403          	lw	s0,40(sp)
   15660:	03010113          	addi	sp,sp,48
   15664:	00008067          	ret
   15668:	00100793          	li	a5,1
   1566c:	fff00593          	li	a1,-1
   15670:	00410513          	addi	a0,sp,4
   15674:	00f11423          	sh	a5,8(sp)
   15678:	c7dfe0ef          	jal	ra,142f4 <eshift.part.0>
   1567c:	fd1ff06f          	j	1564c <e113toe.isra.0+0x70>
   15680:	fff00793          	li	a5,-1
   15684:	00f11223          	sh	a5,4(sp)
   15688:	000087b7          	lui	a5,0x8
   1568c:	fff78793          	addi	a5,a5,-1 # 7fff <register_fini-0x8075>
   15690:	00f67633          	and	a2,a2,a5
   15694:	f8f618e3          	bne	a2,a5,15624 <e113toe.isra.0+0x48>
   15698:	00050793          	mv	a5,a0
   1569c:	00e50693          	addi	a3,a0,14
   156a0:	0007d703          	lhu	a4,0(a5)
   156a4:	00278793          	addi	a5,a5,2
   156a8:	04071c63          	bnez	a4,15700 <e113toe.isra.0+0x124>
   156ac:	fed79ae3          	bne	a5,a3,156a0 <e113toe.isra.0+0xc4>
   156b0:	01440713          	addi	a4,s0,20
   156b4:	00040793          	mv	a5,s0
   156b8:	00278793          	addi	a5,a5,2
   156bc:	fe079f23          	sh	zero,-2(a5)
   156c0:	fef71ce3          	bne	a4,a5,156b8 <e113toe.isra.0+0xdc>
   156c4:	01240713          	addi	a4,s0,18
   156c8:	00040793          	mv	a5,s0
   156cc:	00278793          	addi	a5,a5,2
   156d0:	fe079f23          	sh	zero,-2(a5)
   156d4:	fef71ce3          	bne	a4,a5,156cc <e113toe.isra.0+0xf0>
   156d8:	01245783          	lhu	a5,18(s0)
   156dc:	00008737          	lui	a4,0x8
   156e0:	fff70713          	addi	a4,a4,-1 # 7fff <register_fini-0x8075>
   156e4:	00e7e7b3          	or	a5,a5,a4
   156e8:	00f41923          	sh	a5,18(s0)
   156ec:	00e51783          	lh	a5,14(a0)
   156f0:	f607d4e3          	bgez	a5,15658 <e113toe.isra.0+0x7c>
   156f4:	00040513          	mv	a0,s0
   156f8:	941fe0ef          	jal	ra,14038 <eneg>
   156fc:	f5dff06f          	j	15658 <e113toe.isra.0+0x7c>
   15700:	01040713          	addi	a4,s0,16
   15704:	00040793          	mv	a5,s0
   15708:	00278793          	addi	a5,a5,2
   1570c:	fe079f23          	sh	zero,-2(a5)
   15710:	fef71ce3          	bne	a4,a5,15708 <e113toe.isra.0+0x12c>
   15714:	7fffc7b7          	lui	a5,0x7fffc
   15718:	00f42823          	sw	a5,16(s0)
   1571c:	f3dff06f          	j	15658 <e113toe.isra.0+0x7c>

00015720 <_ldtoa_r>:
   15720:	00c5a883          	lw	a7,12(a1)
   15724:	e1010113          	addi	sp,sp,-496
   15728:	0005ae83          	lw	t4,0(a1)
   1572c:	0045ae03          	lw	t3,4(a1)
   15730:	0085a303          	lw	t1,8(a1)
   15734:	03112e23          	sw	a7,60(sp)
   15738:	04052583          	lw	a1,64(a0)
   1573c:	fff00893          	li	a7,-1
   15740:	17112023          	sw	a7,352(sp)
   15744:	09000893          	li	a7,144
   15748:	1e812423          	sw	s0,488(sp)
   1574c:	1d412c23          	sw	s4,472(sp)
   15750:	1e112623          	sw	ra,492(sp)
   15754:	1e912223          	sw	s1,484(sp)
   15758:	1f212023          	sw	s2,480(sp)
   1575c:	1d312e23          	sw	s3,476(sp)
   15760:	1d512a23          	sw	s5,468(sp)
   15764:	1d612823          	sw	s6,464(sp)
   15768:	1d712623          	sw	s7,460(sp)
   1576c:	1d812423          	sw	s8,456(sp)
   15770:	1d912223          	sw	s9,452(sp)
   15774:	1da12023          	sw	s10,448(sp)
   15778:	1bb12e23          	sw	s11,444(sp)
   1577c:	03d12823          	sw	t4,48(sp)
   15780:	03c12a23          	sw	t3,52(sp)
   15784:	02612c23          	sw	t1,56(sp)
   15788:	17112223          	sw	a7,356(sp)
   1578c:	00c12023          	sw	a2,0(sp)
   15790:	00d12423          	sw	a3,8(sp)
   15794:	00e12623          	sw	a4,12(sp)
   15798:	01012c23          	sw	a6,24(sp)
   1579c:	00050a13          	mv	s4,a0
   157a0:	00078413          	mv	s0,a5
   157a4:	02058063          	beqz	a1,157c4 <_ldtoa_r+0xa4>
   157a8:	04452703          	lw	a4,68(a0)
   157ac:	00100793          	li	a5,1
   157b0:	00e797b3          	sll	a5,a5,a4
   157b4:	00e5a223          	sw	a4,4(a1)
   157b8:	00f5a423          	sw	a5,8(a1)
   157bc:	585010ef          	jal	ra,17540 <_Bfree>
   157c0:	040a2023          	sw	zero,64(s4)
   157c4:	06010993          	addi	s3,sp,96
   157c8:	00098593          	mv	a1,s3
   157cc:	03010513          	addi	a0,sp,48
   157d0:	e0dff0ef          	jal	ra,155dc <e113toe.isra.0>
   157d4:	00098513          	mv	a0,s3
   157d8:	8adfe0ef          	jal	ra,14084 <eisneg>
   157dc:	00012703          	lw	a4,0(sp)
   157e0:	00a03533          	snez	a0,a0
   157e4:	00a42023          	sw	a0,0(s0)
   157e8:	00300793          	li	a5,3
   157ec:	14f702e3          	beq	a4,a5,16130 <_ldtoa_r+0xa10>
   157f0:	01400793          	li	a5,20
   157f4:	00f12223          	sw	a5,4(sp)
   157f8:	5e0718e3          	bnez	a4,165e8 <_ldtoa_r+0xec8>
   157fc:	07215783          	lhu	a5,114(sp)
   15800:	16412703          	lw	a4,356(sp)
   15804:	fff7c793          	not	a5,a5
   15808:	00e12a23          	sw	a4,20(sp)
   1580c:	01179713          	slli	a4,a5,0x11
   15810:	00071863          	bnez	a4,15820 <_ldtoa_r+0x100>
   15814:	00098513          	mv	a0,s3
   15818:	ffcfe0ef          	jal	ra,14014 <eisnan.part.0>
   1581c:	400514e3          	bnez	a0,16424 <_ldtoa_r+0xd04>
   15820:	09000793          	li	a5,144
   15824:	16f12223          	sw	a5,356(sp)
   15828:	07c10713          	addi	a4,sp,124
   1582c:	00098793          	mv	a5,s3
   15830:	07410613          	addi	a2,sp,116
   15834:	0007d683          	lhu	a3,0(a5) # 7fffc000 <__BSS_END__+0x7ffd50d4>
   15838:	00278793          	addi	a5,a5,2
   1583c:	00270713          	addi	a4,a4,2
   15840:	fed71f23          	sh	a3,-2(a4)
   15844:	fec798e3          	bne	a5,a2,15834 <_ldtoa_r+0x114>
   15848:	08e15603          	lhu	a2,142(sp)
   1584c:	00012823          	sw	zero,16(sp)
   15850:	01061793          	slli	a5,a2,0x10
   15854:	4107d793          	srai	a5,a5,0x10
   15858:	0007de63          	bgez	a5,15874 <_ldtoa_r+0x154>
   1585c:	01161613          	slli	a2,a2,0x11
   15860:	000107b7          	lui	a5,0x10
   15864:	01165613          	srli	a2,a2,0x11
   15868:	fff78793          	addi	a5,a5,-1 # ffff <register_fini-0x75>
   1586c:	08c11723          	sh	a2,142(sp)
   15870:	00f12823          	sw	a5,16(sp)
   15874:	00025b37          	lui	s6,0x25
   15878:	94cb0d93          	addi	s11,s6,-1716 # 2494c <ezero>
   1587c:	014d8c13          	addi	s8,s11,20
   15880:	00000693          	li	a3,0
   15884:	09810793          	addi	a5,sp,152
   15888:	000c0713          	mv	a4,s8
   1588c:	0ac10d13          	addi	s10,sp,172
   15890:	0080006f          	j	15898 <_ldtoa_r+0x178>
   15894:	00075683          	lhu	a3,0(a4)
   15898:	00278793          	addi	a5,a5,2
   1589c:	fed79f23          	sh	a3,-2(a5)
   158a0:	00270713          	addi	a4,a4,2
   158a4:	ffa798e3          	bne	a5,s10,15894 <_ldtoa_r+0x174>
   158a8:	14060863          	beqz	a2,159f8 <_ldtoa_r+0x2d8>
   158ac:	000087b7          	lui	a5,0x8
   158b0:	fff78793          	addi	a5,a5,-1 # 7fff <register_fini-0x8075>
   158b4:	56f606e3          	beq	a2,a5,16620 <_ldtoa_r+0xf00>
   158b8:	08c11783          	lh	a5,140(sp)
   158bc:	5a07d8e3          	bgez	a5,1666c <_ldtoa_r+0xf4c>
   158c0:	07c10593          	addi	a1,sp,124
   158c4:	000c0513          	mv	a0,s8
   158c8:	8f5fe0ef          	jal	ra,141bc <ecmp>
   158cc:	14050263          	beqz	a0,15a10 <_ldtoa_r+0x2f0>
   158d0:	0c054ce3          	bltz	a0,161a8 <_ldtoa_r+0xa88>
   158d4:	08e15783          	lhu	a5,142(sp)
   158d8:	62079ce3          	bnez	a5,16710 <_ldtoa_r+0xff0>
   158dc:	08c11783          	lh	a5,140(sp)
   158e0:	00000493          	li	s1,0
   158e4:	16010913          	addi	s2,sp,352
   158e8:	0207c463          	bltz	a5,15910 <_ldtoa_r+0x1f0>
   158ec:	118d8413          	addi	s0,s11,280
   158f0:	07c10613          	addi	a2,sp,124
   158f4:	00090693          	mv	a3,s2
   158f8:	00060593          	mv	a1,a2
   158fc:	00040513          	mv	a0,s0
   15900:	bb0ff0ef          	jal	ra,14cb0 <emul>
   15904:	08c11783          	lh	a5,140(sp)
   15908:	fff48493          	addi	s1,s1,-1
   1590c:	fe07d2e3          	bgez	a5,158f0 <_ldtoa_r+0x1d0>
   15910:	0d010413          	addi	s0,sp,208
   15914:	0e810b93          	addi	s7,sp,232
   15918:	00040713          	mv	a4,s0
   1591c:	07c10793          	addi	a5,sp,124
   15920:	09010613          	addi	a2,sp,144
   15924:	0007d683          	lhu	a3,0(a5)
   15928:	00278793          	addi	a5,a5,2
   1592c:	00270713          	addi	a4,a4,2
   15930:	fed71f23          	sh	a3,-2(a4)
   15934:	fec798e3          	bne	a5,a2,15924 <_ldtoa_r+0x204>
   15938:	00000693          	li	a3,0
   1593c:	09810793          	addi	a5,sp,152
   15940:	000c0713          	mv	a4,s8
   15944:	0080006f          	j	1594c <_ldtoa_r+0x22c>
   15948:	00075683          	lhu	a3,0(a4)
   1594c:	00278793          	addi	a5,a5,2
   15950:	fed79f23          	sh	a3,-2(a5)
   15954:	00270713          	addi	a4,a4,2
   15958:	ffa798e3          	bne	a5,s10,15948 <_ldtoa_r+0x228>
   1595c:	028d8c93          	addi	s9,s11,40
   15960:	12cd8d13          	addi	s10,s11,300
   15964:	fffffab7          	lui	s5,0xfffff
   15968:	118d8d93          	addi	s11,s11,280
   1596c:	00c0006f          	j	15978 <_ldtoa_r+0x258>
   15970:	014d0d13          	addi	s10,s10,20
   15974:	014c8c93          	addi	s9,s9,20
   15978:	00040593          	mv	a1,s0
   1597c:	000c0513          	mv	a0,s8
   15980:	83dfe0ef          	jal	ra,141bc <ecmp>
   15984:	00050793          	mv	a5,a0
   15988:	00040593          	mv	a1,s0
   1598c:	000d0513          	mv	a0,s10
   15990:	04f05663          	blez	a5,159dc <_ldtoa_r+0x2bc>
   15994:	829fe0ef          	jal	ra,141bc <ecmp>
   15998:	00050793          	mv	a5,a0
   1599c:	00090693          	mv	a3,s2
   159a0:	00040613          	mv	a2,s0
   159a4:	00040593          	mv	a1,s0
   159a8:	000c8513          	mv	a0,s9
   159ac:	0207c063          	bltz	a5,159cc <_ldtoa_r+0x2ac>
   159b0:	b00ff0ef          	jal	ra,14cb0 <emul>
   159b4:	09810613          	addi	a2,sp,152
   159b8:	00090693          	mv	a3,s2
   159bc:	00060593          	mv	a1,a2
   159c0:	000c8513          	mv	a0,s9
   159c4:	aecff0ef          	jal	ra,14cb0 <emul>
   159c8:	015484b3          	add	s1,s1,s5
   159cc:	01fad793          	srli	a5,s5,0x1f
   159d0:	015787b3          	add	a5,a5,s5
   159d4:	4017da93          	srai	s5,a5,0x1
   159d8:	f9bc9ce3          	bne	s9,s11,15970 <_ldtoa_r+0x250>
   159dc:	09810613          	addi	a2,sp,152
   159e0:	00090693          	mv	a3,s2
   159e4:	000c0593          	mv	a1,s8
   159e8:	00060513          	mv	a0,a2
   159ec:	edcff0ef          	jal	ra,150c8 <ediv>
   159f0:	12410a93          	addi	s5,sp,292
   159f4:	0300006f          	j	15a24 <_ldtoa_r+0x304>
   159f8:	07c10793          	addi	a5,sp,124
   159fc:	08e10693          	addi	a3,sp,142
   15a00:	0007d703          	lhu	a4,0(a5)
   15a04:	00278793          	addi	a5,a5,2
   15a08:	ea071ce3          	bnez	a4,158c0 <_ldtoa_r+0x1a0>
   15a0c:	fed79ae3          	bne	a5,a3,15a00 <_ldtoa_r+0x2e0>
   15a10:	00000493          	li	s1,0
   15a14:	12410a93          	addi	s5,sp,292
   15a18:	16010913          	addi	s2,sp,352
   15a1c:	0d010413          	addi	s0,sp,208
   15a20:	0e810b93          	addi	s7,sp,232
   15a24:	00040593          	mv	a1,s0
   15a28:	09810513          	addi	a0,sp,152
   15a2c:	e98fe0ef          	jal	ra,140c4 <emovi>
   15a30:	09810713          	addi	a4,sp,152
   15a34:	00040793          	mv	a5,s0
   15a38:	0007d683          	lhu	a3,0(a5)
   15a3c:	00278793          	addi	a5,a5,2
   15a40:	00270713          	addi	a4,a4,2
   15a44:	fed71f23          	sh	a3,-2(a4)
   15a48:	ff7798e3          	bne	a5,s7,15a38 <_ldtoa_r+0x318>
   15a4c:	00040593          	mv	a1,s0
   15a50:	07c10513          	addi	a0,sp,124
   15a54:	0a011823          	sh	zero,176(sp)
   15a58:	e6cfe0ef          	jal	ra,140c4 <emovi>
   15a5c:	07c10793          	addi	a5,sp,124
   15a60:	00045703          	lhu	a4,0(s0)
   15a64:	00240413          	addi	s0,s0,2
   15a68:	00278793          	addi	a5,a5,2
   15a6c:	fee79f23          	sh	a4,-2(a5)
   15a70:	ff7418e3          	bne	s0,s7,15a60 <_ldtoa_r+0x340>
   15a74:	09810513          	addi	a0,sp,152
   15a78:	00090613          	mv	a2,s2
   15a7c:	07c10593          	addi	a1,sp,124
   15a80:	08011a23          	sh	zero,148(sp)
   15a84:	814ff0ef          	jal	ra,14a98 <eiremain>
   15a88:	1ac15503          	lhu	a0,428(sp)
   15a8c:	1c051463          	bnez	a0,15c54 <_ldtoa_r+0x534>
   15a90:	09410c93          	addi	s9,sp,148
   15a94:	07e10413          	addi	s0,sp,126
   15a98:	0b610c13          	addi	s8,sp,182
   15a9c:	94cb0593          	addi	a1,s6,-1716
   15aa0:	07c10513          	addi	a0,sp,124
   15aa4:	f18fe0ef          	jal	ra,141bc <ecmp>
   15aa8:	1a050663          	beqz	a0,15c54 <_ldtoa_r+0x534>
   15aac:	00000713          	li	a4,0
   15ab0:	000c8693          	mv	a3,s9
   15ab4:	01c0006f          	j	15ad0 <_ldtoa_r+0x3b0>
   15ab8:	00171713          	slli	a4,a4,0x1
   15abc:	00f69023          	sh	a5,0(a3)
   15ac0:	01071713          	slli	a4,a4,0x10
   15ac4:	ffe68693          	addi	a3,a3,-2
   15ac8:	01075713          	srli	a4,a4,0x10
   15acc:	04868463          	beq	a3,s0,15b14 <_ldtoa_r+0x3f4>
   15ad0:	0006d783          	lhu	a5,0(a3)
   15ad4:	01079613          	slli	a2,a5,0x10
   15ad8:	41065613          	srai	a2,a2,0x10
   15adc:	00179793          	slli	a5,a5,0x1
   15ae0:	00065463          	bgez	a2,15ae8 <_ldtoa_r+0x3c8>
   15ae4:	00176713          	ori	a4,a4,1
   15ae8:	01079793          	slli	a5,a5,0x10
   15aec:	0107d793          	srli	a5,a5,0x10
   15af0:	00277613          	andi	a2,a4,2
   15af4:	0017e593          	ori	a1,a5,1
   15af8:	fc0600e3          	beqz	a2,15ab8 <_ldtoa_r+0x398>
   15afc:	00171713          	slli	a4,a4,0x1
   15b00:	00b69023          	sh	a1,0(a3)
   15b04:	01071713          	slli	a4,a4,0x10
   15b08:	ffe68693          	addi	a3,a3,-2
   15b0c:	01075713          	srli	a4,a4,0x10
   15b10:	fc8690e3          	bne	a3,s0,15ad0 <_ldtoa_r+0x3b0>
   15b14:	0b410713          	addi	a4,sp,180
   15b18:	07c10793          	addi	a5,sp,124
   15b1c:	0007d683          	lhu	a3,0(a5)
   15b20:	00278793          	addi	a5,a5,2
   15b24:	00270713          	addi	a4,a4,2
   15b28:	fed71f23          	sh	a3,-2(a4)
   15b2c:	ff9798e3          	bne	a5,s9,15b1c <_ldtoa_r+0x3fc>
   15b30:	0c011623          	sh	zero,204(sp)
   15b34:	00000713          	li	a4,0
   15b38:	0cc10693          	addi	a3,sp,204
   15b3c:	01c0006f          	j	15b58 <_ldtoa_r+0x438>
   15b40:	00171713          	slli	a4,a4,0x1
   15b44:	00f69023          	sh	a5,0(a3)
   15b48:	01071713          	slli	a4,a4,0x10
   15b4c:	ffe68693          	addi	a3,a3,-2
   15b50:	01075713          	srli	a4,a4,0x10
   15b54:	05868463          	beq	a3,s8,15b9c <_ldtoa_r+0x47c>
   15b58:	0006d783          	lhu	a5,0(a3)
   15b5c:	01079613          	slli	a2,a5,0x10
   15b60:	41065613          	srai	a2,a2,0x10
   15b64:	00179793          	slli	a5,a5,0x1
   15b68:	00065463          	bgez	a2,15b70 <_ldtoa_r+0x450>
   15b6c:	00176713          	ori	a4,a4,1
   15b70:	01079793          	slli	a5,a5,0x10
   15b74:	0107d793          	srli	a5,a5,0x10
   15b78:	00277613          	andi	a2,a4,2
   15b7c:	0017e593          	ori	a1,a5,1
   15b80:	fc0600e3          	beqz	a2,15b40 <_ldtoa_r+0x420>
   15b84:	00171713          	slli	a4,a4,0x1
   15b88:	00b69023          	sh	a1,0(a3)
   15b8c:	01071713          	slli	a4,a4,0x10
   15b90:	ffe68693          	addi	a3,a3,-2
   15b94:	01075713          	srli	a4,a4,0x10
   15b98:	fd8690e3          	bne	a3,s8,15b58 <_ldtoa_r+0x438>
   15b9c:	00000713          	li	a4,0
   15ba0:	0cc10693          	addi	a3,sp,204
   15ba4:	01c0006f          	j	15bc0 <_ldtoa_r+0x4a0>
   15ba8:	00171713          	slli	a4,a4,0x1
   15bac:	00f69023          	sh	a5,0(a3)
   15bb0:	01071713          	slli	a4,a4,0x10
   15bb4:	ffe68693          	addi	a3,a3,-2
   15bb8:	01075713          	srli	a4,a4,0x10
   15bbc:	05868463          	beq	a3,s8,15c04 <_ldtoa_r+0x4e4>
   15bc0:	0006d783          	lhu	a5,0(a3)
   15bc4:	01079613          	slli	a2,a5,0x10
   15bc8:	41065613          	srai	a2,a2,0x10
   15bcc:	00179793          	slli	a5,a5,0x1
   15bd0:	00065463          	bgez	a2,15bd8 <_ldtoa_r+0x4b8>
   15bd4:	00176713          	ori	a4,a4,1
   15bd8:	01079793          	slli	a5,a5,0x10
   15bdc:	0107d793          	srli	a5,a5,0x10
   15be0:	00277613          	andi	a2,a4,2
   15be4:	0017e593          	ori	a1,a5,1
   15be8:	fc0600e3          	beqz	a2,15ba8 <_ldtoa_r+0x488>
   15bec:	00171713          	slli	a4,a4,0x1
   15bf0:	00b69023          	sh	a1,0(a3)
   15bf4:	01071713          	slli	a4,a4,0x10
   15bf8:	ffe68693          	addi	a3,a3,-2
   15bfc:	01075713          	srli	a4,a4,0x10
   15c00:	fd8690e3          	bne	a3,s8,15bc0 <_ldtoa_r+0x4a0>
   15c04:	00000613          	li	a2,0
   15c08:	000c8693          	mv	a3,s9
   15c0c:	0cc10713          	addi	a4,sp,204
   15c10:	0006d583          	lhu	a1,0(a3)
   15c14:	00075783          	lhu	a5,0(a4)
   15c18:	ffe68693          	addi	a3,a3,-2
   15c1c:	ffe70713          	addi	a4,a4,-2
   15c20:	00b787b3          	add	a5,a5,a1
   15c24:	00c787b3          	add	a5,a5,a2
   15c28:	0107d613          	srli	a2,a5,0x10
   15c2c:	00f69123          	sh	a5,2(a3)
   15c30:	00167613          	andi	a2,a2,1
   15c34:	fd871ee3          	bne	a4,s8,15c10 <_ldtoa_r+0x4f0>
   15c38:	09810513          	addi	a0,sp,152
   15c3c:	00090613          	mv	a2,s2
   15c40:	07c10593          	addi	a1,sp,124
   15c44:	e55fe0ef          	jal	ra,14a98 <eiremain>
   15c48:	1ac15503          	lhu	a0,428(sp)
   15c4c:	fff48493          	addi	s1,s1,-1
   15c50:	e40506e3          	beqz	a0,15a9c <_ldtoa_r+0x37c>
   15c54:	01012783          	lw	a5,16(sp)
   15c58:	00012683          	lw	a3,0(sp)
   15c5c:	00300713          	li	a4,3
   15c60:	00f037b3          	snez	a5,a5
   15c64:	40f007b3          	neg	a5,a5
   15c68:	00d7f793          	andi	a5,a5,13
   15c6c:	02078793          	addi	a5,a5,32
   15c70:	12f10223          	sb	a5,292(sp)
   15c74:	00412783          	lw	a5,4(sp)
   15c78:	00e69463          	bne	a3,a4,15c80 <_ldtoa_r+0x560>
   15c7c:	009787b3          	add	a5,a5,s1
   15c80:	02a00713          	li	a4,42
   15c84:	00078413          	mv	s0,a5
   15c88:	00f75463          	bge	a4,a5,15c90 <_ldtoa_r+0x570>
   15c8c:	02a00413          	li	s0,42
   15c90:	00a00713          	li	a4,10
   15c94:	4ee50263          	beq	a0,a4,16178 <_ldtoa_r+0xa58>
   15c98:	03050513          	addi	a0,a0,48
   15c9c:	02e00713          	li	a4,46
   15ca0:	12a102a3          	sb	a0,293(sp)
   15ca4:	12e10323          	sb	a4,294(sp)
   15ca8:	1e07c2e3          	bltz	a5,1668c <_ldtoa_r+0xf6c>
   15cac:	12710793          	addi	a5,sp,295
   15cb0:	00f12823          	sw	a5,16(sp)
   15cb4:	00000c13          	li	s8,0
   15cb8:	00912e23          	sw	s1,28(sp)
   15cbc:	000c0493          	mv	s1,s8
   15cc0:	00090c13          	mv	s8,s2
   15cc4:	01012903          	lw	s2,16(sp)
   15cc8:	0b410c93          	addi	s9,sp,180
   15ccc:	09410d93          	addi	s11,sp,148
   15cd0:	07e10b93          	addi	s7,sp,126
   15cd4:	0b610d13          	addi	s10,sp,182
   15cd8:	00000713          	li	a4,0
   15cdc:	000d8613          	mv	a2,s11
   15ce0:	01c0006f          	j	15cfc <_ldtoa_r+0x5dc>
   15ce4:	00171713          	slli	a4,a4,0x1
   15ce8:	00f61023          	sh	a5,0(a2) # 8000 <register_fini-0x8074>
   15cec:	01071713          	slli	a4,a4,0x10
   15cf0:	ffe60613          	addi	a2,a2,-2
   15cf4:	01075713          	srli	a4,a4,0x10
   15cf8:	05760463          	beq	a2,s7,15d40 <_ldtoa_r+0x620>
   15cfc:	00065783          	lhu	a5,0(a2)
   15d00:	01079593          	slli	a1,a5,0x10
   15d04:	4105d593          	srai	a1,a1,0x10
   15d08:	00179793          	slli	a5,a5,0x1
   15d0c:	0005d463          	bgez	a1,15d14 <_ldtoa_r+0x5f4>
   15d10:	00176713          	ori	a4,a4,1
   15d14:	01079793          	slli	a5,a5,0x10
   15d18:	0107d793          	srli	a5,a5,0x10
   15d1c:	00277593          	andi	a1,a4,2
   15d20:	0017e513          	ori	a0,a5,1
   15d24:	fc0580e3          	beqz	a1,15ce4 <_ldtoa_r+0x5c4>
   15d28:	00171713          	slli	a4,a4,0x1
   15d2c:	00a61023          	sh	a0,0(a2)
   15d30:	01071713          	slli	a4,a4,0x10
   15d34:	ffe60613          	addi	a2,a2,-2
   15d38:	01075713          	srli	a4,a4,0x10
   15d3c:	fd7610e3          	bne	a2,s7,15cfc <_ldtoa_r+0x5dc>
   15d40:	000c8713          	mv	a4,s9
   15d44:	07c10793          	addi	a5,sp,124
   15d48:	0007d603          	lhu	a2,0(a5)
   15d4c:	00278793          	addi	a5,a5,2
   15d50:	00270713          	addi	a4,a4,2
   15d54:	fec71f23          	sh	a2,-2(a4)
   15d58:	ffb798e3          	bne	a5,s11,15d48 <_ldtoa_r+0x628>
   15d5c:	0c011623          	sh	zero,204(sp)
   15d60:	00000713          	li	a4,0
   15d64:	0cc10613          	addi	a2,sp,204
   15d68:	01c0006f          	j	15d84 <_ldtoa_r+0x664>
   15d6c:	00171713          	slli	a4,a4,0x1
   15d70:	00f61023          	sh	a5,0(a2)
   15d74:	01071713          	slli	a4,a4,0x10
   15d78:	ffe60613          	addi	a2,a2,-2
   15d7c:	01075713          	srli	a4,a4,0x10
   15d80:	05a60463          	beq	a2,s10,15dc8 <_ldtoa_r+0x6a8>
   15d84:	00065783          	lhu	a5,0(a2)
   15d88:	01079593          	slli	a1,a5,0x10
   15d8c:	4105d593          	srai	a1,a1,0x10
   15d90:	00179793          	slli	a5,a5,0x1
   15d94:	0005d463          	bgez	a1,15d9c <_ldtoa_r+0x67c>
   15d98:	00176713          	ori	a4,a4,1
   15d9c:	01079793          	slli	a5,a5,0x10
   15da0:	0107d793          	srli	a5,a5,0x10
   15da4:	00277593          	andi	a1,a4,2
   15da8:	0017e513          	ori	a0,a5,1
   15dac:	fc0580e3          	beqz	a1,15d6c <_ldtoa_r+0x64c>
   15db0:	00171713          	slli	a4,a4,0x1
   15db4:	00a61023          	sh	a0,0(a2)
   15db8:	01071713          	slli	a4,a4,0x10
   15dbc:	ffe60613          	addi	a2,a2,-2
   15dc0:	01075713          	srli	a4,a4,0x10
   15dc4:	fda610e3          	bne	a2,s10,15d84 <_ldtoa_r+0x664>
   15dc8:	00000713          	li	a4,0
   15dcc:	0cc10613          	addi	a2,sp,204
   15dd0:	01c0006f          	j	15dec <_ldtoa_r+0x6cc>
   15dd4:	00171713          	slli	a4,a4,0x1
   15dd8:	00f61023          	sh	a5,0(a2)
   15ddc:	01071713          	slli	a4,a4,0x10
   15de0:	ffe60613          	addi	a2,a2,-2
   15de4:	01075713          	srli	a4,a4,0x10
   15de8:	05a60463          	beq	a2,s10,15e30 <_ldtoa_r+0x710>
   15dec:	00065783          	lhu	a5,0(a2)
   15df0:	01079593          	slli	a1,a5,0x10
   15df4:	4105d593          	srai	a1,a1,0x10
   15df8:	00179793          	slli	a5,a5,0x1
   15dfc:	0005d463          	bgez	a1,15e04 <_ldtoa_r+0x6e4>
   15e00:	00176713          	ori	a4,a4,1
   15e04:	01079793          	slli	a5,a5,0x10
   15e08:	0107d793          	srli	a5,a5,0x10
   15e0c:	00277593          	andi	a1,a4,2
   15e10:	0017e513          	ori	a0,a5,1
   15e14:	fc0580e3          	beqz	a1,15dd4 <_ldtoa_r+0x6b4>
   15e18:	00171713          	slli	a4,a4,0x1
   15e1c:	00a61023          	sh	a0,0(a2)
   15e20:	01071713          	slli	a4,a4,0x10
   15e24:	ffe60613          	addi	a2,a2,-2
   15e28:	01075713          	srli	a4,a4,0x10
   15e2c:	fda610e3          	bne	a2,s10,15dec <_ldtoa_r+0x6cc>
   15e30:	00000593          	li	a1,0
   15e34:	000d8613          	mv	a2,s11
   15e38:	0cc10713          	addi	a4,sp,204
   15e3c:	00065503          	lhu	a0,0(a2)
   15e40:	00075783          	lhu	a5,0(a4)
   15e44:	ffe60613          	addi	a2,a2,-2
   15e48:	ffe70713          	addi	a4,a4,-2
   15e4c:	00a787b3          	add	a5,a5,a0
   15e50:	00b787b3          	add	a5,a5,a1
   15e54:	0107d593          	srli	a1,a5,0x10
   15e58:	00f61123          	sh	a5,2(a2)
   15e5c:	0015f593          	andi	a1,a1,1
   15e60:	fda71ee3          	bne	a4,s10,15e3c <_ldtoa_r+0x71c>
   15e64:	000c0613          	mv	a2,s8
   15e68:	07c10593          	addi	a1,sp,124
   15e6c:	09810513          	addi	a0,sp,152
   15e70:	c29fe0ef          	jal	ra,14a98 <eiremain>
   15e74:	1ac15783          	lhu	a5,428(sp)
   15e78:	00990733          	add	a4,s2,s1
   15e7c:	00148493          	addi	s1,s1,1
   15e80:	03078613          	addi	a2,a5,48
   15e84:	00c70023          	sb	a2,0(a4)
   15e88:	e49458e3          	bge	s0,s1,15cd8 <_ldtoa_r+0x5b8>
   15e8c:	fff44513          	not	a0,s0
   15e90:	01012703          	lw	a4,16(sp)
   15e94:	41f55513          	srai	a0,a0,0x1f
   15e98:	00a47533          	and	a0,s0,a0
   15e9c:	01c12483          	lw	s1,28(sp)
   15ea0:	00150913          	addi	s2,a0,1
   15ea4:	01270933          	add	s2,a4,s2
   15ea8:	00a70c33          	add	s8,a4,a0
   15eac:	00400713          	li	a4,4
   15eb0:	04f75e63          	bge	a4,a5,15f0c <_ldtoa_r+0x7ec>
   15eb4:	00500713          	li	a4,5
   15eb8:	00e780e3          	beq	a5,a4,166b8 <_ldtoa_r+0xf98>
   15ebc:	ffe94783          	lbu	a5,-2(s2)
   15ec0:	ffe90713          	addi	a4,s2,-2
   15ec4:	07f7f793          	andi	a5,a5,127
   15ec8:	78044463          	bltz	s0,16650 <_ldtoa_r+0xf30>
   15ecc:	02e00693          	li	a3,46
   15ed0:	03800613          	li	a2,56
   15ed4:	03000593          	li	a1,48
   15ed8:	00d78e63          	beq	a5,a3,15ef4 <_ldtoa_r+0x7d4>
   15edc:	78f65263          	bge	a2,a5,16660 <_ldtoa_r+0xf40>
   15ee0:	fff74783          	lbu	a5,-1(a4)
   15ee4:	00b70023          	sb	a1,0(a4)
   15ee8:	fff70713          	addi	a4,a4,-1
   15eec:	07f7f793          	andi	a5,a5,127
   15ef0:	fe9ff06f          	j	15ed8 <_ldtoa_r+0x7b8>
   15ef4:	fff74783          	lbu	a5,-1(a4)
   15ef8:	03800693          	li	a3,56
   15efc:	00f6f4e3          	bgeu	a3,a5,16704 <_ldtoa_r+0xfe4>
   15f00:	03100793          	li	a5,49
   15f04:	00148493          	addi	s1,s1,1
   15f08:	fef70fa3          	sb	a5,-1(a4)
   15f0c:	000255b7          	lui	a1,0x25
   15f10:	00048613          	mv	a2,s1
   15f14:	94858593          	addi	a1,a1,-1720 # 24948 <zeroes.4484+0x34>
   15f18:	000c0513          	mv	a0,s8
   15f1c:	005020ef          	jal	ra,18720 <sprintf>
   15f20:	07215783          	lhu	a5,114(sp)
   15f24:	01412703          	lw	a4,20(sp)
   15f28:	16912823          	sw	s1,368(sp)
   15f2c:	fff7c793          	not	a5,a5
   15f30:	16e12223          	sw	a4,356(sp)
   15f34:	01179713          	slli	a4,a5,0x11
   15f38:	00071e63          	bnez	a4,15f54 <_ldtoa_r+0x834>
   15f3c:	00098513          	mv	a0,s3
   15f40:	b98fe0ef          	jal	ra,142d8 <eisinf.part.0>
   15f44:	22051063          	bnez	a0,16164 <_ldtoa_r+0xa44>
   15f48:	00098513          	mv	a0,s3
   15f4c:	8c8fe0ef          	jal	ra,14014 <eisnan.part.0>
   15f50:	20051a63          	bnez	a0,16164 <_ldtoa_r+0xa44>
   15f54:	00c12683          	lw	a3,12(sp)
   15f58:	12414703          	lbu	a4,292(sp)
   15f5c:	00148793          	addi	a5,s1,1
   15f60:	00f6a023          	sw	a5,0(a3)
   15f64:	000a8793          	mv	a5,s5
   15f68:	02070a63          	beqz	a4,15f9c <_ldtoa_r+0x87c>
   15f6c:	02e00693          	li	a3,46
   15f70:	1cd70c63          	beq	a4,a3,16148 <_ldtoa_r+0xa28>
   15f74:	0017c703          	lbu	a4,1(a5)
   15f78:	00178793          	addi	a5,a5,1
   15f7c:	fe071ae3          	bnez	a4,15f70 <_ldtoa_r+0x850>
   15f80:	04500693          	li	a3,69
   15f84:	00fae663          	bltu	s5,a5,15f90 <_ldtoa_r+0x870>
   15f88:	0140006f          	j	15f9c <_ldtoa_r+0x87c>
   15f8c:	01578863          	beq	a5,s5,15f9c <_ldtoa_r+0x87c>
   15f90:	fff7c703          	lbu	a4,-1(a5)
   15f94:	fff78793          	addi	a5,a5,-1
   15f98:	fed71ae3          	bne	a4,a3,15f8c <_ldtoa_r+0x86c>
   15f9c:	00078023          	sb	zero,0(a5)
   15fa0:	000a8793          	mv	a5,s5
   15fa4:	02000693          	li	a3,32
   15fa8:	02d00613          	li	a2,45
   15fac:	0007c703          	lbu	a4,0(a5)
   15fb0:	00d70463          	beq	a4,a3,15fb8 <_ldtoa_r+0x898>
   15fb4:	00c71663          	bne	a4,a2,15fc0 <_ldtoa_r+0x8a0>
   15fb8:	00178793          	addi	a5,a5,1
   15fbc:	ff1ff06f          	j	15fac <_ldtoa_r+0x88c>
   15fc0:	000a8413          	mv	s0,s5
   15fc4:	00c0006f          	j	15fd0 <_ldtoa_r+0x8b0>
   15fc8:	0007c703          	lbu	a4,0(a5)
   15fcc:	00068413          	mv	s0,a3
   15fd0:	00e40023          	sb	a4,0(s0)
   15fd4:	00140693          	addi	a3,s0,1
   15fd8:	00178793          	addi	a5,a5,1
   15fdc:	fe0716e3          	bnez	a4,15fc8 <_ldtoa_r+0x8a8>
   15fe0:	00012683          	lw	a3,0(sp)
   15fe4:	00200793          	li	a5,2
   15fe8:	fff44703          	lbu	a4,-1(s0)
   15fec:	12f68663          	beq	a3,a5,16118 <_ldtoa_r+0x9f8>
   15ff0:	00412783          	lw	a5,4(sp)
   15ff4:	00078693          	mv	a3,a5
   15ff8:	0097d463          	bge	a5,s1,16000 <_ldtoa_r+0x8e0>
   15ffc:	00048693          	mv	a3,s1
   16000:	03000793          	li	a5,48
   16004:	02f71663          	bne	a4,a5,16030 <_ldtoa_r+0x910>
   16008:	415407b3          	sub	a5,s0,s5
   1600c:	02f6d263          	bge	a3,a5,16030 <_ldtoa_r+0x910>
   16010:	03000613          	li	a2,48
   16014:	0080006f          	j	1601c <_ldtoa_r+0x8fc>
   16018:	00e6dc63          	bge	a3,a4,16030 <_ldtoa_r+0x910>
   1601c:	ffe44783          	lbu	a5,-2(s0)
   16020:	fe040fa3          	sb	zero,-1(s0)
   16024:	fff40413          	addi	s0,s0,-1
   16028:	41540733          	sub	a4,s0,s5
   1602c:	fec786e3          	beq	a5,a2,16018 <_ldtoa_r+0x8f8>
   16030:	00012703          	lw	a4,0(sp)
   16034:	00300793          	li	a5,3
   16038:	0af70263          	beq	a4,a5,160dc <_ldtoa_r+0x9bc>
   1603c:	00812783          	lw	a5,8(sp)
   16040:	040a2223          	sw	zero,68(s4)
   16044:	00978693          	addi	a3,a5,9
   16048:	01700793          	li	a5,23
   1604c:	0cd7f263          	bgeu	a5,a3,16110 <_ldtoa_r+0x9f0>
   16050:	00100713          	li	a4,1
   16054:	00400793          	li	a5,4
   16058:	00179793          	slli	a5,a5,0x1
   1605c:	01478613          	addi	a2,a5,20
   16060:	00070593          	mv	a1,a4
   16064:	00170713          	addi	a4,a4,1
   16068:	fec6f8e3          	bgeu	a3,a2,16058 <_ldtoa_r+0x938>
   1606c:	04ba2223          	sw	a1,68(s4)
   16070:	000a0513          	mv	a0,s4
   16074:	424010ef          	jal	ra,17498 <_Balloc>
   16078:	04aa2023          	sw	a0,64(s4)
   1607c:	000a8593          	mv	a1,s5
   16080:	00050493          	mv	s1,a0
   16084:	071020ef          	jal	ra,188f4 <strcpy>
   16088:	01812783          	lw	a5,24(sp)
   1608c:	00078863          	beqz	a5,1609c <_ldtoa_r+0x97c>
   16090:	41540433          	sub	s0,s0,s5
   16094:	00848433          	add	s0,s1,s0
   16098:	0087a023          	sw	s0,0(a5)
   1609c:	1ec12083          	lw	ra,492(sp)
   160a0:	1e812403          	lw	s0,488(sp)
   160a4:	1e012903          	lw	s2,480(sp)
   160a8:	1dc12983          	lw	s3,476(sp)
   160ac:	1d812a03          	lw	s4,472(sp)
   160b0:	1d412a83          	lw	s5,468(sp)
   160b4:	1d012b03          	lw	s6,464(sp)
   160b8:	1cc12b83          	lw	s7,460(sp)
   160bc:	1c812c03          	lw	s8,456(sp)
   160c0:	1c412c83          	lw	s9,452(sp)
   160c4:	1c012d03          	lw	s10,448(sp)
   160c8:	1bc12d83          	lw	s11,444(sp)
   160cc:	00048513          	mv	a0,s1
   160d0:	1e412483          	lw	s1,484(sp)
   160d4:	1f010113          	addi	sp,sp,496
   160d8:	00008067          	ret
   160dc:	00412783          	lw	a5,4(sp)
   160e0:	009784b3          	add	s1,a5,s1
   160e4:	5004c863          	bltz	s1,165f4 <_ldtoa_r+0xed4>
   160e8:	00c12783          	lw	a5,12(sp)
   160ec:	00812703          	lw	a4,8(sp)
   160f0:	0007a783          	lw	a5,0(a5)
   160f4:	00f707b3          	add	a5,a4,a5
   160f8:	00f12423          	sw	a5,8(sp)
   160fc:	00812783          	lw	a5,8(sp)
   16100:	040a2223          	sw	zero,68(s4)
   16104:	00378693          	addi	a3,a5,3
   16108:	01700793          	li	a5,23
   1610c:	f4d7e2e3          	bltu	a5,a3,16050 <_ldtoa_r+0x930>
   16110:	00000593          	li	a1,0
   16114:	f5dff06f          	j	16070 <_ldtoa_r+0x950>
   16118:	03000793          	li	a5,48
   1611c:	f2f710e3          	bne	a4,a5,1603c <_ldtoa_r+0x91c>
   16120:	415407b3          	sub	a5,s0,s5
   16124:	00100693          	li	a3,1
   16128:	eef6c4e3          	blt	a3,a5,16010 <_ldtoa_r+0x8f0>
   1612c:	f11ff06f          	j	1603c <_ldtoa_r+0x91c>
   16130:	00812483          	lw	s1,8(sp)
   16134:	00912223          	sw	s1,4(sp)
   16138:	02a00793          	li	a5,42
   1613c:	ec97d063          	bge	a5,s1,157fc <_ldtoa_r+0xdc>
   16140:	00f12223          	sw	a5,4(sp)
   16144:	eb8ff06f          	j	157fc <_ldtoa_r+0xdc>
   16148:	0007c703          	lbu	a4,0(a5)
   1614c:	e2070ae3          	beqz	a4,15f80 <_ldtoa_r+0x860>
   16150:	0017c703          	lbu	a4,1(a5)
   16154:	00178793          	addi	a5,a5,1
   16158:	fee78fa3          	sb	a4,-1(a5)
   1615c:	fe071ae3          	bnez	a4,16150 <_ldtoa_r+0xa30>
   16160:	e21ff06f          	j	15f80 <_ldtoa_r+0x860>
   16164:	00c12703          	lw	a4,12(sp)
   16168:	000027b7          	lui	a5,0x2
   1616c:	70f78793          	addi	a5,a5,1807 # 270f <register_fini-0xd965>
   16170:	00f72023          	sw	a5,0(a4)
   16174:	e2dff06f          	j	15fa0 <_ldtoa_r+0x880>
   16178:	03100713          	li	a4,49
   1617c:	12e102a3          	sb	a4,293(sp)
   16180:	02e00713          	li	a4,46
   16184:	12e10323          	sb	a4,294(sp)
   16188:	00148493          	addi	s1,s1,1
   1618c:	2af05c63          	blez	a5,16444 <_ldtoa_r+0xd24>
   16190:	03000793          	li	a5,48
   16194:	12f103a3          	sb	a5,295(sp)
   16198:	12810793          	addi	a5,sp,296
   1619c:	fff40413          	addi	s0,s0,-1
   161a0:	00f12823          	sw	a5,16(sp)
   161a4:	b11ff06f          	j	15cb4 <_ldtoa_r+0x594>
   161a8:	0b410c93          	addi	s9,sp,180
   161ac:	000c8713          	mv	a4,s9
   161b0:	07c10793          	addi	a5,sp,124
   161b4:	09010613          	addi	a2,sp,144
   161b8:	0007d683          	lhu	a3,0(a5)
   161bc:	00278793          	addi	a5,a5,2
   161c0:	00270713          	addi	a4,a4,2
   161c4:	fed71f23          	sh	a3,-2(a4)
   161c8:	fec798e3          	bne	a5,a2,161b8 <_ldtoa_r+0xa98>
   161cc:	000047b7          	lui	a5,0x4
   161d0:	08e78793          	addi	a5,a5,142 # 408e <register_fini-0xbfe6>
   161d4:	0cf11323          	sh	a5,198(sp)
   161d8:	000087b7          	lui	a5,0x8
   161dc:	fff78793          	addi	a5,a5,-1 # 7fff <register_fini-0x8075>
   161e0:	00f12e23          	sw	a5,28(sp)
   161e4:	ffffc7b7          	lui	a5,0xffffc
   161e8:	12410a93          	addi	s5,sp,292
   161ec:	0d010413          	addi	s0,sp,208
   161f0:	01000e13          	li	t3,16
   161f4:	0c8d8313          	addi	t1,s11,200
   161f8:	00278793          	addi	a5,a5,2 # ffffc002 <__BSS_END__+0xfffd50d6>
   161fc:	03412423          	sw	s4,40(sp)
   16200:	03512223          	sw	s5,36(sp)
   16204:	00000493          	li	s1,0
   16208:	000c8a93          	mv	s5,s9
   1620c:	16010913          	addi	s2,sp,352
   16210:	00040c93          	mv	s9,s0
   16214:	0aa10b93          	addi	s7,sp,170
   16218:	02f12023          	sw	a5,32(sp)
   1621c:	000e0a13          	mv	s4,t3
   16220:	00030413          	mv	s0,t1
   16224:	00090693          	mv	a3,s2
   16228:	09810613          	addi	a2,sp,152
   1622c:	000a8593          	mv	a1,s5
   16230:	00040513          	mv	a0,s0
   16234:	e95fe0ef          	jal	ra,150c8 <ediv>
   16238:	04c10713          	addi	a4,sp,76
   1623c:	09810793          	addi	a5,sp,152
   16240:	0007d683          	lhu	a3,0(a5)
   16244:	00278793          	addi	a5,a5,2
   16248:	00270713          	addi	a4,a4,2
   1624c:	fed71f23          	sh	a3,-2(a4)
   16250:	ffa798e3          	bne	a5,s10,16240 <_ldtoa_r+0xb20>
   16254:	01c12783          	lw	a5,28(sp)
   16258:	05e15583          	lhu	a1,94(sp)
   1625c:	00f5f633          	and	a2,a1,a5
   16260:	02012783          	lw	a5,32(sp)
   16264:	00f60533          	add	a0,a2,a5
   16268:	3aa05063          	blez	a0,16608 <_ldtoa_r+0xee8>
   1626c:	09000613          	li	a2,144
   16270:	40a60633          	sub	a2,a2,a0
   16274:	000c8713          	mv	a4,s9
   16278:	04c10793          	addi	a5,sp,76
   1627c:	0007d683          	lhu	a3,0(a5)
   16280:	00278793          	addi	a5,a5,2
   16284:	00270713          	addi	a4,a4,2
   16288:	fed71f23          	sh	a3,-2(a4)
   1628c:	ff3798e3          	bne	a5,s3,1627c <_ldtoa_r+0xb5c>
   16290:	06c05463          	blez	a2,162f8 <_ldtoa_r+0xbd8>
   16294:	00f00793          	li	a5,15
   16298:	000c8713          	mv	a4,s9
   1629c:	02c7dc63          	bge	a5,a2,162d4 <_ldtoa_r+0xbb4>
   162a0:	ff060613          	addi	a2,a2,-16
   162a4:	00465693          	srli	a3,a2,0x4
   162a8:	00168713          	addi	a4,a3,1
   162ac:	00171713          	slli	a4,a4,0x1
   162b0:	00ec8733          	add	a4,s9,a4
   162b4:	000c8793          	mv	a5,s9
   162b8:	00278793          	addi	a5,a5,2
   162bc:	fe079f23          	sh	zero,-2(a5)
   162c0:	fee79ce3          	bne	a5,a4,162b8 <_ldtoa_r+0xb98>
   162c4:	08000613          	li	a2,128
   162c8:	40a60633          	sub	a2,a2,a0
   162cc:	00469693          	slli	a3,a3,0x4
   162d0:	40d60633          	sub	a2,a2,a3
   162d4:	00161613          	slli	a2,a2,0x1
   162d8:	00cd8633          	add	a2,s11,a2
   162dc:	00075783          	lhu	a5,0(a4)
   162e0:	23065683          	lhu	a3,560(a2)
   162e4:	00d7f7b3          	and	a5,a5,a3
   162e8:	00f71023          	sh	a5,0(a4)
   162ec:	01059593          	slli	a1,a1,0x10
   162f0:	4105d593          	srai	a1,a1,0x10
   162f4:	1605c063          	bltz	a1,16454 <_ldtoa_r+0xd34>
   162f8:	09810793          	addi	a5,sp,152
   162fc:	000c8713          	mv	a4,s9
   16300:	0007d603          	lhu	a2,0(a5)
   16304:	00075683          	lhu	a3,0(a4)
   16308:	00278793          	addi	a5,a5,2
   1630c:	00270713          	addi	a4,a4,2
   16310:	02d61463          	bne	a2,a3,16338 <_ldtoa_r+0xc18>
   16314:	fefb96e3          	bne	s7,a5,16300 <_ldtoa_r+0xbe0>
   16318:	000a8713          	mv	a4,s5
   1631c:	09810793          	addi	a5,sp,152
   16320:	0007d683          	lhu	a3,0(a5)
   16324:	00278793          	addi	a5,a5,2
   16328:	00270713          	addi	a4,a4,2
   1632c:	fed71f23          	sh	a3,-2(a4)
   16330:	ffa798e3          	bne	a5,s10,16320 <_ldtoa_r+0xc00>
   16334:	014484b3          	add	s1,s1,s4
   16338:	01440413          	addi	s0,s0,20
   1633c:	12cd8793          	addi	a5,s11,300
   16340:	001a5a13          	srli	s4,s4,0x1
   16344:	eef410e3          	bne	s0,a5,16224 <_ldtoa_r+0xb04>
   16348:	0c615783          	lhu	a5,198(sp)
   1634c:	08e15703          	lhu	a4,142(sp)
   16350:	000c8413          	mv	s0,s9
   16354:	02812a03          	lw	s4,40(sp)
   16358:	00e787b3          	add	a5,a5,a4
   1635c:	ffffc737          	lui	a4,0xffffc
   16360:	000a8c93          	mv	s9,s5
   16364:	f7270713          	addi	a4,a4,-142 # ffffbf72 <__BSS_END__+0xfffd5046>
   16368:	02412a83          	lw	s5,36(sp)
   1636c:	00e787b3          	add	a5,a5,a4
   16370:	0cf11323          	sh	a5,198(sp)
   16374:	07c10713          	addi	a4,sp,124
   16378:	000c8793          	mv	a5,s9
   1637c:	0c810613          	addi	a2,sp,200
   16380:	0007d683          	lhu	a3,0(a5)
   16384:	00278793          	addi	a5,a5,2
   16388:	00270713          	addi	a4,a4,2
   1638c:	fed71f23          	sh	a3,-2(a4)
   16390:	fec798e3          	bne	a5,a2,16380 <_ldtoa_r+0xc60>
   16394:	00000713          	li	a4,0
   16398:	09810793          	addi	a5,sp,152
   1639c:	0080006f          	j	163a4 <_ldtoa_r+0xc84>
   163a0:	000c5703          	lhu	a4,0(s8)
   163a4:	00278793          	addi	a5,a5,2
   163a8:	fee79f23          	sh	a4,-2(a5)
   163ac:	002c0c13          	addi	s8,s8,2
   163b0:	ffa798e3          	bne	a5,s10,163a0 <_ldtoa_r+0xc80>
   163b4:	028d8d13          	addi	s10,s11,40
   163b8:	00001c37          	lui	s8,0x1
   163bc:	118d8d93          	addi	s11,s11,280
   163c0:	0100006f          	j	163d0 <_ldtoa_r+0xcb0>
   163c4:	001c5c13          	srli	s8,s8,0x1
   163c8:	29bd0063          	beq	s10,s11,16648 <_ldtoa_r+0xf28>
   163cc:	014d0d13          	addi	s10,s10,20
   163d0:	000c8593          	mv	a1,s9
   163d4:	000d8513          	mv	a0,s11
   163d8:	de5fd0ef          	jal	ra,141bc <ecmp>
   163dc:	00050793          	mv	a5,a0
   163e0:	000c8593          	mv	a1,s9
   163e4:	000d0513          	mv	a0,s10
   163e8:	26f04063          	bgtz	a5,16648 <_ldtoa_r+0xf28>
   163ec:	dd1fd0ef          	jal	ra,141bc <ecmp>
   163f0:	fca04ae3          	bgtz	a0,163c4 <_ldtoa_r+0xca4>
   163f4:	00090693          	mv	a3,s2
   163f8:	000c8613          	mv	a2,s9
   163fc:	000c8593          	mv	a1,s9
   16400:	000d0513          	mv	a0,s10
   16404:	cc5fe0ef          	jal	ra,150c8 <ediv>
   16408:	09810613          	addi	a2,sp,152
   1640c:	00090693          	mv	a3,s2
   16410:	00060593          	mv	a1,a2
   16414:	000d0513          	mv	a0,s10
   16418:	899fe0ef          	jal	ra,14cb0 <emul>
   1641c:	018484b3          	add	s1,s1,s8
   16420:	fa5ff06f          	j	163c4 <_ldtoa_r+0xca4>
   16424:	12410a93          	addi	s5,sp,292
   16428:	000255b7          	lui	a1,0x25
   1642c:	92458593          	addi	a1,a1,-1756 # 24924 <zeroes.4484+0x10>
   16430:	000a8513          	mv	a0,s5
   16434:	000024b7          	lui	s1,0x2
   16438:	2e8020ef          	jal	ra,18720 <sprintf>
   1643c:	70f48493          	addi	s1,s1,1807 # 270f <register_fini-0xd965>
   16440:	ae1ff06f          	j	15f20 <_ldtoa_r+0x800>
   16444:	12710c13          	addi	s8,sp,295
   16448:	ac0792e3          	bnez	a5,15f0c <_ldtoa_r+0x7ec>
   1644c:	01812823          	sw	s8,16(sp)
   16450:	865ff06f          	j	15cb4 <_ldtoa_r+0x594>
   16454:	04c10793          	addi	a5,sp,76
   16458:	000c8713          	mv	a4,s9
   1645c:	00c0006f          	j	16468 <_ldtoa_r+0xd48>
   16460:	05e10693          	addi	a3,sp,94
   16464:	e8f68ae3          	beq	a3,a5,162f8 <_ldtoa_r+0xbd8>
   16468:	0007d603          	lhu	a2,0(a5)
   1646c:	00075683          	lhu	a3,0(a4)
   16470:	00278793          	addi	a5,a5,2
   16474:	00270713          	addi	a4,a4,2
   16478:	fed604e3          	beq	a2,a3,16460 <_ldtoa_r+0xd40>
   1647c:	0e215783          	lhu	a5,226(sp)
   16480:	01c12703          	lw	a4,28(sp)
   16484:	00f777b3          	and	a5,a4,a5
   16488:	00e79e63          	bne	a5,a4,164a4 <_ldtoa_r+0xd84>
   1648c:	000c8513          	mv	a0,s9
   16490:	b85fd0ef          	jal	ra,14014 <eisnan.part.0>
   16494:	e60512e3          	bnez	a0,162f8 <_ldtoa_r+0xbd8>
   16498:	000c8513          	mv	a0,s9
   1649c:	e3dfd0ef          	jal	ra,142d8 <eisinf.part.0>
   164a0:	e4051ce3          	bnez	a0,162f8 <_ldtoa_r+0xbd8>
   164a4:	0ec10593          	addi	a1,sp,236
   164a8:	000c0513          	mv	a0,s8
   164ac:	c19fd0ef          	jal	ra,140c4 <emovi>
   164b0:	10810593          	addi	a1,sp,264
   164b4:	000c8513          	mv	a0,s9
   164b8:	c0dfd0ef          	jal	ra,140c4 <emovi>
   164bc:	0ec15603          	lhu	a2,236(sp)
   164c0:	10a15503          	lhu	a0,266(sp)
   164c4:	0ee15883          	lhu	a7,238(sp)
   164c8:	fff64613          	not	a2,a2
   164cc:	01061613          	slli	a2,a2,0x10
   164d0:	01065613          	srli	a2,a2,0x10
   164d4:	0ec11623          	sh	a2,236(sp)
   164d8:	40a885b3          	sub	a1,a7,a0
   164dc:	00050693          	mv	a3,a0
   164e0:	06b05e63          	blez	a1,1655c <_ldtoa_r+0xe3c>
   164e4:	02412683          	lw	a3,36(sp)
   164e8:	10810713          	addi	a4,sp,264
   164ec:	12010793          	addi	a5,sp,288
   164f0:	00075583          	lhu	a1,0(a4)
   164f4:	00270713          	addi	a4,a4,2
   164f8:	00268693          	addi	a3,a3,2
   164fc:	feb69f23          	sh	a1,-2(a3)
   16500:	fef718e3          	bne	a4,a5,164f0 <_ldtoa_r+0xdd0>
   16504:	12011e23          	sh	zero,316(sp)
   16508:	10810713          	addi	a4,sp,264
   1650c:	0ec10693          	addi	a3,sp,236
   16510:	0080006f          	j	16518 <_ldtoa_r+0xdf8>
   16514:	0006d603          	lhu	a2,0(a3)
   16518:	00270713          	addi	a4,a4,2
   1651c:	fec71f23          	sh	a2,-2(a4)
   16520:	00268693          	addi	a3,a3,2
   16524:	fef718e3          	bne	a4,a5,16514 <_ldtoa_r+0xdf4>
   16528:	02412783          	lw	a5,36(sp)
   1652c:	12011023          	sh	zero,288(sp)
   16530:	0ec10713          	addi	a4,sp,236
   16534:	13c10613          	addi	a2,sp,316
   16538:	0007d683          	lhu	a3,0(a5)
   1653c:	00278793          	addi	a5,a5,2
   16540:	00270713          	addi	a4,a4,2
   16544:	fed71f23          	sh	a3,-2(a4)
   16548:	fec798e3          	bne	a5,a2,16538 <_ldtoa_r+0xe18>
   1654c:	10a15683          	lhu	a3,266(sp)
   16550:	411505b3          	sub	a1,a0,a7
   16554:	10011223          	sh	zero,260(sp)
   16558:	00068513          	mv	a0,a3
   1655c:	2c058663          	beqz	a1,16828 <_ldtoa_r+0x1108>
   16560:	02d12623          	sw	a3,44(sp)
   16564:	f6f00793          	li	a5,-145
   16568:	06f5c863          	blt	a1,a5,165d8 <_ldtoa_r+0xeb8>
   1656c:	0ec10513          	addi	a0,sp,236
   16570:	d85fd0ef          	jal	ra,142f4 <eshift.part.0>
   16574:	02c12683          	lw	a3,44(sp)
   16578:	00050593          	mv	a1,a0
   1657c:	12010793          	addi	a5,sp,288
   16580:	10410513          	addi	a0,sp,260
   16584:	0ec15603          	lhu	a2,236(sp)
   16588:	10815703          	lhu	a4,264(sp)
   1658c:	2ee60a63          	beq	a2,a4,16880 <_ldtoa_r+0x1160>
   16590:	00000713          	li	a4,0
   16594:	00070613          	mv	a2,a4
   16598:	0007d703          	lhu	a4,0(a5)
   1659c:	00055803          	lhu	a6,0(a0)
   165a0:	ffe78793          	addi	a5,a5,-2
   165a4:	40c70733          	sub	a4,a4,a2
   165a8:	41070733          	sub	a4,a4,a6
   165ac:	01075613          	srli	a2,a4,0x10
   165b0:	00e79123          	sh	a4,2(a5)
   165b4:	10a10713          	addi	a4,sp,266
   165b8:	00167613          	andi	a2,a2,1
   165bc:	ffe50513          	addi	a0,a0,-2
   165c0:	fce79ce3          	bne	a5,a4,16598 <_ldtoa_r+0xe78>
   165c4:	00100613          	li	a2,1
   165c8:	00090793          	mv	a5,s2
   165cc:	04000713          	li	a4,64
   165d0:	10810513          	addi	a0,sp,264
   165d4:	8b8fe0ef          	jal	ra,1468c <emdnorm>
   165d8:	000c8593          	mv	a1,s9
   165dc:	10810513          	addi	a0,sp,264
   165e0:	e20fe0ef          	jal	ra,14c00 <emovo.isra.0>
   165e4:	d15ff06f          	j	162f8 <_ldtoa_r+0xbd8>
   165e8:	00812783          	lw	a5,8(sp)
   165ec:	fff78493          	addi	s1,a5,-1
   165f0:	b45ff06f          	j	16134 <_ldtoa_r+0xa14>
   165f4:	00c12783          	lw	a5,12(sp)
   165f8:	12010223          	sb	zero,292(sp)
   165fc:	000a8413          	mv	s0,s5
   16600:	0007a023          	sw	zero,0(a5)
   16604:	af9ff06f          	j	160fc <_ldtoa_r+0x9dc>
   16608:	000c8793          	mv	a5,s9
   1660c:	0e410713          	addi	a4,sp,228
   16610:	00278793          	addi	a5,a5,2
   16614:	fe079f23          	sh	zero,-2(a5)
   16618:	fee79ce3          	bne	a5,a4,16610 <_ldtoa_r+0xef0>
   1661c:	cd1ff06f          	j	162ec <_ldtoa_r+0xbcc>
   16620:	01012783          	lw	a5,16(sp)
   16624:	12410a93          	addi	s5,sp,292
   16628:	06078a63          	beqz	a5,1669c <_ldtoa_r+0xf7c>
   1662c:	000255b7          	lui	a1,0x25
   16630:	92c58593          	addi	a1,a1,-1748 # 2492c <zeroes.4484+0x18>
   16634:	000a8513          	mv	a0,s5
   16638:	000024b7          	lui	s1,0x2
   1663c:	0e4020ef          	jal	ra,18720 <sprintf>
   16640:	70f48493          	addi	s1,s1,1807 # 270f <register_fini-0xd965>
   16644:	8ddff06f          	j	15f20 <_ldtoa_r+0x800>
   16648:	0e810b93          	addi	s7,sp,232
   1664c:	bd8ff06f          	j	15a24 <_ldtoa_r+0x304>
   16650:	03100793          	li	a5,49
   16654:	fef90f23          	sb	a5,-2(s2)
   16658:	00148493          	addi	s1,s1,1
   1665c:	8b1ff06f          	j	15f0c <_ldtoa_r+0x7ec>
   16660:	00178793          	addi	a5,a5,1
   16664:	00f70023          	sb	a5,0(a4)
   16668:	8a5ff06f          	j	15f0c <_ldtoa_r+0x7ec>
   1666c:	12410a93          	addi	s5,sp,292
   16670:	000255b7          	lui	a1,0x25
   16674:	94458593          	addi	a1,a1,-1724 # 24944 <zeroes.4484+0x30>
   16678:	000a8513          	mv	a0,s5
   1667c:	000024b7          	lui	s1,0x2
   16680:	0a0020ef          	jal	ra,18720 <sprintf>
   16684:	70f48493          	addi	s1,s1,1807 # 270f <register_fini-0xd965>
   16688:	899ff06f          	j	15f20 <_ldtoa_r+0x800>
   1668c:	1ac15783          	lhu	a5,428(sp)
   16690:	12610c13          	addi	s8,sp,294
   16694:	12710913          	addi	s2,sp,295
   16698:	815ff06f          	j	15eac <_ldtoa_r+0x78c>
   1669c:	000255b7          	lui	a1,0x25
   166a0:	93858593          	addi	a1,a1,-1736 # 24938 <zeroes.4484+0x24>
   166a4:	000a8513          	mv	a0,s5
   166a8:	000024b7          	lui	s1,0x2
   166ac:	074020ef          	jal	ra,18720 <sprintf>
   166b0:	70f48493          	addi	s1,s1,1807 # 270f <register_fini-0xd965>
   166b4:	86dff06f          	j	15f20 <_ldtoa_r+0x800>
   166b8:	09810593          	addi	a1,sp,152
   166bc:	07c10513          	addi	a0,sp,124
   166c0:	d40fe0ef          	jal	ra,14c00 <emovo.isra.0>
   166c4:	94cb0593          	addi	a1,s6,-1716
   166c8:	09810513          	addi	a0,sp,152
   166cc:	af1fd0ef          	jal	ra,141bc <ecmp>
   166d0:	fe051663          	bnez	a0,15ebc <_ldtoa_r+0x79c>
   166d4:	82044ce3          	bltz	s0,15f0c <_ldtoa_r+0x7ec>
   166d8:	ffe94783          	lbu	a5,-2(s2)
   166dc:	fd278713          	addi	a4,a5,-46
   166e0:	00173713          	seqz	a4,a4
   166e4:	fff74713          	not	a4,a4
   166e8:	00ec0733          	add	a4,s8,a4
   166ec:	00074703          	lbu	a4,0(a4)
   166f0:	00177713          	andi	a4,a4,1
   166f4:	80070ce3          	beqz	a4,15f0c <_ldtoa_r+0x7ec>
   166f8:	ffe90713          	addi	a4,s2,-2
   166fc:	07f7f793          	andi	a5,a5,127
   16700:	fccff06f          	j	15ecc <_ldtoa_r+0x7ac>
   16704:	00178793          	addi	a5,a5,1
   16708:	fef70fa3          	sb	a5,-1(a4)
   1670c:	801ff06f          	j	15f0c <_ldtoa_r+0x7ec>
   16710:	0d010413          	addi	s0,sp,208
   16714:	00040593          	mv	a1,s0
   16718:	07c10513          	addi	a0,sp,124
   1671c:	00004cb7          	lui	s9,0x4
   16720:	9a5fd0ef          	jal	ra,140c4 <emovi>
   16724:	00000493          	li	s1,0
   16728:	0e810b93          	addi	s7,sp,232
   1672c:	0cc10913          	addi	s2,sp,204
   16730:	0d210a93          	addi	s5,sp,210
   16734:	ffec8c93          	addi	s9,s9,-2 # 3ffe <register_fini-0xc076>
   16738:	0e815783          	lhu	a5,232(sp)
   1673c:	0077f793          	andi	a5,a5,7
   16740:	0c079a63          	bnez	a5,16814 <_ldtoa_r+0x10f4>
   16744:	0b410713          	addi	a4,sp,180
   16748:	00040793          	mv	a5,s0
   1674c:	0007d683          	lhu	a3,0(a5)
   16750:	00278793          	addi	a5,a5,2
   16754:	00270713          	addi	a4,a4,2
   16758:	fed71f23          	sh	a3,-2(a4)
   1675c:	ff7798e3          	bne	a5,s7,1674c <_ldtoa_r+0x102c>
   16760:	0b410513          	addi	a0,sp,180
   16764:	0c011623          	sh	zero,204(sp)
   16768:	ef8fd0ef          	jal	ra,13e60 <eshdn1>
   1676c:	0b410513          	addi	a0,sp,180
   16770:	ef0fd0ef          	jal	ra,13e60 <eshdn1>
   16774:	00000613          	li	a2,0
   16778:	00090693          	mv	a3,s2
   1677c:	000b8713          	mv	a4,s7
   16780:	0006d583          	lhu	a1,0(a3)
   16784:	00075783          	lhu	a5,0(a4)
   16788:	ffe68693          	addi	a3,a3,-2
   1678c:	ffe70713          	addi	a4,a4,-2
   16790:	00b787b3          	add	a5,a5,a1
   16794:	00c787b3          	add	a5,a5,a2
   16798:	0107d613          	srli	a2,a5,0x10
   1679c:	00f69123          	sh	a5,2(a3)
   167a0:	00167613          	andi	a2,a2,1
   167a4:	fd571ee3          	bne	a4,s5,16780 <_ldtoa_r+0x1060>
   167a8:	0b615783          	lhu	a5,182(sp)
   167ac:	0b815703          	lhu	a4,184(sp)
   167b0:	00378793          	addi	a5,a5,3
   167b4:	0af11b23          	sh	a5,182(sp)
   167b8:	02070063          	beqz	a4,167d8 <_ldtoa_r+0x10b8>
   167bc:	0b410513          	addi	a0,sp,180
   167c0:	ea0fd0ef          	jal	ra,13e60 <eshdn1>
   167c4:	0b615783          	lhu	a5,182(sp)
   167c8:	0b815703          	lhu	a4,184(sp)
   167cc:	00178793          	addi	a5,a5,1
   167d0:	0af11b23          	sh	a5,182(sp)
   167d4:	fe0714e3          	bnez	a4,167bc <_ldtoa_r+0x109c>
   167d8:	0cc15783          	lhu	a5,204(sp)
   167dc:	02079c63          	bnez	a5,16814 <_ldtoa_r+0x10f4>
   167e0:	0b615783          	lhu	a5,182(sp)
   167e4:	02fce863          	bltu	s9,a5,16814 <_ldtoa_r+0x10f4>
   167e8:	00040713          	mv	a4,s0
   167ec:	0b410793          	addi	a5,sp,180
   167f0:	0007d683          	lhu	a3,0(a5)
   167f4:	00278793          	addi	a5,a5,2
   167f8:	00270713          	addi	a4,a4,2
   167fc:	fed71f23          	sh	a3,-2(a4)
   16800:	ff2798e3          	bne	a5,s2,167f0 <_ldtoa_r+0x10d0>
   16804:	0e011423          	sh	zero,232(sp)
   16808:	fff48493          	addi	s1,s1,-1
   1680c:	fd500793          	li	a5,-43
   16810:	f2f494e3          	bne	s1,a5,16738 <_ldtoa_r+0x1018>
   16814:	07c10593          	addi	a1,sp,124
   16818:	00040513          	mv	a0,s0
   1681c:	be4fe0ef          	jal	ra,14c00 <emovo.isra.0>
   16820:	16010913          	addi	s2,sp,352
   16824:	8f4ff06f          	j	15918 <_ldtoa_r+0x1f8>
   16828:	10c10713          	addi	a4,sp,268
   1682c:	0f010793          	addi	a5,sp,240
   16830:	0007d883          	lhu	a7,0(a5)
   16834:	00075603          	lhu	a2,0(a4)
   16838:	00278793          	addi	a5,a5,2
   1683c:	00270713          	addi	a4,a4,2
   16840:	02c89863          	bne	a7,a2,16870 <_ldtoa_r+0x1150>
   16844:	10610613          	addi	a2,sp,262
   16848:	fec794e3          	bne	a5,a2,16830 <_ldtoa_r+0x1110>
   1684c:	0ec15703          	lhu	a4,236(sp)
   16850:	10815783          	lhu	a5,264(sp)
   16854:	06f70263          	beq	a4,a5,168b8 <_ldtoa_r+0x1198>
   16858:	000c8793          	mv	a5,s9
   1685c:	0e410713          	addi	a4,sp,228
   16860:	00278793          	addi	a5,a5,2
   16864:	fe079f23          	sh	zero,-2(a5)
   16868:	fee79ce3          	bne	a5,a4,16860 <_ldtoa_r+0x1140>
   1686c:	a8dff06f          	j	162f8 <_ldtoa_r+0xbd8>
   16870:	0d166663          	bltu	a2,a7,1693c <_ldtoa_r+0x121c>
   16874:	12010793          	addi	a5,sp,288
   16878:	10410513          	addi	a0,sp,260
   1687c:	d09ff06f          	j	16584 <_ldtoa_r+0xe64>
   16880:	00000713          	li	a4,0
   16884:	0ee10313          	addi	t1,sp,238
   16888:	0007d803          	lhu	a6,0(a5)
   1688c:	00055603          	lhu	a2,0(a0)
   16890:	ffe78793          	addi	a5,a5,-2
   16894:	ffe50513          	addi	a0,a0,-2
   16898:	01060633          	add	a2,a2,a6
   1689c:	00e60733          	add	a4,a2,a4
   168a0:	01075613          	srli	a2,a4,0x10
   168a4:	00e79123          	sh	a4,2(a5)
   168a8:	00167713          	andi	a4,a2,1
   168ac:	fc651ee3          	bne	a0,t1,16888 <_ldtoa_r+0x1168>
   168b0:	00000613          	li	a2,0
   168b4:	d15ff06f          	j	165c8 <_ldtoa_r+0xea8>
   168b8:	00068713          	mv	a4,a3
   168bc:	06069263          	bnez	a3,16920 <_ldtoa_r+0x1200>
   168c0:	10e11783          	lh	a5,270(sp)
   168c4:	0407ce63          	bltz	a5,16920 <_ldtoa_r+0x1200>
   168c8:	12010693          	addi	a3,sp,288
   168cc:	0200006f          	j	168ec <_ldtoa_r+0x11cc>
   168d0:	00f69023          	sh	a5,0(a3)
   168d4:	00171713          	slli	a4,a4,0x1
   168d8:	01071713          	slli	a4,a4,0x10
   168dc:	ffe68693          	addi	a3,a3,-2
   168e0:	10a10793          	addi	a5,sp,266
   168e4:	01075713          	srli	a4,a4,0x10
   168e8:	cef688e3          	beq	a3,a5,165d8 <_ldtoa_r+0xeb8>
   168ec:	0006d783          	lhu	a5,0(a3)
   168f0:	01079613          	slli	a2,a5,0x10
   168f4:	41065613          	srai	a2,a2,0x10
   168f8:	00179793          	slli	a5,a5,0x1
   168fc:	00065463          	bgez	a2,16904 <_ldtoa_r+0x11e4>
   16900:	00176713          	ori	a4,a4,1
   16904:	01079793          	slli	a5,a5,0x10
   16908:	0107d793          	srli	a5,a5,0x10
   1690c:	00277613          	andi	a2,a4,2
   16910:	0017e593          	ori	a1,a5,1
   16914:	fa060ee3          	beqz	a2,168d0 <_ldtoa_r+0x11b0>
   16918:	00b69023          	sh	a1,0(a3)
   1691c:	fb9ff06f          	j	168d4 <_ldtoa_r+0x11b4>
   16920:	10c10613          	addi	a2,sp,268
   16924:	12010793          	addi	a5,sp,288
   16928:	08071263          	bnez	a4,169ac <_ldtoa_r+0x128c>
   1692c:	08c78263          	beq	a5,a2,169b0 <_ldtoa_r+0x1290>
   16930:	00065703          	lhu	a4,0(a2)
   16934:	00260613          	addi	a2,a2,2
   16938:	ff1ff06f          	j	16928 <_ldtoa_r+0x1208>
   1693c:	02412603          	lw	a2,36(sp)
   16940:	10810713          	addi	a4,sp,264
   16944:	12010793          	addi	a5,sp,288
   16948:	00075503          	lhu	a0,0(a4)
   1694c:	00270713          	addi	a4,a4,2
   16950:	00260613          	addi	a2,a2,2
   16954:	fea61f23          	sh	a0,-2(a2)
   16958:	fef718e3          	bne	a4,a5,16948 <_ldtoa_r+0x1228>
   1695c:	12011e23          	sh	zero,316(sp)
   16960:	10810613          	addi	a2,sp,264
   16964:	0ec10713          	addi	a4,sp,236
   16968:	10410513          	addi	a0,sp,260
   1696c:	00075803          	lhu	a6,0(a4)
   16970:	00270713          	addi	a4,a4,2
   16974:	00260613          	addi	a2,a2,2
   16978:	ff061f23          	sh	a6,-2(a2)
   1697c:	fea718e3          	bne	a4,a0,1696c <_ldtoa_r+0x124c>
   16980:	02412703          	lw	a4,36(sp)
   16984:	12011023          	sh	zero,288(sp)
   16988:	0ec10893          	addi	a7,sp,236
   1698c:	13c10613          	addi	a2,sp,316
   16990:	00075803          	lhu	a6,0(a4)
   16994:	00270713          	addi	a4,a4,2
   16998:	00288893          	addi	a7,a7,2
   1699c:	ff089f23          	sh	a6,-2(a7)
   169a0:	fec718e3          	bne	a4,a2,16990 <_ldtoa_r+0x1270>
   169a4:	10011223          	sh	zero,260(sp)
   169a8:	bddff06f          	j	16584 <_ldtoa_r+0xe64>
   169ac:	00168513          	addi	a0,a3,1
   169b0:	10a11523          	sh	a0,266(sp)
   169b4:	c25ff06f          	j	165d8 <_ldtoa_r+0xeb8>

000169b8 <_ldcheck>:
   169b8:	00852703          	lw	a4,8(a0)
   169bc:	00c52783          	lw	a5,12(a0)
   169c0:	00052603          	lw	a2,0(a0)
   169c4:	00452683          	lw	a3,4(a0)
   169c8:	fc010113          	addi	sp,sp,-64
   169cc:	00010513          	mv	a0,sp
   169d0:	01410593          	addi	a1,sp,20
   169d4:	00e12423          	sw	a4,8(sp)
   169d8:	00f12623          	sw	a5,12(sp)
   169dc:	02112e23          	sw	ra,60(sp)
   169e0:	00c12023          	sw	a2,0(sp)
   169e4:	00d12223          	sw	a3,4(sp)
   169e8:	bf5fe0ef          	jal	ra,155dc <e113toe.isra.0>
   169ec:	02615783          	lhu	a5,38(sp)
   169f0:	00000513          	li	a0,0
   169f4:	fff7c793          	not	a5,a5
   169f8:	01179713          	slli	a4,a5,0x11
   169fc:	00071a63          	bnez	a4,16a10 <_ldcheck+0x58>
   16a00:	01410513          	addi	a0,sp,20
   16a04:	e10fd0ef          	jal	ra,14014 <eisnan.part.0>
   16a08:	00153513          	seqz	a0,a0
   16a0c:	00150513          	addi	a0,a0,1
   16a10:	03c12083          	lw	ra,60(sp)
   16a14:	04010113          	addi	sp,sp,64
   16a18:	00008067          	ret

00016a1c <__localeconv_l>:
   16a1c:	0f050513          	addi	a0,a0,240
   16a20:	00008067          	ret

00016a24 <_localeconv_r>:
   16a24:	12018513          	addi	a0,gp,288 # 26e18 <__global_locale+0xf0>
   16a28:	00008067          	ret

00016a2c <localeconv>:
   16a2c:	12018513          	addi	a0,gp,288 # 26e18 <__global_locale+0xf0>
   16a30:	00008067          	ret

00016a34 <__swhatbuf_r>:
   16a34:	f9010113          	addi	sp,sp,-112
   16a38:	06812423          	sw	s0,104(sp)
   16a3c:	00058413          	mv	s0,a1
   16a40:	00e59583          	lh	a1,14(a1)
   16a44:	06912223          	sw	s1,100(sp)
   16a48:	07212023          	sw	s2,96(sp)
   16a4c:	06112623          	sw	ra,108(sp)
   16a50:	00060493          	mv	s1,a2
   16a54:	00068913          	mv	s2,a3
   16a58:	0405ca63          	bltz	a1,16aac <__swhatbuf_r+0x78>
   16a5c:	00810613          	addi	a2,sp,8
   16a60:	3e8060ef          	jal	ra,1ce48 <_fstat_r>
   16a64:	04054463          	bltz	a0,16aac <__swhatbuf_r+0x78>
   16a68:	00c12703          	lw	a4,12(sp)
   16a6c:	0000f7b7          	lui	a5,0xf
   16a70:	06c12083          	lw	ra,108(sp)
   16a74:	00e7f7b3          	and	a5,a5,a4
   16a78:	ffffe737          	lui	a4,0xffffe
   16a7c:	00e787b3          	add	a5,a5,a4
   16a80:	06812403          	lw	s0,104(sp)
   16a84:	0017b793          	seqz	a5,a5
   16a88:	00f92023          	sw	a5,0(s2)
   16a8c:	40000793          	li	a5,1024
   16a90:	00f4a023          	sw	a5,0(s1)
   16a94:	00001537          	lui	a0,0x1
   16a98:	06412483          	lw	s1,100(sp)
   16a9c:	06012903          	lw	s2,96(sp)
   16aa0:	80050513          	addi	a0,a0,-2048 # 800 <register_fini-0xf874>
   16aa4:	07010113          	addi	sp,sp,112
   16aa8:	00008067          	ret
   16aac:	00c45783          	lhu	a5,12(s0)
   16ab0:	00092023          	sw	zero,0(s2)
   16ab4:	0807f793          	andi	a5,a5,128
   16ab8:	02078463          	beqz	a5,16ae0 <__swhatbuf_r+0xac>
   16abc:	06c12083          	lw	ra,108(sp)
   16ac0:	06812403          	lw	s0,104(sp)
   16ac4:	04000793          	li	a5,64
   16ac8:	00f4a023          	sw	a5,0(s1)
   16acc:	06012903          	lw	s2,96(sp)
   16ad0:	06412483          	lw	s1,100(sp)
   16ad4:	00000513          	li	a0,0
   16ad8:	07010113          	addi	sp,sp,112
   16adc:	00008067          	ret
   16ae0:	06c12083          	lw	ra,108(sp)
   16ae4:	06812403          	lw	s0,104(sp)
   16ae8:	40000793          	li	a5,1024
   16aec:	00f4a023          	sw	a5,0(s1)
   16af0:	06012903          	lw	s2,96(sp)
   16af4:	06412483          	lw	s1,100(sp)
   16af8:	00000513          	li	a0,0
   16afc:	07010113          	addi	sp,sp,112
   16b00:	00008067          	ret

00016b04 <__smakebuf_r>:
   16b04:	00c5d783          	lhu	a5,12(a1)
   16b08:	fe010113          	addi	sp,sp,-32
   16b0c:	00812c23          	sw	s0,24(sp)
   16b10:	00112e23          	sw	ra,28(sp)
   16b14:	00912a23          	sw	s1,20(sp)
   16b18:	01212823          	sw	s2,16(sp)
   16b1c:	0027f793          	andi	a5,a5,2
   16b20:	00058413          	mv	s0,a1
   16b24:	02078863          	beqz	a5,16b54 <__smakebuf_r+0x50>
   16b28:	04358793          	addi	a5,a1,67
   16b2c:	00f5a023          	sw	a5,0(a1)
   16b30:	00f5a823          	sw	a5,16(a1)
   16b34:	00100793          	li	a5,1
   16b38:	00f5aa23          	sw	a5,20(a1)
   16b3c:	01c12083          	lw	ra,28(sp)
   16b40:	01812403          	lw	s0,24(sp)
   16b44:	01412483          	lw	s1,20(sp)
   16b48:	01012903          	lw	s2,16(sp)
   16b4c:	02010113          	addi	sp,sp,32
   16b50:	00008067          	ret
   16b54:	00c10693          	addi	a3,sp,12
   16b58:	00810613          	addi	a2,sp,8
   16b5c:	00050493          	mv	s1,a0
   16b60:	ed5ff0ef          	jal	ra,16a34 <__swhatbuf_r>
   16b64:	00812583          	lw	a1,8(sp)
   16b68:	00050913          	mv	s2,a0
   16b6c:	00048513          	mv	a0,s1
   16b70:	0b4000ef          	jal	ra,16c24 <_malloc_r>
   16b74:	00c41783          	lh	a5,12(s0)
   16b78:	04050863          	beqz	a0,16bc8 <__smakebuf_r+0xc4>
   16b7c:	00013737          	lui	a4,0x13
   16b80:	51c70713          	addi	a4,a4,1308 # 1351c <_cleanup_r>
   16b84:	02e4ae23          	sw	a4,60(s1)
   16b88:	00812703          	lw	a4,8(sp)
   16b8c:	00c12683          	lw	a3,12(sp)
   16b90:	0807e793          	ori	a5,a5,128
   16b94:	00f41623          	sh	a5,12(s0)
   16b98:	00a42023          	sw	a0,0(s0)
   16b9c:	00a42823          	sw	a0,16(s0)
   16ba0:	00e42a23          	sw	a4,20(s0)
   16ba4:	04069863          	bnez	a3,16bf4 <__smakebuf_r+0xf0>
   16ba8:	0127e7b3          	or	a5,a5,s2
   16bac:	01c12083          	lw	ra,28(sp)
   16bb0:	00f41623          	sh	a5,12(s0)
   16bb4:	01812403          	lw	s0,24(sp)
   16bb8:	01412483          	lw	s1,20(sp)
   16bbc:	01012903          	lw	s2,16(sp)
   16bc0:	02010113          	addi	sp,sp,32
   16bc4:	00008067          	ret
   16bc8:	2007f713          	andi	a4,a5,512
   16bcc:	f60718e3          	bnez	a4,16b3c <__smakebuf_r+0x38>
   16bd0:	ffc7f793          	andi	a5,a5,-4
   16bd4:	0027e793          	ori	a5,a5,2
   16bd8:	04340713          	addi	a4,s0,67
   16bdc:	00f41623          	sh	a5,12(s0)
   16be0:	00100793          	li	a5,1
   16be4:	00e42023          	sw	a4,0(s0)
   16be8:	00e42823          	sw	a4,16(s0)
   16bec:	00f42a23          	sw	a5,20(s0)
   16bf0:	f4dff06f          	j	16b3c <__smakebuf_r+0x38>
   16bf4:	00e41583          	lh	a1,14(s0)
   16bf8:	00048513          	mv	a0,s1
   16bfc:	764060ef          	jal	ra,1d360 <_isatty_r>
   16c00:	00051663          	bnez	a0,16c0c <__smakebuf_r+0x108>
   16c04:	00c41783          	lh	a5,12(s0)
   16c08:	fa1ff06f          	j	16ba8 <__smakebuf_r+0xa4>
   16c0c:	00c45703          	lhu	a4,12(s0)
   16c10:	ffc77713          	andi	a4,a4,-4
   16c14:	00176713          	ori	a4,a4,1
   16c18:	01071793          	slli	a5,a4,0x10
   16c1c:	4107d793          	srai	a5,a5,0x10
   16c20:	f89ff06f          	j	16ba8 <__smakebuf_r+0xa4>

00016c24 <_malloc_r>:
   16c24:	fd010113          	addi	sp,sp,-48
   16c28:	01312e23          	sw	s3,28(sp)
   16c2c:	02112623          	sw	ra,44(sp)
   16c30:	02812423          	sw	s0,40(sp)
   16c34:	02912223          	sw	s1,36(sp)
   16c38:	03212023          	sw	s2,32(sp)
   16c3c:	01412c23          	sw	s4,24(sp)
   16c40:	01512a23          	sw	s5,20(sp)
   16c44:	01612823          	sw	s6,16(sp)
   16c48:	01712623          	sw	s7,12(sp)
   16c4c:	01812423          	sw	s8,8(sp)
   16c50:	01912223          	sw	s9,4(sp)
   16c54:	00b58793          	addi	a5,a1,11
   16c58:	01600713          	li	a4,22
   16c5c:	00050993          	mv	s3,a0
   16c60:	06f76463          	bltu	a4,a5,16cc8 <_malloc_r+0xa4>
   16c64:	01000793          	li	a5,16
   16c68:	1eb7e263          	bltu	a5,a1,16e4c <_malloc_r+0x228>
   16c6c:	025000ef          	jal	ra,17490 <__malloc_lock>
   16c70:	01000493          	li	s1,16
   16c74:	00200613          	li	a2,2
   16c78:	01800793          	li	a5,24
   16c7c:	c2818913          	addi	s2,gp,-984 # 26920 <__malloc_av_>
   16c80:	00f907b3          	add	a5,s2,a5
   16c84:	0047a403          	lw	s0,4(a5) # f004 <register_fini-0x1070>
   16c88:	ff878713          	addi	a4,a5,-8
   16c8c:	20e40863          	beq	s0,a4,16e9c <_malloc_r+0x278>
   16c90:	00442783          	lw	a5,4(s0)
   16c94:	00c42683          	lw	a3,12(s0)
   16c98:	00842603          	lw	a2,8(s0)
   16c9c:	ffc7f793          	andi	a5,a5,-4
   16ca0:	00f407b3          	add	a5,s0,a5
   16ca4:	0047a703          	lw	a4,4(a5)
   16ca8:	00d62623          	sw	a3,12(a2)
   16cac:	00c6a423          	sw	a2,8(a3)
   16cb0:	00176713          	ori	a4,a4,1
   16cb4:	00098513          	mv	a0,s3
   16cb8:	00e7a223          	sw	a4,4(a5)
   16cbc:	7d8000ef          	jal	ra,17494 <__malloc_unlock>
   16cc0:	00840513          	addi	a0,s0,8
   16cc4:	1940006f          	j	16e58 <_malloc_r+0x234>
   16cc8:	ff87f493          	andi	s1,a5,-8
   16ccc:	1807c063          	bltz	a5,16e4c <_malloc_r+0x228>
   16cd0:	16b4ee63          	bltu	s1,a1,16e4c <_malloc_r+0x228>
   16cd4:	7bc000ef          	jal	ra,17490 <__malloc_lock>
   16cd8:	1f700793          	li	a5,503
   16cdc:	4497fa63          	bgeu	a5,s1,17130 <_malloc_r+0x50c>
   16ce0:	0094d793          	srli	a5,s1,0x9
   16ce4:	1a078463          	beqz	a5,16e8c <_malloc_r+0x268>
   16ce8:	00400713          	li	a4,4
   16cec:	3cf76063          	bltu	a4,a5,170ac <_malloc_r+0x488>
   16cf0:	0064d793          	srli	a5,s1,0x6
   16cf4:	03978613          	addi	a2,a5,57
   16cf8:	03878513          	addi	a0,a5,56
   16cfc:	00361693          	slli	a3,a2,0x3
   16d00:	c2818913          	addi	s2,gp,-984 # 26920 <__malloc_av_>
   16d04:	00d906b3          	add	a3,s2,a3
   16d08:	0046a403          	lw	s0,4(a3)
   16d0c:	ff868693          	addi	a3,a3,-8
   16d10:	02868663          	beq	a3,s0,16d3c <_malloc_r+0x118>
   16d14:	00f00593          	li	a1,15
   16d18:	0100006f          	j	16d28 <_malloc_r+0x104>
   16d1c:	32075263          	bgez	a4,17040 <_malloc_r+0x41c>
   16d20:	00c42403          	lw	s0,12(s0)
   16d24:	00868c63          	beq	a3,s0,16d3c <_malloc_r+0x118>
   16d28:	00442783          	lw	a5,4(s0)
   16d2c:	ffc7f793          	andi	a5,a5,-4
   16d30:	40978733          	sub	a4,a5,s1
   16d34:	fee5d4e3          	bge	a1,a4,16d1c <_malloc_r+0xf8>
   16d38:	00050613          	mv	a2,a0
   16d3c:	01092403          	lw	s0,16(s2)
   16d40:	00890893          	addi	a7,s2,8
   16d44:	17140863          	beq	s0,a7,16eb4 <_malloc_r+0x290>
   16d48:	00442503          	lw	a0,4(s0)
   16d4c:	00f00693          	li	a3,15
   16d50:	ffc57513          	andi	a0,a0,-4
   16d54:	409507b3          	sub	a5,a0,s1
   16d58:	40f6c263          	blt	a3,a5,1715c <_malloc_r+0x538>
   16d5c:	01192a23          	sw	a7,20(s2)
   16d60:	01192823          	sw	a7,16(s2)
   16d64:	3c07dc63          	bgez	a5,1713c <_malloc_r+0x518>
   16d68:	1ff00793          	li	a5,511
   16d6c:	2ea7e063          	bltu	a5,a0,1704c <_malloc_r+0x428>
   16d70:	ff857793          	andi	a5,a0,-8
   16d74:	00878793          	addi	a5,a5,8
   16d78:	00492583          	lw	a1,4(s2)
   16d7c:	00f907b3          	add	a5,s2,a5
   16d80:	0007a683          	lw	a3,0(a5)
   16d84:	00555513          	srli	a0,a0,0x5
   16d88:	00100713          	li	a4,1
   16d8c:	00a71733          	sll	a4,a4,a0
   16d90:	00b76733          	or	a4,a4,a1
   16d94:	ff878593          	addi	a1,a5,-8
   16d98:	00b42623          	sw	a1,12(s0)
   16d9c:	00d42423          	sw	a3,8(s0)
   16da0:	00e92223          	sw	a4,4(s2)
   16da4:	0087a023          	sw	s0,0(a5)
   16da8:	0086a623          	sw	s0,12(a3)
   16dac:	40265793          	srai	a5,a2,0x2
   16db0:	00100593          	li	a1,1
   16db4:	00f595b3          	sll	a1,a1,a5
   16db8:	10b76863          	bltu	a4,a1,16ec8 <_malloc_r+0x2a4>
   16dbc:	00e5f7b3          	and	a5,a1,a4
   16dc0:	02079463          	bnez	a5,16de8 <_malloc_r+0x1c4>
   16dc4:	00159593          	slli	a1,a1,0x1
   16dc8:	ffc67613          	andi	a2,a2,-4
   16dcc:	00e5f7b3          	and	a5,a1,a4
   16dd0:	00460613          	addi	a2,a2,4
   16dd4:	00079a63          	bnez	a5,16de8 <_malloc_r+0x1c4>
   16dd8:	00159593          	slli	a1,a1,0x1
   16ddc:	00e5f7b3          	and	a5,a1,a4
   16de0:	00460613          	addi	a2,a2,4
   16de4:	fe078ae3          	beqz	a5,16dd8 <_malloc_r+0x1b4>
   16de8:	00f00813          	li	a6,15
   16dec:	00361313          	slli	t1,a2,0x3
   16df0:	00690333          	add	t1,s2,t1
   16df4:	00030513          	mv	a0,t1
   16df8:	00c52783          	lw	a5,12(a0)
   16dfc:	00060e13          	mv	t3,a2
   16e00:	2cf50863          	beq	a0,a5,170d0 <_malloc_r+0x4ac>
   16e04:	0047a703          	lw	a4,4(a5)
   16e08:	00078413          	mv	s0,a5
   16e0c:	00c7a783          	lw	a5,12(a5)
   16e10:	ffc77713          	andi	a4,a4,-4
   16e14:	409706b3          	sub	a3,a4,s1
   16e18:	2cd84863          	blt	a6,a3,170e8 <_malloc_r+0x4c4>
   16e1c:	fe06c2e3          	bltz	a3,16e00 <_malloc_r+0x1dc>
   16e20:	00e40733          	add	a4,s0,a4
   16e24:	00472683          	lw	a3,4(a4)
   16e28:	00842603          	lw	a2,8(s0)
   16e2c:	00098513          	mv	a0,s3
   16e30:	0016e693          	ori	a3,a3,1
   16e34:	00d72223          	sw	a3,4(a4)
   16e38:	00f62623          	sw	a5,12(a2)
   16e3c:	00c7a423          	sw	a2,8(a5)
   16e40:	654000ef          	jal	ra,17494 <__malloc_unlock>
   16e44:	00840513          	addi	a0,s0,8
   16e48:	0100006f          	j	16e58 <_malloc_r+0x234>
   16e4c:	00c00793          	li	a5,12
   16e50:	00f9a023          	sw	a5,0(s3)
   16e54:	00000513          	li	a0,0
   16e58:	02c12083          	lw	ra,44(sp)
   16e5c:	02812403          	lw	s0,40(sp)
   16e60:	02412483          	lw	s1,36(sp)
   16e64:	02012903          	lw	s2,32(sp)
   16e68:	01c12983          	lw	s3,28(sp)
   16e6c:	01812a03          	lw	s4,24(sp)
   16e70:	01412a83          	lw	s5,20(sp)
   16e74:	01012b03          	lw	s6,16(sp)
   16e78:	00c12b83          	lw	s7,12(sp)
   16e7c:	00812c03          	lw	s8,8(sp)
   16e80:	00412c83          	lw	s9,4(sp)
   16e84:	03010113          	addi	sp,sp,48
   16e88:	00008067          	ret
   16e8c:	20000693          	li	a3,512
   16e90:	04000613          	li	a2,64
   16e94:	03f00513          	li	a0,63
   16e98:	e69ff06f          	j	16d00 <_malloc_r+0xdc>
   16e9c:	00c7a403          	lw	s0,12(a5)
   16ea0:	00260613          	addi	a2,a2,2
   16ea4:	de8796e3          	bne	a5,s0,16c90 <_malloc_r+0x6c>
   16ea8:	01092403          	lw	s0,16(s2)
   16eac:	00890893          	addi	a7,s2,8
   16eb0:	e9141ce3          	bne	s0,a7,16d48 <_malloc_r+0x124>
   16eb4:	00492703          	lw	a4,4(s2)
   16eb8:	40265793          	srai	a5,a2,0x2
   16ebc:	00100593          	li	a1,1
   16ec0:	00f595b3          	sll	a1,a1,a5
   16ec4:	eeb77ce3          	bgeu	a4,a1,16dbc <_malloc_r+0x198>
   16ec8:	00892403          	lw	s0,8(s2)
   16ecc:	00442a83          	lw	s5,4(s0)
   16ed0:	ffcafb13          	andi	s6,s5,-4
   16ed4:	009b6863          	bltu	s6,s1,16ee4 <_malloc_r+0x2c0>
   16ed8:	409b07b3          	sub	a5,s6,s1
   16edc:	00f00713          	li	a4,15
   16ee0:	12f74c63          	blt	a4,a5,17018 <_malloc_r+0x3f4>
   16ee4:	1e01aa83          	lw	s5,480(gp) # 26ed8 <__malloc_top_pad>
   16ee8:	1d01a703          	lw	a4,464(gp) # 26ec8 <__malloc_sbrk_base>
   16eec:	fff00793          	li	a5,-1
   16ef0:	01640a33          	add	s4,s0,s6
   16ef4:	01548ab3          	add	s5,s1,s5
   16ef8:	34f70463          	beq	a4,a5,17240 <_malloc_r+0x61c>
   16efc:	000017b7          	lui	a5,0x1
   16f00:	00f78793          	addi	a5,a5,15 # 100f <register_fini-0xf065>
   16f04:	00fa8ab3          	add	s5,s5,a5
   16f08:	fffff7b7          	lui	a5,0xfffff
   16f0c:	00fafab3          	and	s5,s5,a5
   16f10:	000a8593          	mv	a1,s5
   16f14:	00098513          	mv	a0,s3
   16f18:	740010ef          	jal	ra,18658 <_sbrk_r>
   16f1c:	fff00793          	li	a5,-1
   16f20:	00050b93          	mv	s7,a0
   16f24:	28f50663          	beq	a0,a5,171b0 <_malloc_r+0x58c>
   16f28:	29456263          	bltu	a0,s4,171ac <_malloc_r+0x588>
   16f2c:	20818c13          	addi	s8,gp,520 # 26f00 <__malloc_current_mallinfo>
   16f30:	000c2583          	lw	a1,0(s8) # 1000 <register_fini-0xf074>
   16f34:	00ba85b3          	add	a1,s5,a1
   16f38:	00bc2023          	sw	a1,0(s8)
   16f3c:	00058793          	mv	a5,a1
   16f40:	38aa0e63          	beq	s4,a0,172dc <_malloc_r+0x6b8>
   16f44:	1d01a683          	lw	a3,464(gp) # 26ec8 <__malloc_sbrk_base>
   16f48:	fff00713          	li	a4,-1
   16f4c:	3ae68663          	beq	a3,a4,172f8 <_malloc_r+0x6d4>
   16f50:	414b8a33          	sub	s4,s7,s4
   16f54:	00fa07b3          	add	a5,s4,a5
   16f58:	00fc2023          	sw	a5,0(s8)
   16f5c:	007bfc93          	andi	s9,s7,7
   16f60:	300c8263          	beqz	s9,17264 <_malloc_r+0x640>
   16f64:	000017b7          	lui	a5,0x1
   16f68:	419b8bb3          	sub	s7,s7,s9
   16f6c:	00878593          	addi	a1,a5,8 # 1008 <register_fini-0xf06c>
   16f70:	008b8b93          	addi	s7,s7,8
   16f74:	419585b3          	sub	a1,a1,s9
   16f78:	015b8ab3          	add	s5,s7,s5
   16f7c:	fff78793          	addi	a5,a5,-1
   16f80:	415585b3          	sub	a1,a1,s5
   16f84:	00f5fa33          	and	s4,a1,a5
   16f88:	000a0593          	mv	a1,s4
   16f8c:	00098513          	mv	a0,s3
   16f90:	6c8010ef          	jal	ra,18658 <_sbrk_r>
   16f94:	fff00793          	li	a5,-1
   16f98:	3af50a63          	beq	a0,a5,1734c <_malloc_r+0x728>
   16f9c:	41750533          	sub	a0,a0,s7
   16fa0:	01450ab3          	add	s5,a0,s4
   16fa4:	000c2583          	lw	a1,0(s8)
   16fa8:	01792423          	sw	s7,8(s2)
   16fac:	001aea93          	ori	s5,s5,1
   16fb0:	00ba05b3          	add	a1,s4,a1
   16fb4:	00bc2023          	sw	a1,0(s8)
   16fb8:	015ba223          	sw	s5,4(s7)
   16fbc:	35240263          	beq	s0,s2,17300 <_malloc_r+0x6dc>
   16fc0:	00f00693          	li	a3,15
   16fc4:	3566f263          	bgeu	a3,s6,17308 <_malloc_r+0x6e4>
   16fc8:	00442703          	lw	a4,4(s0)
   16fcc:	ff4b0793          	addi	a5,s6,-12
   16fd0:	ff87f793          	andi	a5,a5,-8
   16fd4:	00177713          	andi	a4,a4,1
   16fd8:	00f76733          	or	a4,a4,a5
   16fdc:	00e42223          	sw	a4,4(s0)
   16fe0:	00500613          	li	a2,5
   16fe4:	00f40733          	add	a4,s0,a5
   16fe8:	00c72223          	sw	a2,4(a4)
   16fec:	00c72423          	sw	a2,8(a4)
   16ff0:	36f6e863          	bltu	a3,a5,17360 <_malloc_r+0x73c>
   16ff4:	004baa83          	lw	s5,4(s7)
   16ff8:	000b8413          	mv	s0,s7
   16ffc:	1dc1a703          	lw	a4,476(gp) # 26ed4 <__malloc_max_sbrked_mem>
   17000:	00b77463          	bgeu	a4,a1,17008 <_malloc_r+0x3e4>
   17004:	1cb1ae23          	sw	a1,476(gp) # 26ed4 <__malloc_max_sbrked_mem>
   17008:	1d81a703          	lw	a4,472(gp) # 26ed0 <_edata>
   1700c:	1ab77663          	bgeu	a4,a1,171b8 <_malloc_r+0x594>
   17010:	1cb1ac23          	sw	a1,472(gp) # 26ed0 <_edata>
   17014:	1a40006f          	j	171b8 <_malloc_r+0x594>
   17018:	0014e713          	ori	a4,s1,1
   1701c:	00e42223          	sw	a4,4(s0)
   17020:	009404b3          	add	s1,s0,s1
   17024:	00992423          	sw	s1,8(s2)
   17028:	0017e793          	ori	a5,a5,1
   1702c:	00098513          	mv	a0,s3
   17030:	00f4a223          	sw	a5,4(s1)
   17034:	460000ef          	jal	ra,17494 <__malloc_unlock>
   17038:	00840513          	addi	a0,s0,8
   1703c:	e1dff06f          	j	16e58 <_malloc_r+0x234>
   17040:	00c42683          	lw	a3,12(s0)
   17044:	00842603          	lw	a2,8(s0)
   17048:	c59ff06f          	j	16ca0 <_malloc_r+0x7c>
   1704c:	00955793          	srli	a5,a0,0x9
   17050:	00400713          	li	a4,4
   17054:	14f77263          	bgeu	a4,a5,17198 <_malloc_r+0x574>
   17058:	01400713          	li	a4,20
   1705c:	22f76a63          	bltu	a4,a5,17290 <_malloc_r+0x66c>
   17060:	05c78693          	addi	a3,a5,92
   17064:	05b78593          	addi	a1,a5,91
   17068:	00369693          	slli	a3,a3,0x3
   1706c:	00d906b3          	add	a3,s2,a3
   17070:	0006a783          	lw	a5,0(a3)
   17074:	ff868693          	addi	a3,a3,-8
   17078:	1cf68863          	beq	a3,a5,17248 <_malloc_r+0x624>
   1707c:	0047a703          	lw	a4,4(a5)
   17080:	ffc77713          	andi	a4,a4,-4
   17084:	00e57663          	bgeu	a0,a4,17090 <_malloc_r+0x46c>
   17088:	0087a783          	lw	a5,8(a5)
   1708c:	fef698e3          	bne	a3,a5,1707c <_malloc_r+0x458>
   17090:	00c7a683          	lw	a3,12(a5)
   17094:	00492703          	lw	a4,4(s2)
   17098:	00d42623          	sw	a3,12(s0)
   1709c:	00f42423          	sw	a5,8(s0)
   170a0:	0086a423          	sw	s0,8(a3)
   170a4:	0087a623          	sw	s0,12(a5)
   170a8:	d05ff06f          	j	16dac <_malloc_r+0x188>
   170ac:	01400713          	li	a4,20
   170b0:	12f77663          	bgeu	a4,a5,171dc <_malloc_r+0x5b8>
   170b4:	05400713          	li	a4,84
   170b8:	1ef76a63          	bltu	a4,a5,172ac <_malloc_r+0x688>
   170bc:	00c4d793          	srli	a5,s1,0xc
   170c0:	06f78613          	addi	a2,a5,111
   170c4:	06e78513          	addi	a0,a5,110
   170c8:	00361693          	slli	a3,a2,0x3
   170cc:	c35ff06f          	j	16d00 <_malloc_r+0xdc>
   170d0:	001e0e13          	addi	t3,t3,1
   170d4:	003e7793          	andi	a5,t3,3
   170d8:	00850513          	addi	a0,a0,8
   170dc:	10078e63          	beqz	a5,171f8 <_malloc_r+0x5d4>
   170e0:	00c52783          	lw	a5,12(a0)
   170e4:	d1dff06f          	j	16e00 <_malloc_r+0x1dc>
   170e8:	00842603          	lw	a2,8(s0)
   170ec:	0014e593          	ori	a1,s1,1
   170f0:	00b42223          	sw	a1,4(s0)
   170f4:	00f62623          	sw	a5,12(a2)
   170f8:	00c7a423          	sw	a2,8(a5)
   170fc:	009404b3          	add	s1,s0,s1
   17100:	00992a23          	sw	s1,20(s2)
   17104:	00992823          	sw	s1,16(s2)
   17108:	0016e793          	ori	a5,a3,1
   1710c:	0114a623          	sw	a7,12(s1)
   17110:	0114a423          	sw	a7,8(s1)
   17114:	00f4a223          	sw	a5,4(s1)
   17118:	00e40733          	add	a4,s0,a4
   1711c:	00098513          	mv	a0,s3
   17120:	00d72023          	sw	a3,0(a4)
   17124:	370000ef          	jal	ra,17494 <__malloc_unlock>
   17128:	00840513          	addi	a0,s0,8
   1712c:	d2dff06f          	j	16e58 <_malloc_r+0x234>
   17130:	0034d613          	srli	a2,s1,0x3
   17134:	00848793          	addi	a5,s1,8
   17138:	b45ff06f          	j	16c7c <_malloc_r+0x58>
   1713c:	00a40733          	add	a4,s0,a0
   17140:	00472783          	lw	a5,4(a4)
   17144:	00098513          	mv	a0,s3
   17148:	0017e793          	ori	a5,a5,1
   1714c:	00f72223          	sw	a5,4(a4)
   17150:	344000ef          	jal	ra,17494 <__malloc_unlock>
   17154:	00840513          	addi	a0,s0,8
   17158:	d01ff06f          	j	16e58 <_malloc_r+0x234>
   1715c:	0014e713          	ori	a4,s1,1
   17160:	00e42223          	sw	a4,4(s0)
   17164:	009404b3          	add	s1,s0,s1
   17168:	00992a23          	sw	s1,20(s2)
   1716c:	00992823          	sw	s1,16(s2)
   17170:	0017e713          	ori	a4,a5,1
   17174:	0114a623          	sw	a7,12(s1)
   17178:	0114a423          	sw	a7,8(s1)
   1717c:	00e4a223          	sw	a4,4(s1)
   17180:	00a40533          	add	a0,s0,a0
   17184:	00f52023          	sw	a5,0(a0)
   17188:	00098513          	mv	a0,s3
   1718c:	308000ef          	jal	ra,17494 <__malloc_unlock>
   17190:	00840513          	addi	a0,s0,8
   17194:	cc5ff06f          	j	16e58 <_malloc_r+0x234>
   17198:	00655793          	srli	a5,a0,0x6
   1719c:	03978693          	addi	a3,a5,57
   171a0:	03878593          	addi	a1,a5,56
   171a4:	00369693          	slli	a3,a3,0x3
   171a8:	ec5ff06f          	j	1706c <_malloc_r+0x448>
   171ac:	11240e63          	beq	s0,s2,172c8 <_malloc_r+0x6a4>
   171b0:	00892403          	lw	s0,8(s2)
   171b4:	00442a83          	lw	s5,4(s0)
   171b8:	ffcafa93          	andi	s5,s5,-4
   171bc:	409a87b3          	sub	a5,s5,s1
   171c0:	009ae663          	bltu	s5,s1,171cc <_malloc_r+0x5a8>
   171c4:	00f00713          	li	a4,15
   171c8:	e4f748e3          	blt	a4,a5,17018 <_malloc_r+0x3f4>
   171cc:	00098513          	mv	a0,s3
   171d0:	2c4000ef          	jal	ra,17494 <__malloc_unlock>
   171d4:	00000513          	li	a0,0
   171d8:	c81ff06f          	j	16e58 <_malloc_r+0x234>
   171dc:	05c78613          	addi	a2,a5,92
   171e0:	05b78513          	addi	a0,a5,91
   171e4:	00361693          	slli	a3,a2,0x3
   171e8:	b19ff06f          	j	16d00 <_malloc_r+0xdc>
   171ec:	00832783          	lw	a5,8(t1)
   171f0:	fff60613          	addi	a2,a2,-1
   171f4:	1c679063          	bne	a5,t1,173b4 <_malloc_r+0x790>
   171f8:	00367793          	andi	a5,a2,3
   171fc:	ff830313          	addi	t1,t1,-8
   17200:	fe0796e3          	bnez	a5,171ec <_malloc_r+0x5c8>
   17204:	00492703          	lw	a4,4(s2)
   17208:	fff5c793          	not	a5,a1
   1720c:	00e7f7b3          	and	a5,a5,a4
   17210:	00f92223          	sw	a5,4(s2)
   17214:	00159593          	slli	a1,a1,0x1
   17218:	cab7e8e3          	bltu	a5,a1,16ec8 <_malloc_r+0x2a4>
   1721c:	ca0586e3          	beqz	a1,16ec8 <_malloc_r+0x2a4>
   17220:	00f5f733          	and	a4,a1,a5
   17224:	00071a63          	bnez	a4,17238 <_malloc_r+0x614>
   17228:	00159593          	slli	a1,a1,0x1
   1722c:	00f5f733          	and	a4,a1,a5
   17230:	004e0e13          	addi	t3,t3,4
   17234:	fe070ae3          	beqz	a4,17228 <_malloc_r+0x604>
   17238:	000e0613          	mv	a2,t3
   1723c:	bb1ff06f          	j	16dec <_malloc_r+0x1c8>
   17240:	010a8a93          	addi	s5,s5,16 # fffff010 <__BSS_END__+0xfffd80e4>
   17244:	ccdff06f          	j	16f10 <_malloc_r+0x2ec>
   17248:	00492503          	lw	a0,4(s2)
   1724c:	4025d593          	srai	a1,a1,0x2
   17250:	00100713          	li	a4,1
   17254:	00b71733          	sll	a4,a4,a1
   17258:	00a76733          	or	a4,a4,a0
   1725c:	00e92223          	sw	a4,4(s2)
   17260:	e39ff06f          	j	17098 <_malloc_r+0x474>
   17264:	015b85b3          	add	a1,s7,s5
   17268:	40b005b3          	neg	a1,a1
   1726c:	01459593          	slli	a1,a1,0x14
   17270:	0145da13          	srli	s4,a1,0x14
   17274:	000a0593          	mv	a1,s4
   17278:	00098513          	mv	a0,s3
   1727c:	3dc010ef          	jal	ra,18658 <_sbrk_r>
   17280:	fff00793          	li	a5,-1
   17284:	d0f51ce3          	bne	a0,a5,16f9c <_malloc_r+0x378>
   17288:	00000a13          	li	s4,0
   1728c:	d19ff06f          	j	16fa4 <_malloc_r+0x380>
   17290:	05400713          	li	a4,84
   17294:	08f76063          	bltu	a4,a5,17314 <_malloc_r+0x6f0>
   17298:	00c55793          	srli	a5,a0,0xc
   1729c:	06f78693          	addi	a3,a5,111
   172a0:	06e78593          	addi	a1,a5,110
   172a4:	00369693          	slli	a3,a3,0x3
   172a8:	dc5ff06f          	j	1706c <_malloc_r+0x448>
   172ac:	15400713          	li	a4,340
   172b0:	08f76063          	bltu	a4,a5,17330 <_malloc_r+0x70c>
   172b4:	00f4d793          	srli	a5,s1,0xf
   172b8:	07878613          	addi	a2,a5,120
   172bc:	07778513          	addi	a0,a5,119
   172c0:	00361693          	slli	a3,a2,0x3
   172c4:	a3dff06f          	j	16d00 <_malloc_r+0xdc>
   172c8:	20818c13          	addi	s8,gp,520 # 26f00 <__malloc_current_mallinfo>
   172cc:	000c2783          	lw	a5,0(s8)
   172d0:	00fa87b3          	add	a5,s5,a5
   172d4:	00fc2023          	sw	a5,0(s8)
   172d8:	c6dff06f          	j	16f44 <_malloc_r+0x320>
   172dc:	014a1713          	slli	a4,s4,0x14
   172e0:	c60712e3          	bnez	a4,16f44 <_malloc_r+0x320>
   172e4:	00892403          	lw	s0,8(s2)
   172e8:	015b0ab3          	add	s5,s6,s5
   172ec:	001aea93          	ori	s5,s5,1
   172f0:	01542223          	sw	s5,4(s0)
   172f4:	d09ff06f          	j	16ffc <_malloc_r+0x3d8>
   172f8:	1d71a823          	sw	s7,464(gp) # 26ec8 <__malloc_sbrk_base>
   172fc:	c61ff06f          	j	16f5c <_malloc_r+0x338>
   17300:	000b8413          	mv	s0,s7
   17304:	cf9ff06f          	j	16ffc <_malloc_r+0x3d8>
   17308:	00100793          	li	a5,1
   1730c:	00fba223          	sw	a5,4(s7)
   17310:	ebdff06f          	j	171cc <_malloc_r+0x5a8>
   17314:	15400713          	li	a4,340
   17318:	06f76263          	bltu	a4,a5,1737c <_malloc_r+0x758>
   1731c:	00f55793          	srli	a5,a0,0xf
   17320:	07878693          	addi	a3,a5,120
   17324:	07778593          	addi	a1,a5,119
   17328:	00369693          	slli	a3,a3,0x3
   1732c:	d41ff06f          	j	1706c <_malloc_r+0x448>
   17330:	55400713          	li	a4,1364
   17334:	06f76263          	bltu	a4,a5,17398 <_malloc_r+0x774>
   17338:	0124d793          	srli	a5,s1,0x12
   1733c:	07d78613          	addi	a2,a5,125
   17340:	07c78513          	addi	a0,a5,124
   17344:	00361693          	slli	a3,a2,0x3
   17348:	9b9ff06f          	j	16d00 <_malloc_r+0xdc>
   1734c:	ff8c8c93          	addi	s9,s9,-8
   17350:	019a8ab3          	add	s5,s5,s9
   17354:	417a8ab3          	sub	s5,s5,s7
   17358:	00000a13          	li	s4,0
   1735c:	c49ff06f          	j	16fa4 <_malloc_r+0x380>
   17360:	00840593          	addi	a1,s0,8
   17364:	00098513          	mv	a0,s3
   17368:	ea0fc0ef          	jal	ra,13a08 <_free_r>
   1736c:	00892403          	lw	s0,8(s2)
   17370:	000c2583          	lw	a1,0(s8)
   17374:	00442a83          	lw	s5,4(s0)
   17378:	c85ff06f          	j	16ffc <_malloc_r+0x3d8>
   1737c:	55400713          	li	a4,1364
   17380:	02f76463          	bltu	a4,a5,173a8 <_malloc_r+0x784>
   17384:	01255793          	srli	a5,a0,0x12
   17388:	07d78693          	addi	a3,a5,125
   1738c:	07c78593          	addi	a1,a5,124
   17390:	00369693          	slli	a3,a3,0x3
   17394:	cd9ff06f          	j	1706c <_malloc_r+0x448>
   17398:	3f800693          	li	a3,1016
   1739c:	07f00613          	li	a2,127
   173a0:	07e00513          	li	a0,126
   173a4:	95dff06f          	j	16d00 <_malloc_r+0xdc>
   173a8:	3f800693          	li	a3,1016
   173ac:	07e00593          	li	a1,126
   173b0:	cbdff06f          	j	1706c <_malloc_r+0x448>
   173b4:	00492783          	lw	a5,4(s2)
   173b8:	e5dff06f          	j	17214 <_malloc_r+0x5f0>

000173bc <memchr>:
   173bc:	00357793          	andi	a5,a0,3
   173c0:	0ff5f693          	andi	a3,a1,255
   173c4:	02078a63          	beqz	a5,173f8 <memchr+0x3c>
   173c8:	fff60793          	addi	a5,a2,-1
   173cc:	02060e63          	beqz	a2,17408 <memchr+0x4c>
   173d0:	fff00613          	li	a2,-1
   173d4:	0180006f          	j	173ec <memchr+0x30>
   173d8:	00150513          	addi	a0,a0,1
   173dc:	00357713          	andi	a4,a0,3
   173e0:	00070e63          	beqz	a4,173fc <memchr+0x40>
   173e4:	fff78793          	addi	a5,a5,-1
   173e8:	02c78063          	beq	a5,a2,17408 <memchr+0x4c>
   173ec:	00054703          	lbu	a4,0(a0)
   173f0:	fed714e3          	bne	a4,a3,173d8 <memchr+0x1c>
   173f4:	00008067          	ret
   173f8:	00060793          	mv	a5,a2
   173fc:	00300713          	li	a4,3
   17400:	02f76663          	bltu	a4,a5,1742c <memchr+0x70>
   17404:	00079663          	bnez	a5,17410 <memchr+0x54>
   17408:	00000513          	li	a0,0
   1740c:	00008067          	ret
   17410:	00f507b3          	add	a5,a0,a5
   17414:	00c0006f          	j	17420 <memchr+0x64>
   17418:	00150513          	addi	a0,a0,1
   1741c:	fea786e3          	beq	a5,a0,17408 <memchr+0x4c>
   17420:	00054703          	lbu	a4,0(a0)
   17424:	fed71ae3          	bne	a4,a3,17418 <memchr+0x5c>
   17428:	00008067          	ret
   1742c:	00010737          	lui	a4,0x10
   17430:	00859893          	slli	a7,a1,0x8
   17434:	fff70713          	addi	a4,a4,-1 # ffff <register_fini-0x75>
   17438:	00e8f8b3          	and	a7,a7,a4
   1743c:	0ff5f593          	andi	a1,a1,255
   17440:	00b8e5b3          	or	a1,a7,a1
   17444:	01059893          	slli	a7,a1,0x10
   17448:	00b8e8b3          	or	a7,a7,a1
   1744c:	feff0837          	lui	a6,0xfeff0
   17450:	808085b7          	lui	a1,0x80808
   17454:	eff80813          	addi	a6,a6,-257 # fefefeff <__BSS_END__+0xfefc8fd3>
   17458:	08058593          	addi	a1,a1,128 # 80808080 <__BSS_END__+0x807e1154>
   1745c:	00300313          	li	t1,3
   17460:	00052703          	lw	a4,0(a0)
   17464:	00e8c733          	xor	a4,a7,a4
   17468:	01070633          	add	a2,a4,a6
   1746c:	fff74713          	not	a4,a4
   17470:	00e67733          	and	a4,a2,a4
   17474:	00b77733          	and	a4,a4,a1
   17478:	f8071ce3          	bnez	a4,17410 <memchr+0x54>
   1747c:	ffc78793          	addi	a5,a5,-4
   17480:	00450513          	addi	a0,a0,4
   17484:	fcf36ee3          	bltu	t1,a5,17460 <memchr+0xa4>
   17488:	f80794e3          	bnez	a5,17410 <memchr+0x54>
   1748c:	f7dff06f          	j	17408 <memchr+0x4c>

00017490 <__malloc_lock>:
   17490:	00008067          	ret

00017494 <__malloc_unlock>:
   17494:	00008067          	ret

00017498 <_Balloc>:
   17498:	04c52783          	lw	a5,76(a0)
   1749c:	ff010113          	addi	sp,sp,-16
   174a0:	00812423          	sw	s0,8(sp)
   174a4:	00912223          	sw	s1,4(sp)
   174a8:	00112623          	sw	ra,12(sp)
   174ac:	01212023          	sw	s2,0(sp)
   174b0:	00050413          	mv	s0,a0
   174b4:	00058493          	mv	s1,a1
   174b8:	02078e63          	beqz	a5,174f4 <_Balloc+0x5c>
   174bc:	00249513          	slli	a0,s1,0x2
   174c0:	00a787b3          	add	a5,a5,a0
   174c4:	0007a503          	lw	a0,0(a5)
   174c8:	04050663          	beqz	a0,17514 <_Balloc+0x7c>
   174cc:	00052703          	lw	a4,0(a0)
   174d0:	00e7a023          	sw	a4,0(a5)
   174d4:	00052823          	sw	zero,16(a0)
   174d8:	00052623          	sw	zero,12(a0)
   174dc:	00c12083          	lw	ra,12(sp)
   174e0:	00812403          	lw	s0,8(sp)
   174e4:	00412483          	lw	s1,4(sp)
   174e8:	00012903          	lw	s2,0(sp)
   174ec:	01010113          	addi	sp,sp,16
   174f0:	00008067          	ret
   174f4:	02100613          	li	a2,33
   174f8:	00400593          	li	a1,4
   174fc:	53c050ef          	jal	ra,1ca38 <_calloc_r>
   17500:	04a42623          	sw	a0,76(s0)
   17504:	00050793          	mv	a5,a0
   17508:	fa051ae3          	bnez	a0,174bc <_Balloc+0x24>
   1750c:	00000513          	li	a0,0
   17510:	fcdff06f          	j	174dc <_Balloc+0x44>
   17514:	00100913          	li	s2,1
   17518:	00991933          	sll	s2,s2,s1
   1751c:	00590613          	addi	a2,s2,5
   17520:	00261613          	slli	a2,a2,0x2
   17524:	00100593          	li	a1,1
   17528:	00040513          	mv	a0,s0
   1752c:	50c050ef          	jal	ra,1ca38 <_calloc_r>
   17530:	fc050ee3          	beqz	a0,1750c <_Balloc+0x74>
   17534:	00952223          	sw	s1,4(a0)
   17538:	01252423          	sw	s2,8(a0)
   1753c:	f99ff06f          	j	174d4 <_Balloc+0x3c>

00017540 <_Bfree>:
   17540:	02058063          	beqz	a1,17560 <_Bfree+0x20>
   17544:	0045a703          	lw	a4,4(a1)
   17548:	04c52783          	lw	a5,76(a0)
   1754c:	00271713          	slli	a4,a4,0x2
   17550:	00e787b3          	add	a5,a5,a4
   17554:	0007a703          	lw	a4,0(a5)
   17558:	00e5a023          	sw	a4,0(a1)
   1755c:	00b7a023          	sw	a1,0(a5)
   17560:	00008067          	ret

00017564 <__multadd>:
   17564:	fd010113          	addi	sp,sp,-48
   17568:	03212023          	sw	s2,32(sp)
   1756c:	0105a903          	lw	s2,16(a1)
   17570:	01812423          	sw	s8,8(sp)
   17574:	00010c37          	lui	s8,0x10
   17578:	02812423          	sw	s0,40(sp)
   1757c:	02912223          	sw	s1,36(sp)
   17580:	01312e23          	sw	s3,28(sp)
   17584:	01412c23          	sw	s4,24(sp)
   17588:	01512a23          	sw	s5,20(sp)
   1758c:	01612823          	sw	s6,16(sp)
   17590:	02112623          	sw	ra,44(sp)
   17594:	01712623          	sw	s7,12(sp)
   17598:	00058993          	mv	s3,a1
   1759c:	00050a13          	mv	s4,a0
   175a0:	00060a93          	mv	s5,a2
   175a4:	00068413          	mv	s0,a3
   175a8:	01458493          	addi	s1,a1,20
   175ac:	00000b13          	li	s6,0
   175b0:	fffc0c13          	addi	s8,s8,-1 # ffff <register_fini-0x75>
   175b4:	0004ab83          	lw	s7,0(s1)
   175b8:	000a8593          	mv	a1,s5
   175bc:	00448493          	addi	s1,s1,4
   175c0:	018bf533          	and	a0,s7,s8
   175c4:	0600d0ef          	jal	ra,24624 <__mulsi3>
   175c8:	00850433          	add	s0,a0,s0
   175cc:	000a8593          	mv	a1,s5
   175d0:	010bd513          	srli	a0,s7,0x10
   175d4:	0500d0ef          	jal	ra,24624 <__mulsi3>
   175d8:	01045693          	srli	a3,s0,0x10
   175dc:	00d50533          	add	a0,a0,a3
   175e0:	01051793          	slli	a5,a0,0x10
   175e4:	01847433          	and	s0,s0,s8
   175e8:	00878433          	add	s0,a5,s0
   175ec:	fe84ae23          	sw	s0,-4(s1)
   175f0:	001b0b13          	addi	s6,s6,1
   175f4:	01055413          	srli	s0,a0,0x10
   175f8:	fb2b4ee3          	blt	s6,s2,175b4 <__multadd+0x50>
   175fc:	02040263          	beqz	s0,17620 <__multadd+0xbc>
   17600:	0089a783          	lw	a5,8(s3)
   17604:	04f95863          	bge	s2,a5,17654 <__multadd+0xf0>
   17608:	00490793          	addi	a5,s2,4
   1760c:	00279793          	slli	a5,a5,0x2
   17610:	00f987b3          	add	a5,s3,a5
   17614:	0087a223          	sw	s0,4(a5)
   17618:	00190913          	addi	s2,s2,1
   1761c:	0129a823          	sw	s2,16(s3)
   17620:	02c12083          	lw	ra,44(sp)
   17624:	02812403          	lw	s0,40(sp)
   17628:	02412483          	lw	s1,36(sp)
   1762c:	02012903          	lw	s2,32(sp)
   17630:	01812a03          	lw	s4,24(sp)
   17634:	01412a83          	lw	s5,20(sp)
   17638:	01012b03          	lw	s6,16(sp)
   1763c:	00c12b83          	lw	s7,12(sp)
   17640:	00812c03          	lw	s8,8(sp)
   17644:	00098513          	mv	a0,s3
   17648:	01c12983          	lw	s3,28(sp)
   1764c:	03010113          	addi	sp,sp,48
   17650:	00008067          	ret
   17654:	0049a583          	lw	a1,4(s3)
   17658:	000a0513          	mv	a0,s4
   1765c:	00158593          	addi	a1,a1,1
   17660:	e39ff0ef          	jal	ra,17498 <_Balloc>
   17664:	0109a603          	lw	a2,16(s3)
   17668:	00050493          	mv	s1,a0
   1766c:	00c98593          	addi	a1,s3,12
   17670:	00260613          	addi	a2,a2,2
   17674:	00261613          	slli	a2,a2,0x2
   17678:	00c50513          	addi	a0,a0,12
   1767c:	6b1050ef          	jal	ra,1d52c <memcpy>
   17680:	0049a703          	lw	a4,4(s3)
   17684:	04ca2783          	lw	a5,76(s4)
   17688:	00271713          	slli	a4,a4,0x2
   1768c:	00e787b3          	add	a5,a5,a4
   17690:	0007a703          	lw	a4,0(a5)
   17694:	00e9a023          	sw	a4,0(s3)
   17698:	0137a023          	sw	s3,0(a5)
   1769c:	00048993          	mv	s3,s1
   176a0:	f69ff06f          	j	17608 <__multadd+0xa4>

000176a4 <__s2b>:
   176a4:	fe010113          	addi	sp,sp,-32
   176a8:	00812c23          	sw	s0,24(sp)
   176ac:	01212823          	sw	s2,16(sp)
   176b0:	00058413          	mv	s0,a1
   176b4:	00050913          	mv	s2,a0
   176b8:	00900593          	li	a1,9
   176bc:	00868513          	addi	a0,a3,8
   176c0:	00912a23          	sw	s1,20(sp)
   176c4:	01312623          	sw	s3,12(sp)
   176c8:	01412423          	sw	s4,8(sp)
   176cc:	00112e23          	sw	ra,28(sp)
   176d0:	01512223          	sw	s5,4(sp)
   176d4:	00068493          	mv	s1,a3
   176d8:	00060993          	mv	s3,a2
   176dc:	00070a13          	mv	s4,a4
   176e0:	7690c0ef          	jal	ra,24648 <__divsi3>
   176e4:	00900793          	li	a5,9
   176e8:	0c97d663          	bge	a5,s1,177b4 <__s2b+0x110>
   176ec:	00100793          	li	a5,1
   176f0:	00000593          	li	a1,0
   176f4:	00179793          	slli	a5,a5,0x1
   176f8:	00158593          	addi	a1,a1,1
   176fc:	fea7cce3          	blt	a5,a0,176f4 <__s2b+0x50>
   17700:	00090513          	mv	a0,s2
   17704:	d95ff0ef          	jal	ra,17498 <_Balloc>
   17708:	00100793          	li	a5,1
   1770c:	00f52823          	sw	a5,16(a0)
   17710:	01452a23          	sw	s4,20(a0)
   17714:	00900793          	li	a5,9
   17718:	00050593          	mv	a1,a0
   1771c:	0937d663          	bge	a5,s3,177a8 <__s2b+0x104>
   17720:	00940a93          	addi	s5,s0,9
   17724:	01340a33          	add	s4,s0,s3
   17728:	000a8413          	mv	s0,s5
   1772c:	00044683          	lbu	a3,0(s0)
   17730:	00a00613          	li	a2,10
   17734:	00090513          	mv	a0,s2
   17738:	fd068693          	addi	a3,a3,-48
   1773c:	e29ff0ef          	jal	ra,17564 <__multadd>
   17740:	00140413          	addi	s0,s0,1
   17744:	00050593          	mv	a1,a0
   17748:	ff4412e3          	bne	s0,s4,1772c <__s2b+0x88>
   1774c:	ff898413          	addi	s0,s3,-8
   17750:	008a8433          	add	s0,s5,s0
   17754:	0299d663          	bge	s3,s1,17780 <__s2b+0xdc>
   17758:	413484b3          	sub	s1,s1,s3
   1775c:	009404b3          	add	s1,s0,s1
   17760:	00044683          	lbu	a3,0(s0)
   17764:	00a00613          	li	a2,10
   17768:	00090513          	mv	a0,s2
   1776c:	fd068693          	addi	a3,a3,-48
   17770:	df5ff0ef          	jal	ra,17564 <__multadd>
   17774:	00140413          	addi	s0,s0,1
   17778:	00050593          	mv	a1,a0
   1777c:	fe8492e3          	bne	s1,s0,17760 <__s2b+0xbc>
   17780:	01c12083          	lw	ra,28(sp)
   17784:	01812403          	lw	s0,24(sp)
   17788:	01412483          	lw	s1,20(sp)
   1778c:	01012903          	lw	s2,16(sp)
   17790:	00c12983          	lw	s3,12(sp)
   17794:	00812a03          	lw	s4,8(sp)
   17798:	00412a83          	lw	s5,4(sp)
   1779c:	00058513          	mv	a0,a1
   177a0:	02010113          	addi	sp,sp,32
   177a4:	00008067          	ret
   177a8:	00a40413          	addi	s0,s0,10
   177ac:	00900993          	li	s3,9
   177b0:	fa5ff06f          	j	17754 <__s2b+0xb0>
   177b4:	00000593          	li	a1,0
   177b8:	f49ff06f          	j	17700 <__s2b+0x5c>

000177bc <__hi0bits>:
   177bc:	ffff0737          	lui	a4,0xffff0
   177c0:	00e57733          	and	a4,a0,a4
   177c4:	00050793          	mv	a5,a0
   177c8:	00000513          	li	a0,0
   177cc:	00071663          	bnez	a4,177d8 <__hi0bits+0x1c>
   177d0:	01079793          	slli	a5,a5,0x10
   177d4:	01000513          	li	a0,16
   177d8:	ff000737          	lui	a4,0xff000
   177dc:	00e7f733          	and	a4,a5,a4
   177e0:	00071663          	bnez	a4,177ec <__hi0bits+0x30>
   177e4:	00850513          	addi	a0,a0,8
   177e8:	00879793          	slli	a5,a5,0x8
   177ec:	f0000737          	lui	a4,0xf0000
   177f0:	00e7f733          	and	a4,a5,a4
   177f4:	00071663          	bnez	a4,17800 <__hi0bits+0x44>
   177f8:	00450513          	addi	a0,a0,4
   177fc:	00479793          	slli	a5,a5,0x4
   17800:	c0000737          	lui	a4,0xc0000
   17804:	00e7f733          	and	a4,a5,a4
   17808:	00071663          	bnez	a4,17814 <__hi0bits+0x58>
   1780c:	00250513          	addi	a0,a0,2
   17810:	00279793          	slli	a5,a5,0x2
   17814:	0007c863          	bltz	a5,17824 <__hi0bits+0x68>
   17818:	00179713          	slli	a4,a5,0x1
   1781c:	00150513          	addi	a0,a0,1
   17820:	00075463          	bgez	a4,17828 <__hi0bits+0x6c>
   17824:	00008067          	ret
   17828:	02000513          	li	a0,32
   1782c:	00008067          	ret

00017830 <__lo0bits>:
   17830:	00052783          	lw	a5,0(a0)
   17834:	00050713          	mv	a4,a0
   17838:	0077f693          	andi	a3,a5,7
   1783c:	02068463          	beqz	a3,17864 <__lo0bits+0x34>
   17840:	0017f693          	andi	a3,a5,1
   17844:	00000513          	li	a0,0
   17848:	06069e63          	bnez	a3,178c4 <__lo0bits+0x94>
   1784c:	0027f693          	andi	a3,a5,2
   17850:	08068063          	beqz	a3,178d0 <__lo0bits+0xa0>
   17854:	0017d793          	srli	a5,a5,0x1
   17858:	00f72023          	sw	a5,0(a4) # c0000000 <__BSS_END__+0xbffd90d4>
   1785c:	00100513          	li	a0,1
   17860:	00008067          	ret
   17864:	01079693          	slli	a3,a5,0x10
   17868:	0106d693          	srli	a3,a3,0x10
   1786c:	00000513          	li	a0,0
   17870:	00069663          	bnez	a3,1787c <__lo0bits+0x4c>
   17874:	0107d793          	srli	a5,a5,0x10
   17878:	01000513          	li	a0,16
   1787c:	0ff7f693          	andi	a3,a5,255
   17880:	00069663          	bnez	a3,1788c <__lo0bits+0x5c>
   17884:	00850513          	addi	a0,a0,8
   17888:	0087d793          	srli	a5,a5,0x8
   1788c:	00f7f693          	andi	a3,a5,15
   17890:	00069663          	bnez	a3,1789c <__lo0bits+0x6c>
   17894:	00450513          	addi	a0,a0,4
   17898:	0047d793          	srli	a5,a5,0x4
   1789c:	0037f693          	andi	a3,a5,3
   178a0:	00069663          	bnez	a3,178ac <__lo0bits+0x7c>
   178a4:	00250513          	addi	a0,a0,2
   178a8:	0027d793          	srli	a5,a5,0x2
   178ac:	0017f693          	andi	a3,a5,1
   178b0:	00069c63          	bnez	a3,178c8 <__lo0bits+0x98>
   178b4:	0017d793          	srli	a5,a5,0x1
   178b8:	00150513          	addi	a0,a0,1
   178bc:	00079663          	bnez	a5,178c8 <__lo0bits+0x98>
   178c0:	02000513          	li	a0,32
   178c4:	00008067          	ret
   178c8:	00f72023          	sw	a5,0(a4)
   178cc:	00008067          	ret
   178d0:	0027d793          	srli	a5,a5,0x2
   178d4:	00f72023          	sw	a5,0(a4)
   178d8:	00200513          	li	a0,2
   178dc:	00008067          	ret

000178e0 <__i2b>:
   178e0:	ff010113          	addi	sp,sp,-16
   178e4:	00812423          	sw	s0,8(sp)
   178e8:	00058413          	mv	s0,a1
   178ec:	00100593          	li	a1,1
   178f0:	00112623          	sw	ra,12(sp)
   178f4:	ba5ff0ef          	jal	ra,17498 <_Balloc>
   178f8:	00c12083          	lw	ra,12(sp)
   178fc:	00852a23          	sw	s0,20(a0)
   17900:	00812403          	lw	s0,8(sp)
   17904:	00100713          	li	a4,1
   17908:	00e52823          	sw	a4,16(a0)
   1790c:	01010113          	addi	sp,sp,16
   17910:	00008067          	ret

00017914 <__multiply>:
   17914:	fb010113          	addi	sp,sp,-80
   17918:	03312e23          	sw	s3,60(sp)
   1791c:	03812423          	sw	s8,40(sp)
   17920:	01062983          	lw	s3,16(a2)
   17924:	0105ac03          	lw	s8,16(a1)
   17928:	04812423          	sw	s0,72(sp)
   1792c:	03412c23          	sw	s4,56(sp)
   17930:	04112623          	sw	ra,76(sp)
   17934:	04912223          	sw	s1,68(sp)
   17938:	05212023          	sw	s2,64(sp)
   1793c:	03512a23          	sw	s5,52(sp)
   17940:	03612823          	sw	s6,48(sp)
   17944:	03712623          	sw	s7,44(sp)
   17948:	03912223          	sw	s9,36(sp)
   1794c:	03a12023          	sw	s10,32(sp)
   17950:	01b12e23          	sw	s11,28(sp)
   17954:	00058a13          	mv	s4,a1
   17958:	00060413          	mv	s0,a2
   1795c:	013c4c63          	blt	s8,s3,17974 <__multiply+0x60>
   17960:	00098713          	mv	a4,s3
   17964:	00058413          	mv	s0,a1
   17968:	000c0993          	mv	s3,s8
   1796c:	00060a13          	mv	s4,a2
   17970:	00070c13          	mv	s8,a4
   17974:	00842783          	lw	a5,8(s0)
   17978:	00442583          	lw	a1,4(s0)
   1797c:	01898bb3          	add	s7,s3,s8
   17980:	0177a7b3          	slt	a5,a5,s7
   17984:	00f585b3          	add	a1,a1,a5
   17988:	b11ff0ef          	jal	ra,17498 <_Balloc>
   1798c:	01450b13          	addi	s6,a0,20
   17990:	002b9a93          	slli	s5,s7,0x2
   17994:	00a12623          	sw	a0,12(sp)
   17998:	015b0ab3          	add	s5,s6,s5
   1799c:	000b0793          	mv	a5,s6
   179a0:	015b7863          	bgeu	s6,s5,179b0 <__multiply+0x9c>
   179a4:	0007a023          	sw	zero,0(a5)
   179a8:	00478793          	addi	a5,a5,4
   179ac:	ff57ece3          	bltu	a5,s5,179a4 <__multiply+0x90>
   179b0:	014a0a13          	addi	s4,s4,20
   179b4:	002c1c13          	slli	s8,s8,0x2
   179b8:	01440793          	addi	a5,s0,20
   179bc:	018a0733          	add	a4,s4,s8
   179c0:	00299993          	slli	s3,s3,0x2
   179c4:	00f12423          	sw	a5,8(sp)
   179c8:	00e12023          	sw	a4,0(sp)
   179cc:	013789b3          	add	s3,a5,s3
   179d0:	14ea7863          	bgeu	s4,a4,17b20 <__multiply+0x20c>
   179d4:	00400713          	li	a4,4
   179d8:	01540793          	addi	a5,s0,21
   179dc:	00e12223          	sw	a4,4(sp)
   179e0:	1af9f263          	bgeu	s3,a5,17b84 <__multiply+0x270>
   179e4:	000104b7          	lui	s1,0x10
   179e8:	fff48493          	addi	s1,s1,-1 # ffff <register_fini-0x75>
   179ec:	01c0006f          	j	17a08 <__multiply+0xf4>
   179f0:	0107dc13          	srli	s8,a5,0x10
   179f4:	0a0c1063          	bnez	s8,17a94 <__multiply+0x180>
   179f8:	00012783          	lw	a5,0(sp)
   179fc:	004a0a13          	addi	s4,s4,4
   17a00:	004b0b13          	addi	s6,s6,4
   17a04:	10fa7e63          	bgeu	s4,a5,17b20 <__multiply+0x20c>
   17a08:	000a2783          	lw	a5,0(s4)
   17a0c:	0097fd33          	and	s10,a5,s1
   17a10:	fe0d00e3          	beqz	s10,179f0 <__multiply+0xdc>
   17a14:	00812c03          	lw	s8,8(sp)
   17a18:	000b0c93          	mv	s9,s6
   17a1c:	00000413          	li	s0,0
   17a20:	000c2d83          	lw	s11,0(s8)
   17a24:	000ca903          	lw	s2,0(s9)
   17a28:	000d0593          	mv	a1,s10
   17a2c:	009df533          	and	a0,s11,s1
   17a30:	3f50c0ef          	jal	ra,24624 <__mulsi3>
   17a34:	009977b3          	and	a5,s2,s1
   17a38:	00f507b3          	add	a5,a0,a5
   17a3c:	000d0593          	mv	a1,s10
   17a40:	010dd513          	srli	a0,s11,0x10
   17a44:	00878433          	add	s0,a5,s0
   17a48:	01095913          	srli	s2,s2,0x10
   17a4c:	3d90c0ef          	jal	ra,24624 <__mulsi3>
   17a50:	01045793          	srli	a5,s0,0x10
   17a54:	01250533          	add	a0,a0,s2
   17a58:	00f50533          	add	a0,a0,a5
   17a5c:	01051793          	slli	a5,a0,0x10
   17a60:	00947433          	and	s0,s0,s1
   17a64:	0087e433          	or	s0,a5,s0
   17a68:	008ca023          	sw	s0,0(s9)
   17a6c:	004c0c13          	addi	s8,s8,4
   17a70:	004c8c93          	addi	s9,s9,4
   17a74:	01055413          	srli	s0,a0,0x10
   17a78:	fb3c64e3          	bltu	s8,s3,17a20 <__multiply+0x10c>
   17a7c:	00412783          	lw	a5,4(sp)
   17a80:	00fb07b3          	add	a5,s6,a5
   17a84:	0087a023          	sw	s0,0(a5)
   17a88:	000a2783          	lw	a5,0(s4)
   17a8c:	0107dc13          	srli	s8,a5,0x10
   17a90:	f60c04e3          	beqz	s8,179f8 <__multiply+0xe4>
   17a94:	000b2403          	lw	s0,0(s6)
   17a98:	00812d83          	lw	s11,8(sp)
   17a9c:	000b0c93          	mv	s9,s6
   17aa0:	00040913          	mv	s2,s0
   17aa4:	00000d13          	li	s10,0
   17aa8:	000da503          	lw	a0,0(s11)
   17aac:	000c0593          	mv	a1,s8
   17ab0:	00947433          	and	s0,s0,s1
   17ab4:	00957533          	and	a0,a0,s1
   17ab8:	36d0c0ef          	jal	ra,24624 <__mulsi3>
   17abc:	01095793          	srli	a5,s2,0x10
   17ac0:	00f507b3          	add	a5,a0,a5
   17ac4:	01a78d33          	add	s10,a5,s10
   17ac8:	010d1613          	slli	a2,s10,0x10
   17acc:	00866433          	or	s0,a2,s0
   17ad0:	008ca023          	sw	s0,0(s9)
   17ad4:	002dd503          	lhu	a0,2(s11)
   17ad8:	004ca903          	lw	s2,4(s9)
   17adc:	000c0593          	mv	a1,s8
   17ae0:	3450c0ef          	jal	ra,24624 <__mulsi3>
   17ae4:	00997433          	and	s0,s2,s1
   17ae8:	00850533          	add	a0,a0,s0
   17aec:	010d5413          	srli	s0,s10,0x10
   17af0:	00850433          	add	s0,a0,s0
   17af4:	004d8d93          	addi	s11,s11,4
   17af8:	004c8c93          	addi	s9,s9,4
   17afc:	01045d13          	srli	s10,s0,0x10
   17b00:	fb3de4e3          	bltu	s11,s3,17aa8 <__multiply+0x194>
   17b04:	00412783          	lw	a5,4(sp)
   17b08:	004a0a13          	addi	s4,s4,4
   17b0c:	00fb07b3          	add	a5,s6,a5
   17b10:	0087a023          	sw	s0,0(a5)
   17b14:	00012783          	lw	a5,0(sp)
   17b18:	004b0b13          	addi	s6,s6,4
   17b1c:	eefa66e3          	bltu	s4,a5,17a08 <__multiply+0xf4>
   17b20:	01704863          	bgtz	s7,17b30 <__multiply+0x21c>
   17b24:	0180006f          	j	17b3c <__multiply+0x228>
   17b28:	fffb8b93          	addi	s7,s7,-1
   17b2c:	000b8863          	beqz	s7,17b3c <__multiply+0x228>
   17b30:	ffcaa783          	lw	a5,-4(s5)
   17b34:	ffca8a93          	addi	s5,s5,-4
   17b38:	fe0788e3          	beqz	a5,17b28 <__multiply+0x214>
   17b3c:	00c12783          	lw	a5,12(sp)
   17b40:	04c12083          	lw	ra,76(sp)
   17b44:	04812403          	lw	s0,72(sp)
   17b48:	0177a823          	sw	s7,16(a5)
   17b4c:	04412483          	lw	s1,68(sp)
   17b50:	04012903          	lw	s2,64(sp)
   17b54:	03c12983          	lw	s3,60(sp)
   17b58:	03812a03          	lw	s4,56(sp)
   17b5c:	03412a83          	lw	s5,52(sp)
   17b60:	03012b03          	lw	s6,48(sp)
   17b64:	02c12b83          	lw	s7,44(sp)
   17b68:	02812c03          	lw	s8,40(sp)
   17b6c:	02412c83          	lw	s9,36(sp)
   17b70:	02012d03          	lw	s10,32(sp)
   17b74:	01c12d83          	lw	s11,28(sp)
   17b78:	00078513          	mv	a0,a5
   17b7c:	05010113          	addi	sp,sp,80
   17b80:	00008067          	ret
   17b84:	40898db3          	sub	s11,s3,s0
   17b88:	febd8d93          	addi	s11,s11,-21
   17b8c:	ffcdfd93          	andi	s11,s11,-4
   17b90:	004d8793          	addi	a5,s11,4
   17b94:	00f12223          	sw	a5,4(sp)
   17b98:	e4dff06f          	j	179e4 <__multiply+0xd0>

00017b9c <__pow5mult>:
   17b9c:	fe010113          	addi	sp,sp,-32
   17ba0:	00812c23          	sw	s0,24(sp)
   17ba4:	01312623          	sw	s3,12(sp)
   17ba8:	01412423          	sw	s4,8(sp)
   17bac:	00112e23          	sw	ra,28(sp)
   17bb0:	00912a23          	sw	s1,20(sp)
   17bb4:	01212823          	sw	s2,16(sp)
   17bb8:	00367793          	andi	a5,a2,3
   17bbc:	00060413          	mv	s0,a2
   17bc0:	00050993          	mv	s3,a0
   17bc4:	00058a13          	mv	s4,a1
   17bc8:	0c079463          	bnez	a5,17c90 <__pow5mult+0xf4>
   17bcc:	40245413          	srai	s0,s0,0x2
   17bd0:	000a0913          	mv	s2,s4
   17bd4:	06040863          	beqz	s0,17c44 <__pow5mult+0xa8>
   17bd8:	0489a483          	lw	s1,72(s3)
   17bdc:	0c048e63          	beqz	s1,17cb8 <__pow5mult+0x11c>
   17be0:	00147793          	andi	a5,s0,1
   17be4:	000a0913          	mv	s2,s4
   17be8:	02079063          	bnez	a5,17c08 <__pow5mult+0x6c>
   17bec:	40145413          	srai	s0,s0,0x1
   17bf0:	04040a63          	beqz	s0,17c44 <__pow5mult+0xa8>
   17bf4:	0004a503          	lw	a0,0(s1)
   17bf8:	06050863          	beqz	a0,17c68 <__pow5mult+0xcc>
   17bfc:	00050493          	mv	s1,a0
   17c00:	00147793          	andi	a5,s0,1
   17c04:	fe0784e3          	beqz	a5,17bec <__pow5mult+0x50>
   17c08:	00048613          	mv	a2,s1
   17c0c:	00090593          	mv	a1,s2
   17c10:	00098513          	mv	a0,s3
   17c14:	d01ff0ef          	jal	ra,17914 <__multiply>
   17c18:	06090863          	beqz	s2,17c88 <__pow5mult+0xec>
   17c1c:	00492703          	lw	a4,4(s2)
   17c20:	04c9a783          	lw	a5,76(s3)
   17c24:	40145413          	srai	s0,s0,0x1
   17c28:	00271713          	slli	a4,a4,0x2
   17c2c:	00e787b3          	add	a5,a5,a4
   17c30:	0007a703          	lw	a4,0(a5)
   17c34:	00e92023          	sw	a4,0(s2)
   17c38:	0127a023          	sw	s2,0(a5)
   17c3c:	00050913          	mv	s2,a0
   17c40:	fa041ae3          	bnez	s0,17bf4 <__pow5mult+0x58>
   17c44:	01c12083          	lw	ra,28(sp)
   17c48:	01812403          	lw	s0,24(sp)
   17c4c:	01412483          	lw	s1,20(sp)
   17c50:	00c12983          	lw	s3,12(sp)
   17c54:	00812a03          	lw	s4,8(sp)
   17c58:	00090513          	mv	a0,s2
   17c5c:	01012903          	lw	s2,16(sp)
   17c60:	02010113          	addi	sp,sp,32
   17c64:	00008067          	ret
   17c68:	00048613          	mv	a2,s1
   17c6c:	00048593          	mv	a1,s1
   17c70:	00098513          	mv	a0,s3
   17c74:	ca1ff0ef          	jal	ra,17914 <__multiply>
   17c78:	00a4a023          	sw	a0,0(s1)
   17c7c:	00052023          	sw	zero,0(a0)
   17c80:	00050493          	mv	s1,a0
   17c84:	f7dff06f          	j	17c00 <__pow5mult+0x64>
   17c88:	00050913          	mv	s2,a0
   17c8c:	f61ff06f          	j	17bec <__pow5mult+0x50>
   17c90:	fff78793          	addi	a5,a5,-1
   17c94:	00025737          	lui	a4,0x25
   17c98:	ba070713          	addi	a4,a4,-1120 # 24ba0 <p05.3277>
   17c9c:	00279793          	slli	a5,a5,0x2
   17ca0:	00f707b3          	add	a5,a4,a5
   17ca4:	0007a603          	lw	a2,0(a5)
   17ca8:	00000693          	li	a3,0
   17cac:	8b9ff0ef          	jal	ra,17564 <__multadd>
   17cb0:	00050a13          	mv	s4,a0
   17cb4:	f19ff06f          	j	17bcc <__pow5mult+0x30>
   17cb8:	00100593          	li	a1,1
   17cbc:	00098513          	mv	a0,s3
   17cc0:	fd8ff0ef          	jal	ra,17498 <_Balloc>
   17cc4:	27100793          	li	a5,625
   17cc8:	00f52a23          	sw	a5,20(a0)
   17ccc:	00100793          	li	a5,1
   17cd0:	00f52823          	sw	a5,16(a0)
   17cd4:	04a9a423          	sw	a0,72(s3)
   17cd8:	00050493          	mv	s1,a0
   17cdc:	00052023          	sw	zero,0(a0)
   17ce0:	f01ff06f          	j	17be0 <__pow5mult+0x44>

00017ce4 <__lshift>:
   17ce4:	fe010113          	addi	sp,sp,-32
   17ce8:	01412423          	sw	s4,8(sp)
   17cec:	0105aa03          	lw	s4,16(a1)
   17cf0:	0085a783          	lw	a5,8(a1)
   17cf4:	01312623          	sw	s3,12(sp)
   17cf8:	40565993          	srai	s3,a2,0x5
   17cfc:	01498a33          	add	s4,s3,s4
   17d00:	00812c23          	sw	s0,24(sp)
   17d04:	00912a23          	sw	s1,20(sp)
   17d08:	01212823          	sw	s2,16(sp)
   17d0c:	01512223          	sw	s5,4(sp)
   17d10:	00112e23          	sw	ra,28(sp)
   17d14:	001a0913          	addi	s2,s4,1
   17d18:	00058493          	mv	s1,a1
   17d1c:	00060413          	mv	s0,a2
   17d20:	0045a583          	lw	a1,4(a1)
   17d24:	00050a93          	mv	s5,a0
   17d28:	0127d863          	bge	a5,s2,17d38 <__lshift+0x54>
   17d2c:	00179793          	slli	a5,a5,0x1
   17d30:	00158593          	addi	a1,a1,1
   17d34:	ff27cce3          	blt	a5,s2,17d2c <__lshift+0x48>
   17d38:	000a8513          	mv	a0,s5
   17d3c:	f5cff0ef          	jal	ra,17498 <_Balloc>
   17d40:	01450813          	addi	a6,a0,20
   17d44:	03305463          	blez	s3,17d6c <__lshift+0x88>
   17d48:	00598993          	addi	s3,s3,5
   17d4c:	00299993          	slli	s3,s3,0x2
   17d50:	01350733          	add	a4,a0,s3
   17d54:	00080793          	mv	a5,a6
   17d58:	00478793          	addi	a5,a5,4
   17d5c:	fe07ae23          	sw	zero,-4(a5)
   17d60:	fee79ce3          	bne	a5,a4,17d58 <__lshift+0x74>
   17d64:	fec98993          	addi	s3,s3,-20
   17d68:	01380833          	add	a6,a6,s3
   17d6c:	0104a703          	lw	a4,16(s1)
   17d70:	01448793          	addi	a5,s1,20
   17d74:	01f47313          	andi	t1,s0,31
   17d78:	00271613          	slli	a2,a4,0x2
   17d7c:	00c78633          	add	a2,a5,a2
   17d80:	08030c63          	beqz	t1,17e18 <__lshift+0x134>
   17d84:	02000593          	li	a1,32
   17d88:	406585b3          	sub	a1,a1,t1
   17d8c:	00080893          	mv	a7,a6
   17d90:	00000693          	li	a3,0
   17d94:	0007a703          	lw	a4,0(a5)
   17d98:	00488893          	addi	a7,a7,4
   17d9c:	00478793          	addi	a5,a5,4
   17da0:	00671733          	sll	a4,a4,t1
   17da4:	00d76733          	or	a4,a4,a3
   17da8:	fee8ae23          	sw	a4,-4(a7)
   17dac:	ffc7a703          	lw	a4,-4(a5)
   17db0:	00b756b3          	srl	a3,a4,a1
   17db4:	fec7e0e3          	bltu	a5,a2,17d94 <__lshift+0xb0>
   17db8:	01548713          	addi	a4,s1,21
   17dbc:	00400793          	li	a5,4
   17dc0:	08e67263          	bgeu	a2,a4,17e44 <__lshift+0x160>
   17dc4:	00f80833          	add	a6,a6,a5
   17dc8:	00d82023          	sw	a3,0(a6)
   17dcc:	00068463          	beqz	a3,17dd4 <__lshift+0xf0>
   17dd0:	00090a13          	mv	s4,s2
   17dd4:	0044a703          	lw	a4,4(s1)
   17dd8:	04caa783          	lw	a5,76(s5)
   17ddc:	01c12083          	lw	ra,28(sp)
   17de0:	00271713          	slli	a4,a4,0x2
   17de4:	00e787b3          	add	a5,a5,a4
   17de8:	0007a703          	lw	a4,0(a5)
   17dec:	01452823          	sw	s4,16(a0)
   17df0:	01812403          	lw	s0,24(sp)
   17df4:	00e4a023          	sw	a4,0(s1)
   17df8:	0097a023          	sw	s1,0(a5)
   17dfc:	01012903          	lw	s2,16(sp)
   17e00:	01412483          	lw	s1,20(sp)
   17e04:	00c12983          	lw	s3,12(sp)
   17e08:	00812a03          	lw	s4,8(sp)
   17e0c:	00412a83          	lw	s5,4(sp)
   17e10:	02010113          	addi	sp,sp,32
   17e14:	00008067          	ret
   17e18:	0007a703          	lw	a4,0(a5)
   17e1c:	00478793          	addi	a5,a5,4
   17e20:	00480813          	addi	a6,a6,4
   17e24:	fee82e23          	sw	a4,-4(a6)
   17e28:	fac7f6e3          	bgeu	a5,a2,17dd4 <__lshift+0xf0>
   17e2c:	0007a703          	lw	a4,0(a5)
   17e30:	00478793          	addi	a5,a5,4
   17e34:	00480813          	addi	a6,a6,4
   17e38:	fee82e23          	sw	a4,-4(a6)
   17e3c:	fcc7eee3          	bltu	a5,a2,17e18 <__lshift+0x134>
   17e40:	f95ff06f          	j	17dd4 <__lshift+0xf0>
   17e44:	409607b3          	sub	a5,a2,s1
   17e48:	feb78793          	addi	a5,a5,-21
   17e4c:	ffc7f793          	andi	a5,a5,-4
   17e50:	00478793          	addi	a5,a5,4
   17e54:	00f80833          	add	a6,a6,a5
   17e58:	00d82023          	sw	a3,0(a6)
   17e5c:	f6068ce3          	beqz	a3,17dd4 <__lshift+0xf0>
   17e60:	f71ff06f          	j	17dd0 <__lshift+0xec>

00017e64 <__mcmp>:
   17e64:	01052703          	lw	a4,16(a0)
   17e68:	0105a783          	lw	a5,16(a1)
   17e6c:	00050813          	mv	a6,a0
   17e70:	40f70533          	sub	a0,a4,a5
   17e74:	04f71463          	bne	a4,a5,17ebc <__mcmp+0x58>
   17e78:	00279793          	slli	a5,a5,0x2
   17e7c:	01480813          	addi	a6,a6,20
   17e80:	01458593          	addi	a1,a1,20
   17e84:	00f80733          	add	a4,a6,a5
   17e88:	00f587b3          	add	a5,a1,a5
   17e8c:	0080006f          	j	17e94 <__mcmp+0x30>
   17e90:	02e87663          	bgeu	a6,a4,17ebc <__mcmp+0x58>
   17e94:	ffc72683          	lw	a3,-4(a4)
   17e98:	ffc7a603          	lw	a2,-4(a5)
   17e9c:	ffc70713          	addi	a4,a4,-4
   17ea0:	ffc78793          	addi	a5,a5,-4
   17ea4:	fec686e3          	beq	a3,a2,17e90 <__mcmp+0x2c>
   17ea8:	00c6b6b3          	sltu	a3,a3,a2
   17eac:	40d00533          	neg	a0,a3
   17eb0:	ffe57513          	andi	a0,a0,-2
   17eb4:	00150513          	addi	a0,a0,1
   17eb8:	00008067          	ret
   17ebc:	00008067          	ret

00017ec0 <__mdiff>:
   17ec0:	0105a783          	lw	a5,16(a1)
   17ec4:	01062703          	lw	a4,16(a2)
   17ec8:	fe010113          	addi	sp,sp,-32
   17ecc:	00812c23          	sw	s0,24(sp)
   17ed0:	00912a23          	sw	s1,20(sp)
   17ed4:	01212823          	sw	s2,16(sp)
   17ed8:	01312623          	sw	s3,12(sp)
   17edc:	01412423          	sw	s4,8(sp)
   17ee0:	00112e23          	sw	ra,28(sp)
   17ee4:	00058913          	mv	s2,a1
   17ee8:	00060993          	mv	s3,a2
   17eec:	40e78a33          	sub	s4,a5,a4
   17ef0:	01458413          	addi	s0,a1,20
   17ef4:	01460493          	addi	s1,a2,20
   17ef8:	04e79863          	bne	a5,a4,17f48 <__mdiff+0x88>
   17efc:	00271713          	slli	a4,a4,0x2
   17f00:	00e407b3          	add	a5,s0,a4
   17f04:	00e48733          	add	a4,s1,a4
   17f08:	0080006f          	j	17f10 <__mdiff+0x50>
   17f0c:	1af47063          	bgeu	s0,a5,180ac <__mdiff+0x1ec>
   17f10:	ffc7a803          	lw	a6,-4(a5)
   17f14:	ffc72683          	lw	a3,-4(a4)
   17f18:	ffc78793          	addi	a5,a5,-4
   17f1c:	ffc70713          	addi	a4,a4,-4
   17f20:	fed806e3          	beq	a6,a3,17f0c <__mdiff+0x4c>
   17f24:	02d87663          	bgeu	a6,a3,17f50 <__mdiff+0x90>
   17f28:	00040713          	mv	a4,s0
   17f2c:	00090793          	mv	a5,s2
   17f30:	00048413          	mv	s0,s1
   17f34:	00098913          	mv	s2,s3
   17f38:	00070493          	mv	s1,a4
   17f3c:	00078993          	mv	s3,a5
   17f40:	00100a13          	li	s4,1
   17f44:	00c0006f          	j	17f50 <__mdiff+0x90>
   17f48:	fe0a40e3          	bltz	s4,17f28 <__mdiff+0x68>
   17f4c:	00000a13          	li	s4,0
   17f50:	00492583          	lw	a1,4(s2)
   17f54:	d44ff0ef          	jal	ra,17498 <_Balloc>
   17f58:	01092e03          	lw	t3,16(s2)
   17f5c:	0109af83          	lw	t6,16(s3)
   17f60:	01450293          	addi	t0,a0,20
   17f64:	002e1e93          	slli	t4,t3,0x2
   17f68:	002f9f93          	slli	t6,t6,0x2
   17f6c:	000108b7          	lui	a7,0x10
   17f70:	01452623          	sw	s4,12(a0)
   17f74:	01d40eb3          	add	t4,s0,t4
   17f78:	01f48fb3          	add	t6,s1,t6
   17f7c:	00028f13          	mv	t5,t0
   17f80:	00048813          	mv	a6,s1
   17f84:	00040313          	mv	t1,s0
   17f88:	00000793          	li	a5,0
   17f8c:	fff88893          	addi	a7,a7,-1 # ffff <register_fini-0x75>
   17f90:	00032703          	lw	a4,0(t1)
   17f94:	00082583          	lw	a1,0(a6)
   17f98:	004f0f13          	addi	t5,t5,4
   17f9c:	011776b3          	and	a3,a4,a7
   17fa0:	00f686b3          	add	a3,a3,a5
   17fa4:	0115f7b3          	and	a5,a1,a7
   17fa8:	40f686b3          	sub	a3,a3,a5
   17fac:	0105d593          	srli	a1,a1,0x10
   17fb0:	01075793          	srli	a5,a4,0x10
   17fb4:	40b787b3          	sub	a5,a5,a1
   17fb8:	4106d713          	srai	a4,a3,0x10
   17fbc:	00e787b3          	add	a5,a5,a4
   17fc0:	01079713          	slli	a4,a5,0x10
   17fc4:	0116f6b3          	and	a3,a3,a7
   17fc8:	00d766b3          	or	a3,a4,a3
   17fcc:	00480813          	addi	a6,a6,4
   17fd0:	fedf2e23          	sw	a3,-4(t5)
   17fd4:	00430313          	addi	t1,t1,4
   17fd8:	4107d793          	srai	a5,a5,0x10
   17fdc:	fbf86ae3          	bltu	a6,t6,17f90 <__mdiff+0xd0>
   17fe0:	fff4c613          	not	a2,s1
   17fe4:	00cf8633          	add	a2,t6,a2
   17fe8:	00148493          	addi	s1,s1,1
   17fec:	00265613          	srli	a2,a2,0x2
   17ff0:	00000713          	li	a4,0
   17ff4:	009fe463          	bltu	t6,s1,17ffc <__mdiff+0x13c>
   17ff8:	00261713          	slli	a4,a2,0x2
   17ffc:	00e28733          	add	a4,t0,a4
   18000:	00400593          	li	a1,4
   18004:	009fe663          	bltu	t6,s1,18010 <__mdiff+0x150>
   18008:	00160613          	addi	a2,a2,1
   1800c:	00261593          	slli	a1,a2,0x2
   18010:	00b40433          	add	s0,s0,a1
   18014:	00b282b3          	add	t0,t0,a1
   18018:	05d47e63          	bgeu	s0,t4,18074 <__mdiff+0x1b4>
   1801c:	000108b7          	lui	a7,0x10
   18020:	00028813          	mv	a6,t0
   18024:	00040593          	mv	a1,s0
   18028:	fff88893          	addi	a7,a7,-1 # ffff <register_fini-0x75>
   1802c:	0005a703          	lw	a4,0(a1)
   18030:	00480813          	addi	a6,a6,4
   18034:	00458593          	addi	a1,a1,4
   18038:	01177633          	and	a2,a4,a7
   1803c:	00f60633          	add	a2,a2,a5
   18040:	41065693          	srai	a3,a2,0x10
   18044:	01075793          	srli	a5,a4,0x10
   18048:	00d787b3          	add	a5,a5,a3
   1804c:	01079693          	slli	a3,a5,0x10
   18050:	01167633          	and	a2,a2,a7
   18054:	00c6e6b3          	or	a3,a3,a2
   18058:	fed82e23          	sw	a3,-4(a6)
   1805c:	4107d793          	srai	a5,a5,0x10
   18060:	fdd5e6e3          	bltu	a1,t4,1802c <__mdiff+0x16c>
   18064:	fffe8713          	addi	a4,t4,-1
   18068:	40870733          	sub	a4,a4,s0
   1806c:	ffc77713          	andi	a4,a4,-4
   18070:	00e28733          	add	a4,t0,a4
   18074:	00069a63          	bnez	a3,18088 <__mdiff+0x1c8>
   18078:	ffc72783          	lw	a5,-4(a4)
   1807c:	fffe0e13          	addi	t3,t3,-1
   18080:	ffc70713          	addi	a4,a4,-4
   18084:	fe078ae3          	beqz	a5,18078 <__mdiff+0x1b8>
   18088:	01c12083          	lw	ra,28(sp)
   1808c:	01812403          	lw	s0,24(sp)
   18090:	01c52823          	sw	t3,16(a0)
   18094:	01412483          	lw	s1,20(sp)
   18098:	01012903          	lw	s2,16(sp)
   1809c:	00c12983          	lw	s3,12(sp)
   180a0:	00812a03          	lw	s4,8(sp)
   180a4:	02010113          	addi	sp,sp,32
   180a8:	00008067          	ret
   180ac:	00000593          	li	a1,0
   180b0:	be8ff0ef          	jal	ra,17498 <_Balloc>
   180b4:	01c12083          	lw	ra,28(sp)
   180b8:	01812403          	lw	s0,24(sp)
   180bc:	00100793          	li	a5,1
   180c0:	00f52823          	sw	a5,16(a0)
   180c4:	00052a23          	sw	zero,20(a0)
   180c8:	01412483          	lw	s1,20(sp)
   180cc:	01012903          	lw	s2,16(sp)
   180d0:	00c12983          	lw	s3,12(sp)
   180d4:	00812a03          	lw	s4,8(sp)
   180d8:	02010113          	addi	sp,sp,32
   180dc:	00008067          	ret

000180e0 <__ulp>:
   180e0:	7ff007b7          	lui	a5,0x7ff00
   180e4:	00b7f5b3          	and	a1,a5,a1
   180e8:	fcc007b7          	lui	a5,0xfcc00
   180ec:	00f585b3          	add	a1,a1,a5
   180f0:	00b05863          	blez	a1,18100 <__ulp+0x20>
   180f4:	00000793          	li	a5,0
   180f8:	00078513          	mv	a0,a5
   180fc:	00008067          	ret
   18100:	40b005b3          	neg	a1,a1
   18104:	4145d593          	srai	a1,a1,0x14
   18108:	01300793          	li	a5,19
   1810c:	00b7c863          	blt	a5,a1,1811c <__ulp+0x3c>
   18110:	000807b7          	lui	a5,0x80
   18114:	40b7d5b3          	sra	a1,a5,a1
   18118:	fddff06f          	j	180f4 <__ulp+0x14>
   1811c:	fec58713          	addi	a4,a1,-20
   18120:	01e00693          	li	a3,30
   18124:	00000593          	li	a1,0
   18128:	00100793          	li	a5,1
   1812c:	fce6c6e3          	blt	a3,a4,180f8 <__ulp+0x18>
   18130:	800007b7          	lui	a5,0x80000
   18134:	00e7d7b3          	srl	a5,a5,a4
   18138:	00078513          	mv	a0,a5
   1813c:	00008067          	ret

00018140 <__b2d>:
   18140:	fe010113          	addi	sp,sp,-32
   18144:	00912a23          	sw	s1,20(sp)
   18148:	01052483          	lw	s1,16(a0)
   1814c:	00812c23          	sw	s0,24(sp)
   18150:	01450413          	addi	s0,a0,20
   18154:	00249493          	slli	s1,s1,0x2
   18158:	009404b3          	add	s1,s0,s1
   1815c:	01212823          	sw	s2,16(sp)
   18160:	ffc4a903          	lw	s2,-4(s1)
   18164:	01312623          	sw	s3,12(sp)
   18168:	01412423          	sw	s4,8(sp)
   1816c:	00090513          	mv	a0,s2
   18170:	00058993          	mv	s3,a1
   18174:	00112e23          	sw	ra,28(sp)
   18178:	e44ff0ef          	jal	ra,177bc <__hi0bits>
   1817c:	02000713          	li	a4,32
   18180:	40a707b3          	sub	a5,a4,a0
   18184:	00f9a023          	sw	a5,0(s3)
   18188:	00a00793          	li	a5,10
   1818c:	ffc48a13          	addi	s4,s1,-4
   18190:	08a7d063          	bge	a5,a0,18210 <__b2d+0xd0>
   18194:	ff550513          	addi	a0,a0,-11
   18198:	05447063          	bgeu	s0,s4,181d8 <__b2d+0x98>
   1819c:	ff84a783          	lw	a5,-8(s1)
   181a0:	04050063          	beqz	a0,181e0 <__b2d+0xa0>
   181a4:	40a706b3          	sub	a3,a4,a0
   181a8:	00d7d733          	srl	a4,a5,a3
   181ac:	00a91933          	sll	s2,s2,a0
   181b0:	00e96933          	or	s2,s2,a4
   181b4:	ff848613          	addi	a2,s1,-8
   181b8:	3ff00737          	lui	a4,0x3ff00
   181bc:	00e96733          	or	a4,s2,a4
   181c0:	00a797b3          	sll	a5,a5,a0
   181c4:	02c47263          	bgeu	s0,a2,181e8 <__b2d+0xa8>
   181c8:	ff44a603          	lw	a2,-12(s1)
   181cc:	00d656b3          	srl	a3,a2,a3
   181d0:	00d7e7b3          	or	a5,a5,a3
   181d4:	0140006f          	j	181e8 <__b2d+0xa8>
   181d8:	00000793          	li	a5,0
   181dc:	06051463          	bnez	a0,18244 <__b2d+0x104>
   181e0:	3ff00737          	lui	a4,0x3ff00
   181e4:	00e96733          	or	a4,s2,a4
   181e8:	01c12083          	lw	ra,28(sp)
   181ec:	01812403          	lw	s0,24(sp)
   181f0:	01412483          	lw	s1,20(sp)
   181f4:	01012903          	lw	s2,16(sp)
   181f8:	00c12983          	lw	s3,12(sp)
   181fc:	00812a03          	lw	s4,8(sp)
   18200:	00078513          	mv	a0,a5
   18204:	00070593          	mv	a1,a4
   18208:	02010113          	addi	sp,sp,32
   1820c:	00008067          	ret
   18210:	00b00693          	li	a3,11
   18214:	40a686b3          	sub	a3,a3,a0
   18218:	3ff007b7          	lui	a5,0x3ff00
   1821c:	00d95733          	srl	a4,s2,a3
   18220:	00f76733          	or	a4,a4,a5
   18224:	00000793          	li	a5,0
   18228:	01447663          	bgeu	s0,s4,18234 <__b2d+0xf4>
   1822c:	ff84a783          	lw	a5,-8(s1)
   18230:	00d7d7b3          	srl	a5,a5,a3
   18234:	01550513          	addi	a0,a0,21
   18238:	00a91533          	sll	a0,s2,a0
   1823c:	00f567b3          	or	a5,a0,a5
   18240:	fa9ff06f          	j	181e8 <__b2d+0xa8>
   18244:	00a91533          	sll	a0,s2,a0
   18248:	3ff00737          	lui	a4,0x3ff00
   1824c:	00e56733          	or	a4,a0,a4
   18250:	00000793          	li	a5,0
   18254:	f95ff06f          	j	181e8 <__b2d+0xa8>

00018258 <__d2b>:
   18258:	fd010113          	addi	sp,sp,-48
   1825c:	01512a23          	sw	s5,20(sp)
   18260:	00058a93          	mv	s5,a1
   18264:	00100593          	li	a1,1
   18268:	02812423          	sw	s0,40(sp)
   1826c:	02912223          	sw	s1,36(sp)
   18270:	03212023          	sw	s2,32(sp)
   18274:	00060493          	mv	s1,a2
   18278:	01312e23          	sw	s3,28(sp)
   1827c:	01412c23          	sw	s4,24(sp)
   18280:	00068993          	mv	s3,a3
   18284:	00070913          	mv	s2,a4
   18288:	02112623          	sw	ra,44(sp)
   1828c:	a0cff0ef          	jal	ra,17498 <_Balloc>
   18290:	0144d713          	srli	a4,s1,0x14
   18294:	00100637          	lui	a2,0x100
   18298:	fff60793          	addi	a5,a2,-1 # fffff <__BSS_END__+0xd90d3>
   1829c:	01571693          	slli	a3,a4,0x15
   182a0:	00050413          	mv	s0,a0
   182a4:	0097f7b3          	and	a5,a5,s1
   182a8:	7ff77a13          	andi	s4,a4,2047
   182ac:	00068463          	beqz	a3,182b4 <__d2b+0x5c>
   182b0:	00c7e7b3          	or	a5,a5,a2
   182b4:	00f12623          	sw	a5,12(sp)
   182b8:	060a8c63          	beqz	s5,18330 <__d2b+0xd8>
   182bc:	00810513          	addi	a0,sp,8
   182c0:	01512423          	sw	s5,8(sp)
   182c4:	d6cff0ef          	jal	ra,17830 <__lo0bits>
   182c8:	00c12703          	lw	a4,12(sp)
   182cc:	00050793          	mv	a5,a0
   182d0:	0a051663          	bnez	a0,1837c <__d2b+0x124>
   182d4:	00812683          	lw	a3,8(sp)
   182d8:	00d42a23          	sw	a3,20(s0)
   182dc:	00e034b3          	snez	s1,a4
   182e0:	00148493          	addi	s1,s1,1
   182e4:	00e42c23          	sw	a4,24(s0)
   182e8:	00942823          	sw	s1,16(s0)
   182ec:	060a0463          	beqz	s4,18354 <__d2b+0xfc>
   182f0:	bcda0a13          	addi	s4,s4,-1075
   182f4:	00fa0a33          	add	s4,s4,a5
   182f8:	03500513          	li	a0,53
   182fc:	0149a023          	sw	s4,0(s3)
   18300:	40f507b3          	sub	a5,a0,a5
   18304:	00f92023          	sw	a5,0(s2)
   18308:	02c12083          	lw	ra,44(sp)
   1830c:	00040513          	mv	a0,s0
   18310:	02812403          	lw	s0,40(sp)
   18314:	02412483          	lw	s1,36(sp)
   18318:	02012903          	lw	s2,32(sp)
   1831c:	01c12983          	lw	s3,28(sp)
   18320:	01812a03          	lw	s4,24(sp)
   18324:	01412a83          	lw	s5,20(sp)
   18328:	03010113          	addi	sp,sp,48
   1832c:	00008067          	ret
   18330:	00c10513          	addi	a0,sp,12
   18334:	cfcff0ef          	jal	ra,17830 <__lo0bits>
   18338:	00100793          	li	a5,1
   1833c:	00f42823          	sw	a5,16(s0)
   18340:	00c12783          	lw	a5,12(sp)
   18344:	00100493          	li	s1,1
   18348:	00f42a23          	sw	a5,20(s0)
   1834c:	02050793          	addi	a5,a0,32
   18350:	fa0a10e3          	bnez	s4,182f0 <__d2b+0x98>
   18354:	00249713          	slli	a4,s1,0x2
   18358:	00e40733          	add	a4,s0,a4
   1835c:	01072503          	lw	a0,16(a4) # 3ff00010 <__BSS_END__+0x3fed90e4>
   18360:	bce78793          	addi	a5,a5,-1074 # 3feffbce <__BSS_END__+0x3fed8ca2>
   18364:	00f9a023          	sw	a5,0(s3)
   18368:	c54ff0ef          	jal	ra,177bc <__hi0bits>
   1836c:	00549493          	slli	s1,s1,0x5
   18370:	40a484b3          	sub	s1,s1,a0
   18374:	00992023          	sw	s1,0(s2)
   18378:	f91ff06f          	j	18308 <__d2b+0xb0>
   1837c:	00812603          	lw	a2,8(sp)
   18380:	02000693          	li	a3,32
   18384:	40a686b3          	sub	a3,a3,a0
   18388:	00d716b3          	sll	a3,a4,a3
   1838c:	00c6e6b3          	or	a3,a3,a2
   18390:	00a75733          	srl	a4,a4,a0
   18394:	00d42a23          	sw	a3,20(s0)
   18398:	00e12623          	sw	a4,12(sp)
   1839c:	f41ff06f          	j	182dc <__d2b+0x84>

000183a0 <__ratio>:
   183a0:	fd010113          	addi	sp,sp,-48
   183a4:	03212023          	sw	s2,32(sp)
   183a8:	00058913          	mv	s2,a1
   183ac:	00810593          	addi	a1,sp,8
   183b0:	02112623          	sw	ra,44(sp)
   183b4:	02812423          	sw	s0,40(sp)
   183b8:	02912223          	sw	s1,36(sp)
   183bc:	01312e23          	sw	s3,28(sp)
   183c0:	00050993          	mv	s3,a0
   183c4:	d7dff0ef          	jal	ra,18140 <__b2d>
   183c8:	00050493          	mv	s1,a0
   183cc:	00058413          	mv	s0,a1
   183d0:	00090513          	mv	a0,s2
   183d4:	00c10593          	addi	a1,sp,12
   183d8:	d69ff0ef          	jal	ra,18140 <__b2d>
   183dc:	01092783          	lw	a5,16(s2)
   183e0:	0109a703          	lw	a4,16(s3)
   183e4:	00c12683          	lw	a3,12(sp)
   183e8:	40f70733          	sub	a4,a4,a5
   183ec:	00812783          	lw	a5,8(sp)
   183f0:	00571713          	slli	a4,a4,0x5
   183f4:	40d787b3          	sub	a5,a5,a3
   183f8:	00f707b3          	add	a5,a4,a5
   183fc:	00050693          	mv	a3,a0
   18400:	02f05e63          	blez	a5,1843c <__ratio+0x9c>
   18404:	01479793          	slli	a5,a5,0x14
   18408:	00878433          	add	s0,a5,s0
   1840c:	00068613          	mv	a2,a3
   18410:	00048513          	mv	a0,s1
   18414:	00058693          	mv	a3,a1
   18418:	00040593          	mv	a1,s0
   1841c:	781070ef          	jal	ra,2039c <__divdf3>
   18420:	02c12083          	lw	ra,44(sp)
   18424:	02812403          	lw	s0,40(sp)
   18428:	02412483          	lw	s1,36(sp)
   1842c:	02012903          	lw	s2,32(sp)
   18430:	01c12983          	lw	s3,28(sp)
   18434:	03010113          	addi	sp,sp,48
   18438:	00008067          	ret
   1843c:	01479713          	slli	a4,a5,0x14
   18440:	40e585b3          	sub	a1,a1,a4
   18444:	fc9ff06f          	j	1840c <__ratio+0x6c>

00018448 <_mprec_log10>:
   18448:	ff010113          	addi	sp,sp,-16
   1844c:	01212023          	sw	s2,0(sp)
   18450:	00112623          	sw	ra,12(sp)
   18454:	00812423          	sw	s0,8(sp)
   18458:	00912223          	sw	s1,4(sp)
   1845c:	01700793          	li	a5,23
   18460:	00050913          	mv	s2,a0
   18464:	04a7d663          	bge	a5,a0,184b0 <_mprec_log10+0x68>
   18468:	1a01a783          	lw	a5,416(gp) # 26e98 <__SDATA_BEGIN__>
   1846c:	1a41a583          	lw	a1,420(gp) # 26e9c <__SDATA_BEGIN__+0x4>
   18470:	1a81a403          	lw	s0,424(gp) # 26ea0 <__SDATA_BEGIN__+0x8>
   18474:	1ac1a483          	lw	s1,428(gp) # 26ea4 <__SDATA_BEGIN__+0xc>
   18478:	00078513          	mv	a0,a5
   1847c:	00040613          	mv	a2,s0
   18480:	00048693          	mv	a3,s1
   18484:	6f0080ef          	jal	ra,20b74 <__muldf3>
   18488:	fff90913          	addi	s2,s2,-1
   1848c:	00050793          	mv	a5,a0
   18490:	fe0914e3          	bnez	s2,18478 <_mprec_log10+0x30>
   18494:	00c12083          	lw	ra,12(sp)
   18498:	00812403          	lw	s0,8(sp)
   1849c:	00412483          	lw	s1,4(sp)
   184a0:	00012903          	lw	s2,0(sp)
   184a4:	00078513          	mv	a0,a5
   184a8:	01010113          	addi	sp,sp,16
   184ac:	00008067          	ret
   184b0:	000257b7          	lui	a5,0x25
   184b4:	00351913          	slli	s2,a0,0x3
   184b8:	ba078793          	addi	a5,a5,-1120 # 24ba0 <p05.3277>
   184bc:	01278933          	add	s2,a5,s2
   184c0:	01092783          	lw	a5,16(s2)
   184c4:	00c12083          	lw	ra,12(sp)
   184c8:	00812403          	lw	s0,8(sp)
   184cc:	01492583          	lw	a1,20(s2)
   184d0:	00412483          	lw	s1,4(sp)
   184d4:	00012903          	lw	s2,0(sp)
   184d8:	00078513          	mv	a0,a5
   184dc:	01010113          	addi	sp,sp,16
   184e0:	00008067          	ret

000184e4 <__copybits>:
   184e4:	01062683          	lw	a3,16(a2)
   184e8:	fff58593          	addi	a1,a1,-1
   184ec:	4055d593          	srai	a1,a1,0x5
   184f0:	00158593          	addi	a1,a1,1
   184f4:	01460793          	addi	a5,a2,20
   184f8:	00269693          	slli	a3,a3,0x2
   184fc:	00259593          	slli	a1,a1,0x2
   18500:	00d786b3          	add	a3,a5,a3
   18504:	00b505b3          	add	a1,a0,a1
   18508:	02d7f863          	bgeu	a5,a3,18538 <__copybits+0x54>
   1850c:	00050713          	mv	a4,a0
   18510:	0007a803          	lw	a6,0(a5)
   18514:	00478793          	addi	a5,a5,4
   18518:	00470713          	addi	a4,a4,4
   1851c:	ff072e23          	sw	a6,-4(a4)
   18520:	fed7e8e3          	bltu	a5,a3,18510 <__copybits+0x2c>
   18524:	40c687b3          	sub	a5,a3,a2
   18528:	feb78793          	addi	a5,a5,-21
   1852c:	ffc7f793          	andi	a5,a5,-4
   18530:	00478793          	addi	a5,a5,4
   18534:	00f50533          	add	a0,a0,a5
   18538:	00b57863          	bgeu	a0,a1,18548 <__copybits+0x64>
   1853c:	00450513          	addi	a0,a0,4
   18540:	fe052e23          	sw	zero,-4(a0)
   18544:	feb56ce3          	bltu	a0,a1,1853c <__copybits+0x58>
   18548:	00008067          	ret

0001854c <__any_on>:
   1854c:	01052703          	lw	a4,16(a0)
   18550:	4055d613          	srai	a2,a1,0x5
   18554:	01450693          	addi	a3,a0,20
   18558:	02c75263          	bge	a4,a2,1857c <__any_on+0x30>
   1855c:	00271793          	slli	a5,a4,0x2
   18560:	00f687b3          	add	a5,a3,a5
   18564:	04f6f263          	bgeu	a3,a5,185a8 <__any_on+0x5c>
   18568:	ffc7a703          	lw	a4,-4(a5)
   1856c:	ffc78793          	addi	a5,a5,-4
   18570:	fe070ae3          	beqz	a4,18564 <__any_on+0x18>
   18574:	00100513          	li	a0,1
   18578:	00008067          	ret
   1857c:	00261793          	slli	a5,a2,0x2
   18580:	00f687b3          	add	a5,a3,a5
   18584:	fee650e3          	bge	a2,a4,18564 <__any_on+0x18>
   18588:	01f5f593          	andi	a1,a1,31
   1858c:	fc058ce3          	beqz	a1,18564 <__any_on+0x18>
   18590:	0007a603          	lw	a2,0(a5)
   18594:	00100513          	li	a0,1
   18598:	00b65733          	srl	a4,a2,a1
   1859c:	00b715b3          	sll	a1,a4,a1
   185a0:	fcb602e3          	beq	a2,a1,18564 <__any_on+0x18>
   185a4:	00008067          	ret
   185a8:	00000513          	li	a0,0
   185ac:	00008067          	ret

000185b0 <frexp>:
   185b0:	ff010113          	addi	sp,sp,-16
   185b4:	00912223          	sw	s1,4(sp)
   185b8:	800004b7          	lui	s1,0x80000
   185bc:	00812423          	sw	s0,8(sp)
   185c0:	00112623          	sw	ra,12(sp)
   185c4:	fff4c493          	not	s1,s1
   185c8:	00060413          	mv	s0,a2
   185cc:	00062023          	sw	zero,0(a2)
   185d0:	00b4f6b3          	and	a3,s1,a1
   185d4:	7ff00637          	lui	a2,0x7ff00
   185d8:	00058793          	mv	a5,a1
   185dc:	00050713          	mv	a4,a0
   185e0:	04c6de63          	bge	a3,a2,1863c <frexp+0x8c>
   185e4:	00a6e8b3          	or	a7,a3,a0
   185e8:	04088a63          	beqz	a7,1863c <frexp+0x8c>
   185ec:	00c5f633          	and	a2,a1,a2
   185f0:	00058813          	mv	a6,a1
   185f4:	00000893          	li	a7,0
   185f8:	02061063          	bnez	a2,18618 <frexp+0x68>
   185fc:	1b41a683          	lw	a3,436(gp) # 26eac <__SDATA_BEGIN__+0x14>
   18600:	1b01a603          	lw	a2,432(gp) # 26ea8 <__SDATA_BEGIN__+0x10>
   18604:	570080ef          	jal	ra,20b74 <__muldf3>
   18608:	00050713          	mv	a4,a0
   1860c:	00058813          	mv	a6,a1
   18610:	00b4f6b3          	and	a3,s1,a1
   18614:	fca00893          	li	a7,-54
   18618:	4146d693          	srai	a3,a3,0x14
   1861c:	801007b7          	lui	a5,0x80100
   18620:	fff78793          	addi	a5,a5,-1 # 800fffff <__BSS_END__+0x800d90d3>
   18624:	c0268693          	addi	a3,a3,-1022
   18628:	00f87833          	and	a6,a6,a5
   1862c:	011686b3          	add	a3,a3,a7
   18630:	3fe007b7          	lui	a5,0x3fe00
   18634:	00f867b3          	or	a5,a6,a5
   18638:	00d42023          	sw	a3,0(s0)
   1863c:	00c12083          	lw	ra,12(sp)
   18640:	00812403          	lw	s0,8(sp)
   18644:	00412483          	lw	s1,4(sp)
   18648:	00070513          	mv	a0,a4
   1864c:	00078593          	mv	a1,a5
   18650:	01010113          	addi	sp,sp,16
   18654:	00008067          	ret

00018658 <_sbrk_r>:
   18658:	ff010113          	addi	sp,sp,-16
   1865c:	00812423          	sw	s0,8(sp)
   18660:	00912223          	sw	s1,4(sp)
   18664:	00050413          	mv	s0,a0
   18668:	00058513          	mv	a0,a1
   1866c:	00112623          	sw	ra,12(sp)
   18670:	2201a823          	sw	zero,560(gp) # 26f28 <errno>
   18674:	0c8070ef          	jal	ra,1f73c <_sbrk>
   18678:	fff00793          	li	a5,-1
   1867c:	00f50c63          	beq	a0,a5,18694 <_sbrk_r+0x3c>
   18680:	00c12083          	lw	ra,12(sp)
   18684:	00812403          	lw	s0,8(sp)
   18688:	00412483          	lw	s1,4(sp)
   1868c:	01010113          	addi	sp,sp,16
   18690:	00008067          	ret
   18694:	2301a783          	lw	a5,560(gp) # 26f28 <errno>
   18698:	fe0784e3          	beqz	a5,18680 <_sbrk_r+0x28>
   1869c:	00c12083          	lw	ra,12(sp)
   186a0:	00f42023          	sw	a5,0(s0)
   186a4:	00812403          	lw	s0,8(sp)
   186a8:	00412483          	lw	s1,4(sp)
   186ac:	01010113          	addi	sp,sp,16
   186b0:	00008067          	ret

000186b4 <_sprintf_r>:
   186b4:	f6010113          	addi	sp,sp,-160
   186b8:	08c10e93          	addi	t4,sp,140
   186bc:	08f12a23          	sw	a5,148(sp)
   186c0:	80000337          	lui	t1,0x80000
   186c4:	ffff07b7          	lui	a5,0xffff0
   186c8:	00058e13          	mv	t3,a1
   186cc:	fff34313          	not	t1,t1
   186d0:	08d12623          	sw	a3,140(sp)
   186d4:	20878793          	addi	a5,a5,520 # ffff0208 <__BSS_END__+0xfffc92dc>
   186d8:	00810593          	addi	a1,sp,8
   186dc:	000e8693          	mv	a3,t4
   186e0:	06112e23          	sw	ra,124(sp)
   186e4:	00f12a23          	sw	a5,20(sp)
   186e8:	08e12823          	sw	a4,144(sp)
   186ec:	09012c23          	sw	a6,152(sp)
   186f0:	09112e23          	sw	a7,156(sp)
   186f4:	01c12423          	sw	t3,8(sp)
   186f8:	01c12c23          	sw	t3,24(sp)
   186fc:	00612e23          	sw	t1,28(sp)
   18700:	00612823          	sw	t1,16(sp)
   18704:	01d12223          	sw	t4,4(sp)
   18708:	3d0000ef          	jal	ra,18ad8 <_svfprintf_r>
   1870c:	00812783          	lw	a5,8(sp)
   18710:	00078023          	sb	zero,0(a5)
   18714:	07c12083          	lw	ra,124(sp)
   18718:	0a010113          	addi	sp,sp,160
   1871c:	00008067          	ret

00018720 <sprintf>:
   18720:	00050e13          	mv	t3,a0
   18724:	f6010113          	addi	sp,sp,-160
   18728:	1cc1a503          	lw	a0,460(gp) # 26ec4 <_impure_ptr>
   1872c:	08810e93          	addi	t4,sp,136
   18730:	08f12a23          	sw	a5,148(sp)
   18734:	80000337          	lui	t1,0x80000
   18738:	ffff07b7          	lui	a5,0xffff0
   1873c:	fff34313          	not	t1,t1
   18740:	08c12423          	sw	a2,136(sp)
   18744:	08d12623          	sw	a3,140(sp)
   18748:	20878793          	addi	a5,a5,520 # ffff0208 <__BSS_END__+0xfffc92dc>
   1874c:	00058613          	mv	a2,a1
   18750:	000e8693          	mv	a3,t4
   18754:	00810593          	addi	a1,sp,8
   18758:	06112e23          	sw	ra,124(sp)
   1875c:	00f12a23          	sw	a5,20(sp)
   18760:	08e12823          	sw	a4,144(sp)
   18764:	09012c23          	sw	a6,152(sp)
   18768:	09112e23          	sw	a7,156(sp)
   1876c:	01c12423          	sw	t3,8(sp)
   18770:	01c12c23          	sw	t3,24(sp)
   18774:	00612e23          	sw	t1,28(sp)
   18778:	00612823          	sw	t1,16(sp)
   1877c:	01d12223          	sw	t4,4(sp)
   18780:	358000ef          	jal	ra,18ad8 <_svfprintf_r>
   18784:	00812783          	lw	a5,8(sp)
   18788:	00078023          	sb	zero,0(a5)
   1878c:	07c12083          	lw	ra,124(sp)
   18790:	0a010113          	addi	sp,sp,160
   18794:	00008067          	ret

00018798 <__sread>:
   18798:	ff010113          	addi	sp,sp,-16
   1879c:	00812423          	sw	s0,8(sp)
   187a0:	00058413          	mv	s0,a1
   187a4:	00e59583          	lh	a1,14(a1)
   187a8:	00112623          	sw	ra,12(sp)
   187ac:	7bd040ef          	jal	ra,1d768 <_read_r>
   187b0:	02054063          	bltz	a0,187d0 <__sread+0x38>
   187b4:	05042783          	lw	a5,80(s0)
   187b8:	00c12083          	lw	ra,12(sp)
   187bc:	00a787b3          	add	a5,a5,a0
   187c0:	04f42823          	sw	a5,80(s0)
   187c4:	00812403          	lw	s0,8(sp)
   187c8:	01010113          	addi	sp,sp,16
   187cc:	00008067          	ret
   187d0:	00c45783          	lhu	a5,12(s0)
   187d4:	fffff737          	lui	a4,0xfffff
   187d8:	fff70713          	addi	a4,a4,-1 # ffffefff <__BSS_END__+0xfffd80d3>
   187dc:	00e7f7b3          	and	a5,a5,a4
   187e0:	00c12083          	lw	ra,12(sp)
   187e4:	00f41623          	sh	a5,12(s0)
   187e8:	00812403          	lw	s0,8(sp)
   187ec:	01010113          	addi	sp,sp,16
   187f0:	00008067          	ret

000187f4 <__seofread>:
   187f4:	00000513          	li	a0,0
   187f8:	00008067          	ret

000187fc <__swrite>:
   187fc:	00c59783          	lh	a5,12(a1)
   18800:	fe010113          	addi	sp,sp,-32
   18804:	00812c23          	sw	s0,24(sp)
   18808:	00912a23          	sw	s1,20(sp)
   1880c:	01212823          	sw	s2,16(sp)
   18810:	01312623          	sw	s3,12(sp)
   18814:	00112e23          	sw	ra,28(sp)
   18818:	1007f713          	andi	a4,a5,256
   1881c:	00058413          	mv	s0,a1
   18820:	00050493          	mv	s1,a0
   18824:	00e59583          	lh	a1,14(a1)
   18828:	00060913          	mv	s2,a2
   1882c:	00068993          	mv	s3,a3
   18830:	02071e63          	bnez	a4,1886c <__swrite+0x70>
   18834:	fffff737          	lui	a4,0xfffff
   18838:	fff70713          	addi	a4,a4,-1 # ffffefff <__BSS_END__+0xfffd80d3>
   1883c:	00e7f7b3          	and	a5,a5,a4
   18840:	00f41623          	sh	a5,12(s0)
   18844:	01812403          	lw	s0,24(sp)
   18848:	01c12083          	lw	ra,28(sp)
   1884c:	00098693          	mv	a3,s3
   18850:	00090613          	mv	a2,s2
   18854:	00c12983          	lw	s3,12(sp)
   18858:	01012903          	lw	s2,16(sp)
   1885c:	00048513          	mv	a0,s1
   18860:	01412483          	lw	s1,20(sp)
   18864:	02010113          	addi	sp,sp,32
   18868:	0d00406f          	j	1c938 <_write_r>
   1886c:	00200693          	li	a3,2
   18870:	00000613          	li	a2,0
   18874:	3e1040ef          	jal	ra,1d454 <_lseek_r>
   18878:	00c41783          	lh	a5,12(s0)
   1887c:	00e41583          	lh	a1,14(s0)
   18880:	fb5ff06f          	j	18834 <__swrite+0x38>

00018884 <__sseek>:
   18884:	ff010113          	addi	sp,sp,-16
   18888:	00812423          	sw	s0,8(sp)
   1888c:	00058413          	mv	s0,a1
   18890:	00e59583          	lh	a1,14(a1)
   18894:	00112623          	sw	ra,12(sp)
   18898:	3bd040ef          	jal	ra,1d454 <_lseek_r>
   1889c:	fff00793          	li	a5,-1
   188a0:	02f50463          	beq	a0,a5,188c8 <__sseek+0x44>
   188a4:	00c45783          	lhu	a5,12(s0)
   188a8:	00001737          	lui	a4,0x1
   188ac:	00c12083          	lw	ra,12(sp)
   188b0:	00e7e7b3          	or	a5,a5,a4
   188b4:	04a42823          	sw	a0,80(s0)
   188b8:	00f41623          	sh	a5,12(s0)
   188bc:	00812403          	lw	s0,8(sp)
   188c0:	01010113          	addi	sp,sp,16
   188c4:	00008067          	ret
   188c8:	00c45783          	lhu	a5,12(s0)
   188cc:	fffff737          	lui	a4,0xfffff
   188d0:	fff70713          	addi	a4,a4,-1 # ffffefff <__BSS_END__+0xfffd80d3>
   188d4:	00e7f7b3          	and	a5,a5,a4
   188d8:	00c12083          	lw	ra,12(sp)
   188dc:	00f41623          	sh	a5,12(s0)
   188e0:	00812403          	lw	s0,8(sp)
   188e4:	01010113          	addi	sp,sp,16
   188e8:	00008067          	ret

000188ec <__sclose>:
   188ec:	00e59583          	lh	a1,14(a1)
   188f0:	20c0406f          	j	1cafc <_close_r>

000188f4 <strcpy>:
   188f4:	00b567b3          	or	a5,a0,a1
   188f8:	0037f793          	andi	a5,a5,3
   188fc:	08079263          	bnez	a5,18980 <strcpy+0x8c>
   18900:	0005a703          	lw	a4,0(a1)
   18904:	7f7f86b7          	lui	a3,0x7f7f8
   18908:	f7f68693          	addi	a3,a3,-129 # 7f7f7f7f <__BSS_END__+0x7f7d1053>
   1890c:	00d777b3          	and	a5,a4,a3
   18910:	00d787b3          	add	a5,a5,a3
   18914:	00e7e7b3          	or	a5,a5,a4
   18918:	00d7e7b3          	or	a5,a5,a3
   1891c:	fff00613          	li	a2,-1
   18920:	06c79e63          	bne	a5,a2,1899c <strcpy+0xa8>
   18924:	00050613          	mv	a2,a0
   18928:	fff00813          	li	a6,-1
   1892c:	00e62023          	sw	a4,0(a2) # 7ff00000 <__BSS_END__+0x7fed90d4>
   18930:	0045a703          	lw	a4,4(a1)
   18934:	00458593          	addi	a1,a1,4
   18938:	00460613          	addi	a2,a2,4
   1893c:	00d777b3          	and	a5,a4,a3
   18940:	00d787b3          	add	a5,a5,a3
   18944:	00e7e7b3          	or	a5,a5,a4
   18948:	00d7e7b3          	or	a5,a5,a3
   1894c:	ff0780e3          	beq	a5,a6,1892c <strcpy+0x38>
   18950:	0005c783          	lbu	a5,0(a1)
   18954:	0015c703          	lbu	a4,1(a1)
   18958:	0025c683          	lbu	a3,2(a1)
   1895c:	00f60023          	sb	a5,0(a2)
   18960:	00078a63          	beqz	a5,18974 <strcpy+0x80>
   18964:	00e600a3          	sb	a4,1(a2)
   18968:	00070663          	beqz	a4,18974 <strcpy+0x80>
   1896c:	00d60123          	sb	a3,2(a2)
   18970:	00069463          	bnez	a3,18978 <strcpy+0x84>
   18974:	00008067          	ret
   18978:	000601a3          	sb	zero,3(a2)
   1897c:	00008067          	ret
   18980:	00050793          	mv	a5,a0
   18984:	0005c703          	lbu	a4,0(a1)
   18988:	00178793          	addi	a5,a5,1
   1898c:	00158593          	addi	a1,a1,1
   18990:	fee78fa3          	sb	a4,-1(a5)
   18994:	fe0718e3          	bnez	a4,18984 <strcpy+0x90>
   18998:	00008067          	ret
   1899c:	00050613          	mv	a2,a0
   189a0:	fb1ff06f          	j	18950 <strcpy+0x5c>

000189a4 <strlen>:
   189a4:	00357793          	andi	a5,a0,3
   189a8:	00050713          	mv	a4,a0
   189ac:	04079c63          	bnez	a5,18a04 <strlen+0x60>
   189b0:	7f7f86b7          	lui	a3,0x7f7f8
   189b4:	f7f68693          	addi	a3,a3,-129 # 7f7f7f7f <__BSS_END__+0x7f7d1053>
   189b8:	fff00593          	li	a1,-1
   189bc:	00072603          	lw	a2,0(a4)
   189c0:	00470713          	addi	a4,a4,4
   189c4:	00d677b3          	and	a5,a2,a3
   189c8:	00d787b3          	add	a5,a5,a3
   189cc:	00c7e7b3          	or	a5,a5,a2
   189d0:	00d7e7b3          	or	a5,a5,a3
   189d4:	feb784e3          	beq	a5,a1,189bc <strlen+0x18>
   189d8:	ffc74683          	lbu	a3,-4(a4)
   189dc:	ffd74603          	lbu	a2,-3(a4)
   189e0:	ffe74783          	lbu	a5,-2(a4)
   189e4:	40a70733          	sub	a4,a4,a0
   189e8:	04068063          	beqz	a3,18a28 <strlen+0x84>
   189ec:	02060a63          	beqz	a2,18a20 <strlen+0x7c>
   189f0:	00f03533          	snez	a0,a5
   189f4:	00e50533          	add	a0,a0,a4
   189f8:	ffe50513          	addi	a0,a0,-2
   189fc:	00008067          	ret
   18a00:	fa0688e3          	beqz	a3,189b0 <strlen+0xc>
   18a04:	00074783          	lbu	a5,0(a4)
   18a08:	00170713          	addi	a4,a4,1
   18a0c:	00377693          	andi	a3,a4,3
   18a10:	fe0798e3          	bnez	a5,18a00 <strlen+0x5c>
   18a14:	40a70733          	sub	a4,a4,a0
   18a18:	fff70513          	addi	a0,a4,-1
   18a1c:	00008067          	ret
   18a20:	ffd70513          	addi	a0,a4,-3
   18a24:	00008067          	ret
   18a28:	ffc70513          	addi	a0,a4,-4
   18a2c:	00008067          	ret

00018a30 <strncpy>:
   18a30:	00a5e7b3          	or	a5,a1,a0
   18a34:	0037f793          	andi	a5,a5,3
   18a38:	00050713          	mv	a4,a0
   18a3c:	06079863          	bnez	a5,18aac <strncpy+0x7c>
   18a40:	00300793          	li	a5,3
   18a44:	06c7f463          	bgeu	a5,a2,18aac <strncpy+0x7c>
   18a48:	feff0337          	lui	t1,0xfeff0
   18a4c:	808088b7          	lui	a7,0x80808
   18a50:	eff30313          	addi	t1,t1,-257 # fefefeff <__BSS_END__+0xfefc8fd3>
   18a54:	08088893          	addi	a7,a7,128 # 80808080 <__BSS_END__+0x807e1154>
   18a58:	00300e13          	li	t3,3
   18a5c:	0005a683          	lw	a3,0(a1)
   18a60:	006687b3          	add	a5,a3,t1
   18a64:	fff6c813          	not	a6,a3
   18a68:	0107f7b3          	and	a5,a5,a6
   18a6c:	0117f7b3          	and	a5,a5,a7
   18a70:	02079e63          	bnez	a5,18aac <strncpy+0x7c>
   18a74:	00d72023          	sw	a3,0(a4)
   18a78:	ffc60613          	addi	a2,a2,-4
   18a7c:	00470713          	addi	a4,a4,4
   18a80:	00458593          	addi	a1,a1,4
   18a84:	fcce6ce3          	bltu	t3,a2,18a5c <strncpy+0x2c>
   18a88:	00158593          	addi	a1,a1,1
   18a8c:	00170793          	addi	a5,a4,1
   18a90:	02060463          	beqz	a2,18ab8 <strncpy+0x88>
   18a94:	fff5c683          	lbu	a3,-1(a1)
   18a98:	fff60813          	addi	a6,a2,-1
   18a9c:	fed78fa3          	sb	a3,-1(a5)
   18aa0:	00068e63          	beqz	a3,18abc <strncpy+0x8c>
   18aa4:	00078713          	mv	a4,a5
   18aa8:	00080613          	mv	a2,a6
   18aac:	00158593          	addi	a1,a1,1
   18ab0:	00170793          	addi	a5,a4,1
   18ab4:	fe0610e3          	bnez	a2,18a94 <strncpy+0x64>
   18ab8:	00008067          	ret
   18abc:	00c70633          	add	a2,a4,a2
   18ac0:	00080a63          	beqz	a6,18ad4 <strncpy+0xa4>
   18ac4:	00178793          	addi	a5,a5,1
   18ac8:	fe078fa3          	sb	zero,-1(a5)
   18acc:	fec79ce3          	bne	a5,a2,18ac4 <strncpy+0x94>
   18ad0:	00008067          	ret
   18ad4:	00008067          	ret

00018ad8 <_svfprintf_r>:
   18ad8:	e1010113          	addi	sp,sp,-496
   18adc:	1e112623          	sw	ra,492(sp)
   18ae0:	1f212023          	sw	s2,480(sp)
   18ae4:	1d812423          	sw	s8,456(sp)
   18ae8:	1da12023          	sw	s10,448(sp)
   18aec:	00058c13          	mv	s8,a1
   18af0:	00060913          	mv	s2,a2
   18af4:	00d12a23          	sw	a3,20(sp)
   18af8:	1e812423          	sw	s0,488(sp)
   18afc:	1e912223          	sw	s1,484(sp)
   18b00:	1d312e23          	sw	s3,476(sp)
   18b04:	1d412c23          	sw	s4,472(sp)
   18b08:	1d512a23          	sw	s5,468(sp)
   18b0c:	1d612823          	sw	s6,464(sp)
   18b10:	1d712623          	sw	s7,460(sp)
   18b14:	1d912223          	sw	s9,452(sp)
   18b18:	1bb12e23          	sw	s11,444(sp)
   18b1c:	00050d13          	mv	s10,a0
   18b20:	f05fd0ef          	jal	ra,16a24 <_localeconv_r>
   18b24:	00052783          	lw	a5,0(a0)
   18b28:	00078513          	mv	a0,a5
   18b2c:	02f12823          	sw	a5,48(sp)
   18b30:	e75ff0ef          	jal	ra,189a4 <strlen>
   18b34:	00cc5703          	lhu	a4,12(s8)
   18b38:	0e012823          	sw	zero,240(sp)
   18b3c:	0e012a23          	sw	zero,244(sp)
   18b40:	0e012c23          	sw	zero,248(sp)
   18b44:	0e012e23          	sw	zero,252(sp)
   18b48:	08077713          	andi	a4,a4,128
   18b4c:	02a12623          	sw	a0,44(sp)
   18b50:	00070863          	beqz	a4,18b60 <_svfprintf_r+0x88>
   18b54:	010c2703          	lw	a4,16(s8)
   18b58:	00071463          	bnez	a4,18b60 <_svfprintf_r+0x88>
   18b5c:	58c0106f          	j	1a0e8 <_svfprintf_r+0x1610>
   18b60:	10c10793          	addi	a5,sp,268
   18b64:	00025737          	lui	a4,0x25
   18b68:	0ef12223          	sw	a5,228(sp)
   18b6c:	00078893          	mv	a7,a5
   18b70:	cc870793          	addi	a5,a4,-824 # 24cc8 <__mprec_bigtens+0x28>
   18b74:	00025737          	lui	a4,0x25
   18b78:	00f12c23          	sw	a5,24(sp)
   18b7c:	00090b13          	mv	s6,s2
   18b80:	e4470793          	addi	a5,a4,-444 # 24e44 <zeroes.4469>
   18b84:	00f12423          	sw	a5,8(sp)
   18b88:	000b4783          	lbu	a5,0(s6)
   18b8c:	0e012623          	sw	zero,236(sp)
   18b90:	0e012423          	sw	zero,232(sp)
   18b94:	02012023          	sw	zero,32(sp)
   18b98:	02012a23          	sw	zero,52(sp)
   18b9c:	02012c23          	sw	zero,56(sp)
   18ba0:	02012e23          	sw	zero,60(sp)
   18ba4:	04012423          	sw	zero,72(sp)
   18ba8:	04012623          	sw	zero,76(sp)
   18bac:	00012623          	sw	zero,12(sp)
   18bb0:	22078463          	beqz	a5,18dd8 <_svfprintf_r+0x300>
   18bb4:	000b0413          	mv	s0,s6
   18bb8:	02500693          	li	a3,37
   18bbc:	2cd78463          	beq	a5,a3,18e84 <_svfprintf_r+0x3ac>
   18bc0:	00144783          	lbu	a5,1(s0)
   18bc4:	00140413          	addi	s0,s0,1
   18bc8:	fe079ae3          	bnez	a5,18bbc <_svfprintf_r+0xe4>
   18bcc:	416404b3          	sub	s1,s0,s6
   18bd0:	21640463          	beq	s0,s6,18dd8 <_svfprintf_r+0x300>
   18bd4:	0ec12683          	lw	a3,236(sp)
   18bd8:	0e812783          	lw	a5,232(sp)
   18bdc:	0168a023          	sw	s6,0(a7)
   18be0:	009686b3          	add	a3,a3,s1
   18be4:	00178793          	addi	a5,a5,1
   18be8:	0098a223          	sw	s1,4(a7)
   18bec:	0ed12623          	sw	a3,236(sp)
   18bf0:	0ef12423          	sw	a5,232(sp)
   18bf4:	00700693          	li	a3,7
   18bf8:	00888893          	addi	a7,a7,8
   18bfc:	28f6cc63          	blt	a3,a5,18e94 <_svfprintf_r+0x3bc>
   18c00:	00c12703          	lw	a4,12(sp)
   18c04:	00044783          	lbu	a5,0(s0)
   18c08:	00970733          	add	a4,a4,s1
   18c0c:	00e12623          	sw	a4,12(sp)
   18c10:	1c078463          	beqz	a5,18dd8 <_svfprintf_r+0x300>
   18c14:	00144483          	lbu	s1,1(s0)
   18c18:	0c0103a3          	sb	zero,199(sp)
   18c1c:	00140413          	addi	s0,s0,1
   18c20:	fff00d93          	li	s11,-1
   18c24:	00000993          	li	s3,0
   18c28:	00000a13          	li	s4,0
   18c2c:	05a00913          	li	s2,90
   18c30:	00900a93          	li	s5,9
   18c34:	02a00b93          	li	s7,42
   18c38:	00088c93          	mv	s9,a7
   18c3c:	00140413          	addi	s0,s0,1
   18c40:	fe048793          	addi	a5,s1,-32 # 7fffffe0 <__BSS_END__+0x7ffd90b4>
   18c44:	04f96463          	bltu	s2,a5,18c8c <_svfprintf_r+0x1b4>
   18c48:	01812703          	lw	a4,24(sp)
   18c4c:	00279793          	slli	a5,a5,0x2
   18c50:	00e787b3          	add	a5,a5,a4
   18c54:	0007a783          	lw	a5,0(a5)
   18c58:	00078067          	jr	a5
   18c5c:	00000993          	li	s3,0
   18c60:	fd048693          	addi	a3,s1,-48
   18c64:	00044483          	lbu	s1,0(s0)
   18c68:	00299793          	slli	a5,s3,0x2
   18c6c:	013787b3          	add	a5,a5,s3
   18c70:	00179793          	slli	a5,a5,0x1
   18c74:	00f689b3          	add	s3,a3,a5
   18c78:	fd048693          	addi	a3,s1,-48
   18c7c:	00140413          	addi	s0,s0,1
   18c80:	fedaf2e3          	bgeu	s5,a3,18c64 <_svfprintf_r+0x18c>
   18c84:	fe048793          	addi	a5,s1,-32
   18c88:	fcf970e3          	bgeu	s2,a5,18c48 <_svfprintf_r+0x170>
   18c8c:	000c8893          	mv	a7,s9
   18c90:	14048463          	beqz	s1,18dd8 <_svfprintf_r+0x300>
   18c94:	14910623          	sb	s1,332(sp)
   18c98:	0c0103a3          	sb	zero,199(sp)
   18c9c:	00100a93          	li	s5,1
   18ca0:	00100c93          	li	s9,1
   18ca4:	14c10b13          	addi	s6,sp,332
   18ca8:	00012823          	sw	zero,16(sp)
   18cac:	00000d93          	li	s11,0
   18cb0:	02012423          	sw	zero,40(sp)
   18cb4:	02012223          	sw	zero,36(sp)
   18cb8:	00012e23          	sw	zero,28(sp)
   18cbc:	002a7b93          	andi	s7,s4,2
   18cc0:	000b8463          	beqz	s7,18cc8 <_svfprintf_r+0x1f0>
   18cc4:	002a8a93          	addi	s5,s5,2
   18cc8:	084a7913          	andi	s2,s4,132
   18ccc:	0ec12783          	lw	a5,236(sp)
   18cd0:	00091663          	bnez	s2,18cdc <_svfprintf_r+0x204>
   18cd4:	41598833          	sub	a6,s3,s5
   18cd8:	65004ce3          	bgtz	a6,19b30 <_svfprintf_r+0x1058>
   18cdc:	0c714683          	lbu	a3,199(sp)
   18ce0:	02068a63          	beqz	a3,18d14 <_svfprintf_r+0x23c>
   18ce4:	0e812683          	lw	a3,232(sp)
   18ce8:	0c710613          	addi	a2,sp,199
   18cec:	00c8a023          	sw	a2,0(a7)
   18cf0:	00178793          	addi	a5,a5,1
   18cf4:	00100613          	li	a2,1
   18cf8:	00168693          	addi	a3,a3,1
   18cfc:	00c8a223          	sw	a2,4(a7)
   18d00:	0ef12623          	sw	a5,236(sp)
   18d04:	0ed12423          	sw	a3,232(sp)
   18d08:	00700613          	li	a2,7
   18d0c:	00888893          	addi	a7,a7,8
   18d10:	4ed64c63          	blt	a2,a3,19208 <_svfprintf_r+0x730>
   18d14:	020b8a63          	beqz	s7,18d48 <_svfprintf_r+0x270>
   18d18:	0e812683          	lw	a3,232(sp)
   18d1c:	0c810613          	addi	a2,sp,200
   18d20:	00c8a023          	sw	a2,0(a7)
   18d24:	00278793          	addi	a5,a5,2
   18d28:	00200613          	li	a2,2
   18d2c:	00168693          	addi	a3,a3,1
   18d30:	00c8a223          	sw	a2,4(a7)
   18d34:	0ef12623          	sw	a5,236(sp)
   18d38:	0ed12423          	sw	a3,232(sp)
   18d3c:	00700613          	li	a2,7
   18d40:	00888893          	addi	a7,a7,8
   18d44:	6cd64ce3          	blt	a2,a3,19c1c <_svfprintf_r+0x1144>
   18d48:	08000693          	li	a3,128
   18d4c:	44d900e3          	beq	s2,a3,1998c <_svfprintf_r+0xeb4>
   18d50:	419d8db3          	sub	s11,s11,s9
   18d54:	4fb04ee3          	bgtz	s11,19a50 <_svfprintf_r+0xf78>
   18d58:	100a7693          	andi	a3,s4,256
   18d5c:	2e069ae3          	bnez	a3,19850 <_svfprintf_r+0xd78>
   18d60:	0e812703          	lw	a4,232(sp)
   18d64:	019787b3          	add	a5,a5,s9
   18d68:	0168a023          	sw	s6,0(a7)
   18d6c:	00170713          	addi	a4,a4,1
   18d70:	0198a223          	sw	s9,4(a7)
   18d74:	0ef12623          	sw	a5,236(sp)
   18d78:	0ee12423          	sw	a4,232(sp)
   18d7c:	00700693          	li	a3,7
   18d80:	5ce6c063          	blt	a3,a4,19340 <_svfprintf_r+0x868>
   18d84:	00888893          	addi	a7,a7,8
   18d88:	004a7a13          	andi	s4,s4,4
   18d8c:	000a0663          	beqz	s4,18d98 <_svfprintf_r+0x2c0>
   18d90:	415984b3          	sub	s1,s3,s5
   18d94:	5c904663          	bgtz	s1,19360 <_svfprintf_r+0x888>
   18d98:	0159d463          	bge	s3,s5,18da0 <_svfprintf_r+0x2c8>
   18d9c:	000a8993          	mv	s3,s5
   18da0:	00c12703          	lw	a4,12(sp)
   18da4:	01370733          	add	a4,a4,s3
   18da8:	00e12623          	sw	a4,12(sp)
   18dac:	54079ce3          	bnez	a5,19b04 <_svfprintf_r+0x102c>
   18db0:	01012783          	lw	a5,16(sp)
   18db4:	0e012423          	sw	zero,232(sp)
   18db8:	00078863          	beqz	a5,18dc8 <_svfprintf_r+0x2f0>
   18dbc:	01012583          	lw	a1,16(sp)
   18dc0:	000d0513          	mv	a0,s10
   18dc4:	c45fa0ef          	jal	ra,13a08 <_free_r>
   18dc8:	10c10893          	addi	a7,sp,268
   18dcc:	00040b13          	mv	s6,s0
   18dd0:	000b4783          	lbu	a5,0(s6)
   18dd4:	de0790e3          	bnez	a5,18bb4 <_svfprintf_r+0xdc>
   18dd8:	0ec12783          	lw	a5,236(sp)
   18ddc:	00078463          	beqz	a5,18de4 <_svfprintf_r+0x30c>
   18de0:	3650106f          	j	1a944 <_svfprintf_r+0x1e6c>
   18de4:	00cc5703          	lhu	a4,12(s8)
   18de8:	04077713          	andi	a4,a4,64
   18dec:	00070463          	beqz	a4,18df4 <_svfprintf_r+0x31c>
   18df0:	4180206f          	j	1b208 <_svfprintf_r+0x2730>
   18df4:	1ec12083          	lw	ra,492(sp)
   18df8:	1e812403          	lw	s0,488(sp)
   18dfc:	00c12503          	lw	a0,12(sp)
   18e00:	1e412483          	lw	s1,484(sp)
   18e04:	1e012903          	lw	s2,480(sp)
   18e08:	1dc12983          	lw	s3,476(sp)
   18e0c:	1d812a03          	lw	s4,472(sp)
   18e10:	1d412a83          	lw	s5,468(sp)
   18e14:	1d012b03          	lw	s6,464(sp)
   18e18:	1cc12b83          	lw	s7,460(sp)
   18e1c:	1c812c03          	lw	s8,456(sp)
   18e20:	1c412c83          	lw	s9,452(sp)
   18e24:	1c012d03          	lw	s10,448(sp)
   18e28:	1bc12d83          	lw	s11,444(sp)
   18e2c:	1f010113          	addi	sp,sp,496
   18e30:	00008067          	ret
   18e34:	000d0513          	mv	a0,s10
   18e38:	bedfd0ef          	jal	ra,16a24 <_localeconv_r>
   18e3c:	00452783          	lw	a5,4(a0)
   18e40:	00078513          	mv	a0,a5
   18e44:	04f12623          	sw	a5,76(sp)
   18e48:	b5dff0ef          	jal	ra,189a4 <strlen>
   18e4c:	00050793          	mv	a5,a0
   18e50:	000d0513          	mv	a0,s10
   18e54:	00078493          	mv	s1,a5
   18e58:	04f12423          	sw	a5,72(sp)
   18e5c:	bc9fd0ef          	jal	ra,16a24 <_localeconv_r>
   18e60:	00852783          	lw	a5,8(a0)
   18e64:	02f12e23          	sw	a5,60(sp)
   18e68:	00048463          	beqz	s1,18e70 <_svfprintf_r+0x398>
   18e6c:	1840106f          	j	19ff0 <_svfprintf_r+0x1518>
   18e70:	00044483          	lbu	s1,0(s0)
   18e74:	dc9ff06f          	j	18c3c <_svfprintf_r+0x164>
   18e78:	00044483          	lbu	s1,0(s0)
   18e7c:	020a6a13          	ori	s4,s4,32
   18e80:	dbdff06f          	j	18c3c <_svfprintf_r+0x164>
   18e84:	416404b3          	sub	s1,s0,s6
   18e88:	d56416e3          	bne	s0,s6,18bd4 <_svfprintf_r+0xfc>
   18e8c:	00044783          	lbu	a5,0(s0)
   18e90:	d81ff06f          	j	18c10 <_svfprintf_r+0x138>
   18e94:	0e410613          	addi	a2,sp,228
   18e98:	000c0593          	mv	a1,s8
   18e9c:	000d0513          	mv	a0,s10
   18ea0:	168050ef          	jal	ra,1e008 <__ssprint_r>
   18ea4:	f40510e3          	bnez	a0,18de4 <_svfprintf_r+0x30c>
   18ea8:	10c10893          	addi	a7,sp,268
   18eac:	d55ff06f          	j	18c00 <_svfprintf_r+0x128>
   18eb0:	008a7793          	andi	a5,s4,8
   18eb4:	000c8893          	mv	a7,s9
   18eb8:	00078463          	beqz	a5,18ec0 <_svfprintf_r+0x3e8>
   18ebc:	0c80106f          	j	19f84 <_svfprintf_r+0x14ac>
   18ec0:	01412783          	lw	a5,20(sp)
   18ec4:	0b010513          	addi	a0,sp,176
   18ec8:	01912823          	sw	s9,16(sp)
   18ecc:	00778793          	addi	a5,a5,7
   18ed0:	ff87f793          	andi	a5,a5,-8
   18ed4:	0007a583          	lw	a1,0(a5)
   18ed8:	0047a603          	lw	a2,4(a5)
   18edc:	00878793          	addi	a5,a5,8
   18ee0:	00f12a23          	sw	a5,20(sp)
   18ee4:	2040b0ef          	jal	ra,240e8 <__extenddftf2>
   18ee8:	0b012783          	lw	a5,176(sp)
   18eec:	01012883          	lw	a7,16(sp)
   18ef0:	0ef12823          	sw	a5,240(sp)
   18ef4:	0b412783          	lw	a5,180(sp)
   18ef8:	0ef12a23          	sw	a5,244(sp)
   18efc:	0b812783          	lw	a5,184(sp)
   18f00:	0ef12c23          	sw	a5,248(sp)
   18f04:	0bc12783          	lw	a5,188(sp)
   18f08:	0ef12e23          	sw	a5,252(sp)
   18f0c:	0f010513          	addi	a0,sp,240
   18f10:	01112823          	sw	a7,16(sp)
   18f14:	aa5fd0ef          	jal	ra,169b8 <_ldcheck>
   18f18:	0ca12623          	sw	a0,204(sp)
   18f1c:	00200793          	li	a5,2
   18f20:	01012883          	lw	a7,16(sp)
   18f24:	00f51463          	bne	a0,a5,18f2c <_svfprintf_r+0x454>
   18f28:	6780106f          	j	1a5a0 <_svfprintf_r+0x1ac8>
   18f2c:	00100793          	li	a5,1
   18f30:	00f51463          	bne	a0,a5,18f38 <_svfprintf_r+0x460>
   18f34:	0950106f          	j	1a7c8 <_svfprintf_r+0x1cf0>
   18f38:	06100793          	li	a5,97
   18f3c:	00f49463          	bne	s1,a5,18f44 <_svfprintf_r+0x46c>
   18f40:	1bc0206f          	j	1b0fc <_svfprintf_r+0x2624>
   18f44:	04100793          	li	a5,65
   18f48:	00f49463          	bne	s1,a5,18f50 <_svfprintf_r+0x478>
   18f4c:	54d0106f          	j	1ac98 <_svfprintf_r+0x21c0>
   18f50:	fdf4fb93          	andi	s7,s1,-33
   18f54:	fff00793          	li	a5,-1
   18f58:	05712a23          	sw	s7,84(sp)
   18f5c:	00fd9463          	bne	s11,a5,18f64 <_svfprintf_r+0x48c>
   18f60:	2350106f          	j	1a994 <_svfprintf_r+0x1ebc>
   18f64:	04700793          	li	a5,71
   18f68:	00fb9463          	bne	s7,a5,18f70 <_svfprintf_r+0x498>
   18f6c:	2080206f          	j	1b174 <_svfprintf_r+0x269c>
   18f70:	0fc12303          	lw	t1,252(sp)
   18f74:	03412423          	sw	s4,40(sp)
   18f78:	0f012e03          	lw	t3,240(sp)
   18f7c:	0f412e83          	lw	t4,244(sp)
   18f80:	0f812f03          	lw	t5,248(sp)
   18f84:	100a6793          	ori	a5,s4,256
   18f88:	00035463          	bgez	t1,18f90 <_svfprintf_r+0x4b8>
   18f8c:	3bc0206f          	j	1b348 <_svfprintf_r+0x2870>
   18f90:	04012c23          	sw	zero,88(sp)
   18f94:	00078a13          	mv	s4,a5
   18f98:	00012823          	sw	zero,16(sp)
   18f9c:	04600793          	li	a5,70
   18fa0:	00fb9463          	bne	s7,a5,18fa8 <_svfprintf_r+0x4d0>
   18fa4:	2d90106f          	j	1aa7c <_svfprintf_r+0x1fa4>
   18fa8:	04500793          	li	a5,69
   18fac:	05112223          	sw	a7,68(sp)
   18fb0:	00fb8463          	beq	s7,a5,18fb8 <_svfprintf_r+0x4e0>
   18fb4:	35d0106f          	j	1ab10 <_svfprintf_r+0x2038>
   18fb8:	001d8913          	addi	s2,s11,1
   18fbc:	0b010a93          	addi	s5,sp,176
   18fc0:	00090693          	mv	a3,s2
   18fc4:	0dc10813          	addi	a6,sp,220
   18fc8:	0d010793          	addi	a5,sp,208
   18fcc:	0cc10713          	addi	a4,sp,204
   18fd0:	00200613          	li	a2,2
   18fd4:	000a8593          	mv	a1,s5
   18fd8:	000d0513          	mv	a0,s10
   18fdc:	0bc12823          	sw	t3,176(sp)
   18fe0:	05c12023          	sw	t3,64(sp)
   18fe4:	0bd12a23          	sw	t4,180(sp)
   18fe8:	03d12223          	sw	t4,36(sp)
   18fec:	0be12c23          	sw	t5,184(sp)
   18ff0:	03e12023          	sw	t5,32(sp)
   18ff4:	0a612e23          	sw	t1,188(sp)
   18ff8:	00612e23          	sw	t1,28(sp)
   18ffc:	f24fc0ef          	jal	ra,15720 <_ldtoa_r>
   19000:	01c12303          	lw	t1,28(sp)
   19004:	02012f03          	lw	t5,32(sp)
   19008:	02412e83          	lw	t4,36(sp)
   1900c:	04012e03          	lw	t3,64(sp)
   19010:	04412883          	lw	a7,68(sp)
   19014:	00050b13          	mv	s6,a0
   19018:	01250933          	add	s2,a0,s2
   1901c:	0a010c93          	addi	s9,sp,160
   19020:	000c8593          	mv	a1,s9
   19024:	000a8513          	mv	a0,s5
   19028:	01112e23          	sw	a7,28(sp)
   1902c:	0bc12823          	sw	t3,176(sp)
   19030:	0bd12a23          	sw	t4,180(sp)
   19034:	0be12c23          	sw	t5,184(sp)
   19038:	0a612e23          	sw	t1,188(sp)
   1903c:	0a012023          	sw	zero,160(sp)
   19040:	0a012223          	sw	zero,164(sp)
   19044:	0a012423          	sw	zero,168(sp)
   19048:	0a012623          	sw	zero,172(sp)
   1904c:	1a8080ef          	jal	ra,211f4 <__eqtf2>
   19050:	01c12883          	lw	a7,28(sp)
   19054:	00090713          	mv	a4,s2
   19058:	02050263          	beqz	a0,1907c <_svfprintf_r+0x5a4>
   1905c:	0dc12703          	lw	a4,220(sp)
   19060:	01277e63          	bgeu	a4,s2,1907c <_svfprintf_r+0x5a4>
   19064:	03000693          	li	a3,48
   19068:	00170793          	addi	a5,a4,1
   1906c:	0cf12e23          	sw	a5,220(sp)
   19070:	00d70023          	sb	a3,0(a4)
   19074:	0dc12703          	lw	a4,220(sp)
   19078:	ff2768e3          	bltu	a4,s2,19068 <_svfprintf_r+0x590>
   1907c:	416707b3          	sub	a5,a4,s6
   19080:	02f12023          	sw	a5,32(sp)
   19084:	0cc12703          	lw	a4,204(sp)
   19088:	04700793          	li	a5,71
   1908c:	00e12e23          	sw	a4,28(sp)
   19090:	05412703          	lw	a4,84(sp)
   19094:	00f71463          	bne	a4,a5,1909c <_svfprintf_r+0x5c4>
   19098:	1350106f          	j	1a9cc <_svfprintf_r+0x1ef4>
   1909c:	05412703          	lw	a4,84(sp)
   190a0:	04600793          	li	a5,70
   190a4:	00f71463          	bne	a4,a5,190ac <_svfprintf_r+0x5d4>
   190a8:	36d0106f          	j	1ac14 <_svfprintf_r+0x213c>
   190ac:	01c12783          	lw	a5,28(sp)
   190b0:	05412703          	lw	a4,84(sp)
   190b4:	04100613          	li	a2,65
   190b8:	fff78a93          	addi	s5,a5,-1
   190bc:	0d512623          	sw	s5,204(sp)
   190c0:	0ff4f793          	andi	a5,s1,255
   190c4:	00000693          	li	a3,0
   190c8:	00c71863          	bne	a4,a2,190d8 <_svfprintf_r+0x600>
   190cc:	00f78793          	addi	a5,a5,15
   190d0:	0ff7f793          	andi	a5,a5,255
   190d4:	00100693          	li	a3,1
   190d8:	0cf10a23          	sb	a5,212(sp)
   190dc:	02b00793          	li	a5,43
   190e0:	000ada63          	bgez	s5,190f4 <_svfprintf_r+0x61c>
   190e4:	01c12783          	lw	a5,28(sp)
   190e8:	00100a93          	li	s5,1
   190ec:	40fa8ab3          	sub	s5,s5,a5
   190f0:	02d00793          	li	a5,45
   190f4:	0cf10aa3          	sb	a5,213(sp)
   190f8:	00900793          	li	a5,9
   190fc:	0157c463          	blt	a5,s5,19104 <_svfprintf_r+0x62c>
   19100:	1140206f          	j	1b214 <_svfprintf_r+0x273c>
   19104:	0e310b93          	addi	s7,sp,227
   19108:	000b8c93          	mv	s9,s7
   1910c:	06300a13          	li	s4,99
   19110:	00812e23          	sw	s0,28(sp)
   19114:	00088d93          	mv	s11,a7
   19118:	00a00593          	li	a1,10
   1911c:	000a8513          	mv	a0,s5
   19120:	5ac0b0ef          	jal	ra,246cc <__modsi3>
   19124:	03050793          	addi	a5,a0,48
   19128:	fefc8fa3          	sb	a5,-1(s9)
   1912c:	000a8513          	mv	a0,s5
   19130:	00a00593          	li	a1,10
   19134:	000a8413          	mv	s0,s5
   19138:	5100b0ef          	jal	ra,24648 <__divsi3>
   1913c:	000c8913          	mv	s2,s9
   19140:	00050a93          	mv	s5,a0
   19144:	fffc8c93          	addi	s9,s9,-1
   19148:	fc8a48e3          	blt	s4,s0,19118 <_svfprintf_r+0x640>
   1914c:	03050613          	addi	a2,a0,48
   19150:	0ff67613          	andi	a2,a2,255
   19154:	ffe90793          	addi	a5,s2,-2
   19158:	fecc8fa3          	sb	a2,-1(s9)
   1915c:	01c12403          	lw	s0,28(sp)
   19160:	000d8893          	mv	a7,s11
   19164:	0177e463          	bltu	a5,s7,1916c <_svfprintf_r+0x694>
   19168:	3a00206f          	j	1b508 <_svfprintf_r+0x2a30>
   1916c:	0d610693          	addi	a3,sp,214
   19170:	0080006f          	j	19178 <_svfprintf_r+0x6a0>
   19174:	0007c603          	lbu	a2,0(a5)
   19178:	00c68023          	sb	a2,0(a3)
   1917c:	00178793          	addi	a5,a5,1
   19180:	00168693          	addi	a3,a3,1
   19184:	ff7798e3          	bne	a5,s7,19174 <_svfprintf_r+0x69c>
   19188:	0e510793          	addi	a5,sp,229
   1918c:	412787b3          	sub	a5,a5,s2
   19190:	0d610713          	addi	a4,sp,214
   19194:	00f707b3          	add	a5,a4,a5
   19198:	0d410693          	addi	a3,sp,212
   1919c:	40d787b3          	sub	a5,a5,a3
   191a0:	02f12c23          	sw	a5,56(sp)
   191a4:	02012703          	lw	a4,32(sp)
   191a8:	03812683          	lw	a3,56(sp)
   191ac:	00100793          	li	a5,1
   191b0:	00d70cb3          	add	s9,a4,a3
   191b4:	00e7c463          	blt	a5,a4,191bc <_svfprintf_r+0x6e4>
   191b8:	2380206f          	j	1b3f0 <_svfprintf_r+0x2918>
   191bc:	02c12783          	lw	a5,44(sp)
   191c0:	00fc8cb3          	add	s9,s9,a5
   191c4:	02812783          	lw	a5,40(sp)
   191c8:	fffcca93          	not	s5,s9
   191cc:	41fada93          	srai	s5,s5,0x1f
   191d0:	bff7fa13          	andi	s4,a5,-1025
   191d4:	100a6a13          	ori	s4,s4,256
   191d8:	015cfab3          	and	s5,s9,s5
   191dc:	02012423          	sw	zero,40(sp)
   191e0:	02012223          	sw	zero,36(sp)
   191e4:	00012e23          	sw	zero,28(sp)
   191e8:	05812783          	lw	a5,88(sp)
   191ec:	00079463          	bnez	a5,191f4 <_svfprintf_r+0x71c>
   191f0:	0510106f          	j	1aa40 <_svfprintf_r+0x1f68>
   191f4:	02d00793          	li	a5,45
   191f8:	0cf103a3          	sb	a5,199(sp)
   191fc:	00000d93          	li	s11,0
   19200:	001a8a93          	addi	s5,s5,1
   19204:	ab9ff06f          	j	18cbc <_svfprintf_r+0x1e4>
   19208:	0e410613          	addi	a2,sp,228
   1920c:	000c0593          	mv	a1,s8
   19210:	000d0513          	mv	a0,s10
   19214:	5f5040ef          	jal	ra,1e008 <__ssprint_r>
   19218:	100510e3          	bnez	a0,19b18 <_svfprintf_r+0x1040>
   1921c:	0ec12783          	lw	a5,236(sp)
   19220:	10c10893          	addi	a7,sp,268
   19224:	af1ff06f          	j	18d14 <_svfprintf_r+0x23c>
   19228:	0e812683          	lw	a3,232(sp)
   1922c:	00178c93          	addi	s9,a5,1
   19230:	02012783          	lw	a5,32(sp)
   19234:	00100613          	li	a2,1
   19238:	0168a023          	sw	s6,0(a7)
   1923c:	00168493          	addi	s1,a3,1
   19240:	00888913          	addi	s2,a7,8
   19244:	36f658e3          	bge	a2,a5,19db4 <_svfprintf_r+0x12dc>
   19248:	00100793          	li	a5,1
   1924c:	00f8a223          	sw	a5,4(a7)
   19250:	0f912623          	sw	s9,236(sp)
   19254:	0e912423          	sw	s1,232(sp)
   19258:	00700793          	li	a5,7
   1925c:	4a97c0e3          	blt	a5,s1,19efc <_svfprintf_r+0x1424>
   19260:	02c12783          	lw	a5,44(sp)
   19264:	03012703          	lw	a4,48(sp)
   19268:	00148493          	addi	s1,s1,1
   1926c:	00fc8cb3          	add	s9,s9,a5
   19270:	00f92223          	sw	a5,4(s2)
   19274:	00e92023          	sw	a4,0(s2)
   19278:	0f912623          	sw	s9,236(sp)
   1927c:	0e912423          	sw	s1,232(sp)
   19280:	00700793          	li	a5,7
   19284:	00890913          	addi	s2,s2,8
   19288:	4897cce3          	blt	a5,s1,19f20 <_svfprintf_r+0x1448>
   1928c:	0f012783          	lw	a5,240(sp)
   19290:	00148613          	addi	a2,s1,1
   19294:	0a010593          	addi	a1,sp,160
   19298:	0af12823          	sw	a5,176(sp)
   1929c:	0f412783          	lw	a5,244(sp)
   192a0:	0b010513          	addi	a0,sp,176
   192a4:	00c12e23          	sw	a2,28(sp)
   192a8:	0af12a23          	sw	a5,180(sp)
   192ac:	0f812783          	lw	a5,248(sp)
   192b0:	0a012023          	sw	zero,160(sp)
   192b4:	0a012223          	sw	zero,164(sp)
   192b8:	0af12c23          	sw	a5,184(sp)
   192bc:	0fc12783          	lw	a5,252(sp)
   192c0:	0a012423          	sw	zero,168(sp)
   192c4:	0a012623          	sw	zero,172(sp)
   192c8:	0af12e23          	sw	a5,188(sp)
   192cc:	729070ef          	jal	ra,211f4 <__eqtf2>
   192d0:	01c12603          	lw	a2,28(sp)
   192d4:	02012783          	lw	a5,32(sp)
   192d8:	00890893          	addi	a7,s2,8
   192dc:	00060693          	mv	a3,a2
   192e0:	fff78d93          	addi	s11,a5,-1
   192e4:	2e050ce3          	beqz	a0,19ddc <_svfprintf_r+0x1304>
   192e8:	001b0713          	addi	a4,s6,1
   192ec:	01bc8cb3          	add	s9,s9,s11
   192f0:	00e92023          	sw	a4,0(s2)
   192f4:	01b92223          	sw	s11,4(s2)
   192f8:	0f912623          	sw	s9,236(sp)
   192fc:	0ec12423          	sw	a2,232(sp)
   19300:	00700793          	li	a5,7
   19304:	00c7d463          	bge	a5,a2,1930c <_svfprintf_r+0x834>
   19308:	0180106f          	j	1a320 <_svfprintf_r+0x1848>
   1930c:	01090793          	addi	a5,s2,16
   19310:	00248693          	addi	a3,s1,2
   19314:	00088913          	mv	s2,a7
   19318:	00078893          	mv	a7,a5
   1931c:	03812603          	lw	a2,56(sp)
   19320:	0d410713          	addi	a4,sp,212
   19324:	00e92023          	sw	a4,0(s2)
   19328:	019607b3          	add	a5,a2,s9
   1932c:	00c92223          	sw	a2,4(s2)
   19330:	0ef12623          	sw	a5,236(sp)
   19334:	0ed12423          	sw	a3,232(sp)
   19338:	00700713          	li	a4,7
   1933c:	a4d756e3          	bge	a4,a3,18d88 <_svfprintf_r+0x2b0>
   19340:	0e410613          	addi	a2,sp,228
   19344:	000c0593          	mv	a1,s8
   19348:	000d0513          	mv	a0,s10
   1934c:	4bd040ef          	jal	ra,1e008 <__ssprint_r>
   19350:	7c051463          	bnez	a0,19b18 <_svfprintf_r+0x1040>
   19354:	0ec12783          	lw	a5,236(sp)
   19358:	10c10893          	addi	a7,sp,268
   1935c:	a2dff06f          	j	18d88 <_svfprintf_r+0x2b0>
   19360:	01000693          	li	a3,16
   19364:	0e812703          	lw	a4,232(sp)
   19368:	0096c463          	blt	a3,s1,19370 <_svfprintf_r+0x898>
   1936c:	1210106f          	j	1ac8c <_svfprintf_r+0x21b4>
   19370:	000256b7          	lui	a3,0x25
   19374:	e3468e93          	addi	t4,a3,-460 # 24e34 <blanks.4468>
   19378:	01000913          	li	s2,16
   1937c:	00700a13          	li	s4,7
   19380:	000e8b13          	mv	s6,t4
   19384:	00c0006f          	j	19390 <_svfprintf_r+0x8b8>
   19388:	ff048493          	addi	s1,s1,-16
   1938c:	04995663          	bge	s2,s1,193d8 <_svfprintf_r+0x900>
   19390:	01078793          	addi	a5,a5,16
   19394:	00170713          	addi	a4,a4,1
   19398:	0168a023          	sw	s6,0(a7)
   1939c:	0128a223          	sw	s2,4(a7)
   193a0:	0ef12623          	sw	a5,236(sp)
   193a4:	0ee12423          	sw	a4,232(sp)
   193a8:	00888893          	addi	a7,a7,8
   193ac:	fcea5ee3          	bge	s4,a4,19388 <_svfprintf_r+0x8b0>
   193b0:	0e410613          	addi	a2,sp,228
   193b4:	000c0593          	mv	a1,s8
   193b8:	000d0513          	mv	a0,s10
   193bc:	44d040ef          	jal	ra,1e008 <__ssprint_r>
   193c0:	74051c63          	bnez	a0,19b18 <_svfprintf_r+0x1040>
   193c4:	ff048493          	addi	s1,s1,-16
   193c8:	0ec12783          	lw	a5,236(sp)
   193cc:	0e812703          	lw	a4,232(sp)
   193d0:	10c10893          	addi	a7,sp,268
   193d4:	fa994ee3          	blt	s2,s1,19390 <_svfprintf_r+0x8b8>
   193d8:	000b0e93          	mv	t4,s6
   193dc:	009787b3          	add	a5,a5,s1
   193e0:	00170713          	addi	a4,a4,1
   193e4:	01d8a023          	sw	t4,0(a7)
   193e8:	0098a223          	sw	s1,4(a7)
   193ec:	0ef12623          	sw	a5,236(sp)
   193f0:	0ee12423          	sw	a4,232(sp)
   193f4:	00700693          	li	a3,7
   193f8:	9ae6d0e3          	bge	a3,a4,18d98 <_svfprintf_r+0x2c0>
   193fc:	0e410613          	addi	a2,sp,228
   19400:	000c0593          	mv	a1,s8
   19404:	000d0513          	mv	a0,s10
   19408:	401040ef          	jal	ra,1e008 <__ssprint_r>
   1940c:	70051663          	bnez	a0,19b18 <_svfprintf_r+0x1040>
   19410:	0ec12783          	lw	a5,236(sp)
   19414:	985ff06f          	j	18d98 <_svfprintf_r+0x2c0>
   19418:	01412783          	lw	a5,20(sp)
   1941c:	0c0103a3          	sb	zero,199(sp)
   19420:	000c8893          	mv	a7,s9
   19424:	0007ab03          	lw	s6,0(a5)
   19428:	00478913          	addi	s2,a5,4
   1942c:	4e0b02e3          	beqz	s6,1a110 <_svfprintf_r+0x1638>
   19430:	fff00793          	li	a5,-1
   19434:	00fd9463          	bne	s11,a5,1943c <_svfprintf_r+0x964>
   19438:	1fc0106f          	j	1a634 <_svfprintf_r+0x1b5c>
   1943c:	000d8613          	mv	a2,s11
   19440:	00000593          	li	a1,0
   19444:	000b0513          	mv	a0,s6
   19448:	01912a23          	sw	s9,20(sp)
   1944c:	f71fd0ef          	jal	ra,173bc <memchr>
   19450:	00a12823          	sw	a0,16(sp)
   19454:	01412883          	lw	a7,20(sp)
   19458:	00051463          	bnez	a0,19460 <_svfprintf_r+0x988>
   1945c:	75c0106f          	j	1abb8 <_svfprintf_r+0x20e0>
   19460:	01012783          	lw	a5,16(sp)
   19464:	01212a23          	sw	s2,20(sp)
   19468:	00012823          	sw	zero,16(sp)
   1946c:	41678cb3          	sub	s9,a5,s6
   19470:	0c714783          	lbu	a5,199(sp)
   19474:	fffcca93          	not	s5,s9
   19478:	41fada93          	srai	s5,s5,0x1f
   1947c:	02012423          	sw	zero,40(sp)
   19480:	02012223          	sw	zero,36(sp)
   19484:	00012e23          	sw	zero,28(sp)
   19488:	015cfab3          	and	s5,s9,s5
   1948c:	00000d93          	li	s11,0
   19490:	820786e3          	beqz	a5,18cbc <_svfprintf_r+0x1e4>
   19494:	001a8a93          	addi	s5,s5,1
   19498:	825ff06f          	j	18cbc <_svfprintf_r+0x1e4>
   1949c:	01412703          	lw	a4,20(sp)
   194a0:	000c8893          	mv	a7,s9
   194a4:	0c0103a3          	sb	zero,199(sp)
   194a8:	00072783          	lw	a5,0(a4)
   194ac:	00470713          	addi	a4,a4,4
   194b0:	00e12a23          	sw	a4,20(sp)
   194b4:	14f10623          	sb	a5,332(sp)
   194b8:	00100a93          	li	s5,1
   194bc:	00100c93          	li	s9,1
   194c0:	14c10b13          	addi	s6,sp,332
   194c4:	fe4ff06f          	j	18ca8 <_svfprintf_r+0x1d0>
   194c8:	00044483          	lbu	s1,0(s0)
   194cc:	004a6a13          	ori	s4,s4,4
   194d0:	f6cff06f          	j	18c3c <_svfprintf_r+0x164>
   194d4:	01412683          	lw	a3,20(sp)
   194d8:	020a7793          	andi	a5,s4,32
   194dc:	000c8893          	mv	a7,s9
   194e0:	0006a703          	lw	a4,0(a3)
   194e4:	00468693          	addi	a3,a3,4
   194e8:	00d12a23          	sw	a3,20(sp)
   194ec:	280790e3          	bnez	a5,19f6c <_svfprintf_r+0x1494>
   194f0:	010a7793          	andi	a5,s4,16
   194f4:	00078463          	beqz	a5,194fc <_svfprintf_r+0xa24>
   194f8:	12c0106f          	j	1a624 <_svfprintf_r+0x1b4c>
   194fc:	040a7793          	andi	a5,s4,64
   19500:	00078463          	beqz	a5,19508 <_svfprintf_r+0xa30>
   19504:	3d80106f          	j	1a8dc <_svfprintf_r+0x1e04>
   19508:	200a7a13          	andi	s4,s4,512
   1950c:	000a1463          	bnez	s4,19514 <_svfprintf_r+0xa3c>
   19510:	1140106f          	j	1a624 <_svfprintf_r+0x1b4c>
   19514:	00c12783          	lw	a5,12(sp)
   19518:	00040b13          	mv	s6,s0
   1951c:	00f70023          	sb	a5,0(a4)
   19520:	8b1ff06f          	j	18dd0 <_svfprintf_r+0x2f8>
   19524:	00044483          	lbu	s1,0(s0)
   19528:	06c00793          	li	a5,108
   1952c:	38f48ee3          	beq	s1,a5,1a0c8 <_svfprintf_r+0x15f0>
   19530:	010a6a13          	ori	s4,s4,16
   19534:	f08ff06f          	j	18c3c <_svfprintf_r+0x164>
   19538:	01412703          	lw	a4,20(sp)
   1953c:	ffff87b7          	lui	a5,0xffff8
   19540:	8307c793          	xori	a5,a5,-2000
   19544:	0cf11423          	sh	a5,200(sp)
   19548:	00470793          	addi	a5,a4,4
   1954c:	00f12a23          	sw	a5,20(sp)
   19550:	00072903          	lw	s2,0(a4)
   19554:	000247b7          	lui	a5,0x24
   19558:	76478793          	addi	a5,a5,1892 # 24764 <__clzsi2+0x68>
   1955c:	000c8893          	mv	a7,s9
   19560:	02f12a23          	sw	a5,52(sp)
   19564:	00000c93          	li	s9,0
   19568:	002a6b93          	ori	s7,s4,2
   1956c:	00200793          	li	a5,2
   19570:	07800493          	li	s1,120
   19574:	0c0103a3          	sb	zero,199(sp)
   19578:	fff00713          	li	a4,-1
   1957c:	20ed8663          	beq	s11,a4,19788 <_svfprintf_r+0xcb0>
   19580:	01996733          	or	a4,s2,s9
   19584:	f7fbfa13          	andi	s4,s7,-129
   19588:	1e071e63          	bnez	a4,19784 <_svfprintf_r+0xcac>
   1958c:	260d9463          	bnez	s11,197f4 <_svfprintf_r+0xd1c>
   19590:	1c079063          	bnez	a5,19750 <_svfprintf_r+0xc78>
   19594:	001bfc93          	andi	s9,s7,1
   19598:	1b010b13          	addi	s6,sp,432
   1959c:	1c0c90e3          	bnez	s9,19f5c <_svfprintf_r+0x1484>
   195a0:	000c8a93          	mv	s5,s9
   195a4:	01bcd463          	bge	s9,s11,195ac <_svfprintf_r+0xad4>
   195a8:	000d8a93          	mv	s5,s11
   195ac:	0c714783          	lbu	a5,199(sp)
   195b0:	00012823          	sw	zero,16(sp)
   195b4:	02012423          	sw	zero,40(sp)
   195b8:	02012223          	sw	zero,36(sp)
   195bc:	00012e23          	sw	zero,28(sp)
   195c0:	ec079ae3          	bnez	a5,19494 <_svfprintf_r+0x9bc>
   195c4:	ef8ff06f          	j	18cbc <_svfprintf_r+0x1e4>
   195c8:	000c8893          	mv	a7,s9
   195cc:	010a6a13          	ori	s4,s4,16
   195d0:	020a7793          	andi	a5,s4,32
   195d4:	06078ce3          	beqz	a5,19e4c <_svfprintf_r+0x1374>
   195d8:	01412783          	lw	a5,20(sp)
   195dc:	00778b13          	addi	s6,a5,7
   195e0:	ff8b7b13          	andi	s6,s6,-8
   195e4:	000b2903          	lw	s2,0(s6)
   195e8:	004b2c83          	lw	s9,4(s6)
   195ec:	008b0793          	addi	a5,s6,8
   195f0:	00f12a23          	sw	a5,20(sp)
   195f4:	bffa7b93          	andi	s7,s4,-1025
   195f8:	00000793          	li	a5,0
   195fc:	f79ff06f          	j	19574 <_svfprintf_r+0xa9c>
   19600:	00044483          	lbu	s1,0(s0)
   19604:	06800793          	li	a5,104
   19608:	2cf488e3          	beq	s1,a5,1a0d8 <_svfprintf_r+0x1600>
   1960c:	040a6a13          	ori	s4,s4,64
   19610:	e2cff06f          	j	18c3c <_svfprintf_r+0x164>
   19614:	000c8893          	mv	a7,s9
   19618:	010a6b93          	ori	s7,s4,16
   1961c:	020bf793          	andi	a5,s7,32
   19620:	04078ce3          	beqz	a5,19e78 <_svfprintf_r+0x13a0>
   19624:	01412783          	lw	a5,20(sp)
   19628:	00778b13          	addi	s6,a5,7
   1962c:	ff8b7b13          	andi	s6,s6,-8
   19630:	008b0793          	addi	a5,s6,8
   19634:	00f12a23          	sw	a5,20(sp)
   19638:	000b2903          	lw	s2,0(s6)
   1963c:	004b2c83          	lw	s9,4(s6)
   19640:	00100793          	li	a5,1
   19644:	f31ff06f          	j	19574 <_svfprintf_r+0xa9c>
   19648:	00044483          	lbu	s1,0(s0)
   1964c:	008a6a13          	ori	s4,s4,8
   19650:	decff06f          	j	18c3c <_svfprintf_r+0x164>
   19654:	01412783          	lw	a5,20(sp)
   19658:	00044483          	lbu	s1,0(s0)
   1965c:	0007a983          	lw	s3,0(a5)
   19660:	00478793          	addi	a5,a5,4
   19664:	00f12a23          	sw	a5,20(sp)
   19668:	dc09da63          	bgez	s3,18c3c <_svfprintf_r+0x164>
   1966c:	413009b3          	neg	s3,s3
   19670:	004a6a13          	ori	s4,s4,4
   19674:	dc8ff06f          	j	18c3c <_svfprintf_r+0x164>
   19678:	00044483          	lbu	s1,0(s0)
   1967c:	001a6a13          	ori	s4,s4,1
   19680:	dbcff06f          	j	18c3c <_svfprintf_r+0x164>
   19684:	0c714783          	lbu	a5,199(sp)
   19688:	00044483          	lbu	s1,0(s0)
   1968c:	da079863          	bnez	a5,18c3c <_svfprintf_r+0x164>
   19690:	02000793          	li	a5,32
   19694:	0cf103a3          	sb	a5,199(sp)
   19698:	da4ff06f          	j	18c3c <_svfprintf_r+0x164>
   1969c:	00044483          	lbu	s1,0(s0)
   196a0:	080a6a13          	ori	s4,s4,128
   196a4:	d98ff06f          	j	18c3c <_svfprintf_r+0x164>
   196a8:	00044483          	lbu	s1,0(s0)
   196ac:	00140713          	addi	a4,s0,1
   196b0:	01749463          	bne	s1,s7,196b8 <_svfprintf_r+0xbe0>
   196b4:	5fd0106f          	j	1b4b0 <_svfprintf_r+0x29d8>
   196b8:	fd048693          	addi	a3,s1,-48
   196bc:	00070413          	mv	s0,a4
   196c0:	00000d93          	li	s11,0
   196c4:	d6daee63          	bltu	s5,a3,18c40 <_svfprintf_r+0x168>
   196c8:	00044483          	lbu	s1,0(s0)
   196cc:	002d9793          	slli	a5,s11,0x2
   196d0:	01b787b3          	add	a5,a5,s11
   196d4:	00179793          	slli	a5,a5,0x1
   196d8:	00d78db3          	add	s11,a5,a3
   196dc:	fd048693          	addi	a3,s1,-48
   196e0:	00140413          	addi	s0,s0,1
   196e4:	fedaf2e3          	bgeu	s5,a3,196c8 <_svfprintf_r+0xbf0>
   196e8:	d58ff06f          	j	18c40 <_svfprintf_r+0x168>
   196ec:	02b00793          	li	a5,43
   196f0:	00044483          	lbu	s1,0(s0)
   196f4:	0cf103a3          	sb	a5,199(sp)
   196f8:	d44ff06f          	j	18c3c <_svfprintf_r+0x164>
   196fc:	000c8893          	mv	a7,s9
   19700:	010a6a13          	ori	s4,s4,16
   19704:	020a7793          	andi	a5,s4,32
   19708:	7a078063          	beqz	a5,19ea8 <_svfprintf_r+0x13d0>
   1970c:	01412783          	lw	a5,20(sp)
   19710:	00778b13          	addi	s6,a5,7
   19714:	ff8b7b13          	andi	s6,s6,-8
   19718:	004b2783          	lw	a5,4(s6)
   1971c:	000b2903          	lw	s2,0(s6)
   19720:	008b0713          	addi	a4,s6,8
   19724:	00e12a23          	sw	a4,20(sp)
   19728:	00078c93          	mv	s9,a5
   1972c:	7a07c663          	bltz	a5,19ed8 <_svfprintf_r+0x1400>
   19730:	fff00793          	li	a5,-1
   19734:	000a0b93          	mv	s7,s4
   19738:	02fd8463          	beq	s11,a5,19760 <_svfprintf_r+0xc88>
   1973c:	019967b3          	or	a5,s2,s9
   19740:	f7fa7b93          	andi	s7,s4,-129
   19744:	00079e63          	bnez	a5,19760 <_svfprintf_r+0xc88>
   19748:	020d9263          	bnez	s11,1976c <_svfprintf_r+0xc94>
   1974c:	000b8a13          	mv	s4,s7
   19750:	00000d93          	li	s11,0
   19754:	00000c93          	li	s9,0
   19758:	1b010b13          	addi	s6,sp,432
   1975c:	e45ff06f          	j	195a0 <_svfprintf_r+0xac8>
   19760:	400c96e3          	bnez	s9,1a36c <_svfprintf_r+0x1894>
   19764:	00900793          	li	a5,9
   19768:	4127e2e3          	bltu	a5,s2,1a36c <_svfprintf_r+0x1894>
   1976c:	03090913          	addi	s2,s2,48
   19770:	1b2107a3          	sb	s2,431(sp)
   19774:	000b8a13          	mv	s4,s7
   19778:	00100c93          	li	s9,1
   1977c:	1af10b13          	addi	s6,sp,431
   19780:	e21ff06f          	j	195a0 <_svfprintf_r+0xac8>
   19784:	000a0b93          	mv	s7,s4
   19788:	00100713          	li	a4,1
   1978c:	fce78ae3          	beq	a5,a4,19760 <_svfprintf_r+0xc88>
   19790:	00200713          	li	a4,2
   19794:	06e78c63          	beq	a5,a4,1980c <_svfprintf_r+0xd34>
   19798:	1b010b13          	addi	s6,sp,432
   1979c:	01dc9713          	slli	a4,s9,0x1d
   197a0:	00797793          	andi	a5,s2,7
   197a4:	00395913          	srli	s2,s2,0x3
   197a8:	03078793          	addi	a5,a5,48
   197ac:	01276933          	or	s2,a4,s2
   197b0:	003cdc93          	srli	s9,s9,0x3
   197b4:	fefb0fa3          	sb	a5,-1(s6)
   197b8:	01996733          	or	a4,s2,s9
   197bc:	000b0613          	mv	a2,s6
   197c0:	fffb0b13          	addi	s6,s6,-1
   197c4:	fc071ce3          	bnez	a4,1979c <_svfprintf_r+0xcc4>
   197c8:	001bf693          	andi	a3,s7,1
   197cc:	06068a63          	beqz	a3,19840 <_svfprintf_r+0xd68>
   197d0:	03000693          	li	a3,48
   197d4:	06d78663          	beq	a5,a3,19840 <_svfprintf_r+0xd68>
   197d8:	ffe60613          	addi	a2,a2,-2
   197dc:	1b010793          	addi	a5,sp,432
   197e0:	fedb0fa3          	sb	a3,-1(s6)
   197e4:	40c78cb3          	sub	s9,a5,a2
   197e8:	000b8a13          	mv	s4,s7
   197ec:	00060b13          	mv	s6,a2
   197f0:	db1ff06f          	j	195a0 <_svfprintf_r+0xac8>
   197f4:	00100713          	li	a4,1
   197f8:	00e79463          	bne	a5,a4,19800 <_svfprintf_r+0xd28>
   197fc:	1710106f          	j	1b16c <_svfprintf_r+0x2694>
   19800:	00200713          	li	a4,2
   19804:	000a0b93          	mv	s7,s4
   19808:	f8e798e3          	bne	a5,a4,19798 <_svfprintf_r+0xcc0>
   1980c:	03412683          	lw	a3,52(sp)
   19810:	1b010b13          	addi	s6,sp,432
   19814:	00f97793          	andi	a5,s2,15
   19818:	00f687b3          	add	a5,a3,a5
   1981c:	0007c703          	lbu	a4,0(a5)
   19820:	00495913          	srli	s2,s2,0x4
   19824:	01cc9793          	slli	a5,s9,0x1c
   19828:	0127e933          	or	s2,a5,s2
   1982c:	004cdc93          	srli	s9,s9,0x4
   19830:	feeb0fa3          	sb	a4,-1(s6)
   19834:	019967b3          	or	a5,s2,s9
   19838:	fffb0b13          	addi	s6,s6,-1
   1983c:	fc079ce3          	bnez	a5,19814 <_svfprintf_r+0xd3c>
   19840:	1b010793          	addi	a5,sp,432
   19844:	41678cb3          	sub	s9,a5,s6
   19848:	000b8a13          	mv	s4,s7
   1984c:	d55ff06f          	j	195a0 <_svfprintf_r+0xac8>
   19850:	06500693          	li	a3,101
   19854:	9c96dae3          	bge	a3,s1,19228 <_svfprintf_r+0x750>
   19858:	0f012683          	lw	a3,240(sp)
   1985c:	0a010593          	addi	a1,sp,160
   19860:	0b010513          	addi	a0,sp,176
   19864:	0ad12823          	sw	a3,176(sp)
   19868:	0f412683          	lw	a3,244(sp)
   1986c:	05112223          	sw	a7,68(sp)
   19870:	04f12023          	sw	a5,64(sp)
   19874:	0ad12a23          	sw	a3,180(sp)
   19878:	0f812683          	lw	a3,248(sp)
   1987c:	0a012023          	sw	zero,160(sp)
   19880:	0a012223          	sw	zero,164(sp)
   19884:	0ad12c23          	sw	a3,184(sp)
   19888:	0fc12683          	lw	a3,252(sp)
   1988c:	0a012423          	sw	zero,168(sp)
   19890:	0a012623          	sw	zero,172(sp)
   19894:	0ad12e23          	sw	a3,188(sp)
   19898:	15d070ef          	jal	ra,211f4 <__eqtf2>
   1989c:	04012783          	lw	a5,64(sp)
   198a0:	04412883          	lw	a7,68(sp)
   198a4:	38051c63          	bnez	a0,19c3c <_svfprintf_r+0x1164>
   198a8:	0e812703          	lw	a4,232(sp)
   198ac:	000246b7          	lui	a3,0x24
   198b0:	79468693          	addi	a3,a3,1940 # 24794 <__clzsi2+0x98>
   198b4:	00d8a023          	sw	a3,0(a7)
   198b8:	00178793          	addi	a5,a5,1
   198bc:	00100693          	li	a3,1
   198c0:	00170713          	addi	a4,a4,1
   198c4:	00d8a223          	sw	a3,4(a7)
   198c8:	0ef12623          	sw	a5,236(sp)
   198cc:	0ee12423          	sw	a4,232(sp)
   198d0:	00700693          	li	a3,7
   198d4:	00888893          	addi	a7,a7,8
   198d8:	44e6cce3          	blt	a3,a4,1a530 <_svfprintf_r+0x1a58>
   198dc:	0cc12703          	lw	a4,204(sp)
   198e0:	02012683          	lw	a3,32(sp)
   198e4:	66d75063          	bge	a4,a3,19f44 <_svfprintf_r+0x146c>
   198e8:	03012703          	lw	a4,48(sp)
   198ec:	02c12683          	lw	a3,44(sp)
   198f0:	00888893          	addi	a7,a7,8
   198f4:	fee8ac23          	sw	a4,-8(a7)
   198f8:	0e812703          	lw	a4,232(sp)
   198fc:	00d787b3          	add	a5,a5,a3
   19900:	fed8ae23          	sw	a3,-4(a7)
   19904:	00170713          	addi	a4,a4,1
   19908:	0ef12623          	sw	a5,236(sp)
   1990c:	0ee12423          	sw	a4,232(sp)
   19910:	00700693          	li	a3,7
   19914:	76e6cc63          	blt	a3,a4,1a08c <_svfprintf_r+0x15b4>
   19918:	02012703          	lw	a4,32(sp)
   1991c:	fff70493          	addi	s1,a4,-1
   19920:	c6905463          	blez	s1,18d88 <_svfprintf_r+0x2b0>
   19924:	01000693          	li	a3,16
   19928:	0e812703          	lw	a4,232(sp)
   1992c:	4296d2e3          	bge	a3,s1,1a550 <_svfprintf_r+0x1a78>
   19930:	01000913          	li	s2,16
   19934:	00700c93          	li	s9,7
   19938:	00c0006f          	j	19944 <_svfprintf_r+0xe6c>
   1993c:	ff048493          	addi	s1,s1,-16
   19940:	409958e3          	bge	s2,s1,1a550 <_svfprintf_r+0x1a78>
   19944:	00812683          	lw	a3,8(sp)
   19948:	01078793          	addi	a5,a5,16
   1994c:	00170713          	addi	a4,a4,1
   19950:	00d8a023          	sw	a3,0(a7)
   19954:	0128a223          	sw	s2,4(a7)
   19958:	0ef12623          	sw	a5,236(sp)
   1995c:	0ee12423          	sw	a4,232(sp)
   19960:	00888893          	addi	a7,a7,8
   19964:	fcecdce3          	bge	s9,a4,1993c <_svfprintf_r+0xe64>
   19968:	0e410613          	addi	a2,sp,228
   1996c:	000c0593          	mv	a1,s8
   19970:	000d0513          	mv	a0,s10
   19974:	694040ef          	jal	ra,1e008 <__ssprint_r>
   19978:	1a051063          	bnez	a0,19b18 <_svfprintf_r+0x1040>
   1997c:	0ec12783          	lw	a5,236(sp)
   19980:	0e812703          	lw	a4,232(sp)
   19984:	10c10893          	addi	a7,sp,268
   19988:	fb5ff06f          	j	1993c <_svfprintf_r+0xe64>
   1998c:	41598933          	sub	s2,s3,s5
   19990:	bd205063          	blez	s2,18d50 <_svfprintf_r+0x278>
   19994:	01000613          	li	a2,16
   19998:	0e812683          	lw	a3,232(sp)
   1999c:	07265463          	bge	a2,s2,19a04 <_svfprintf_r+0xf2c>
   199a0:	01000e13          	li	t3,16
   199a4:	00700b93          	li	s7,7
   199a8:	00c0006f          	j	199b4 <_svfprintf_r+0xedc>
   199ac:	ff090913          	addi	s2,s2,-16
   199b0:	052e5a63          	bge	t3,s2,19a04 <_svfprintf_r+0xf2c>
   199b4:	00812703          	lw	a4,8(sp)
   199b8:	01078793          	addi	a5,a5,16
   199bc:	00168693          	addi	a3,a3,1
   199c0:	00e8a023          	sw	a4,0(a7)
   199c4:	01c8a223          	sw	t3,4(a7)
   199c8:	0ef12623          	sw	a5,236(sp)
   199cc:	0ed12423          	sw	a3,232(sp)
   199d0:	00888893          	addi	a7,a7,8
   199d4:	fcdbdce3          	bge	s7,a3,199ac <_svfprintf_r+0xed4>
   199d8:	0e410613          	addi	a2,sp,228
   199dc:	000c0593          	mv	a1,s8
   199e0:	000d0513          	mv	a0,s10
   199e4:	624040ef          	jal	ra,1e008 <__ssprint_r>
   199e8:	12051863          	bnez	a0,19b18 <_svfprintf_r+0x1040>
   199ec:	01000e13          	li	t3,16
   199f0:	ff090913          	addi	s2,s2,-16
   199f4:	0ec12783          	lw	a5,236(sp)
   199f8:	0e812683          	lw	a3,232(sp)
   199fc:	10c10893          	addi	a7,sp,268
   19a00:	fb2e4ae3          	blt	t3,s2,199b4 <_svfprintf_r+0xedc>
   19a04:	00812703          	lw	a4,8(sp)
   19a08:	012787b3          	add	a5,a5,s2
   19a0c:	00168693          	addi	a3,a3,1
   19a10:	00e8a023          	sw	a4,0(a7)
   19a14:	0128a223          	sw	s2,4(a7)
   19a18:	0ef12623          	sw	a5,236(sp)
   19a1c:	0ed12423          	sw	a3,232(sp)
   19a20:	00700613          	li	a2,7
   19a24:	00888893          	addi	a7,a7,8
   19a28:	b2d65463          	bge	a2,a3,18d50 <_svfprintf_r+0x278>
   19a2c:	0e410613          	addi	a2,sp,228
   19a30:	000c0593          	mv	a1,s8
   19a34:	000d0513          	mv	a0,s10
   19a38:	5d0040ef          	jal	ra,1e008 <__ssprint_r>
   19a3c:	0c051e63          	bnez	a0,19b18 <_svfprintf_r+0x1040>
   19a40:	419d8db3          	sub	s11,s11,s9
   19a44:	0ec12783          	lw	a5,236(sp)
   19a48:	10c10893          	addi	a7,sp,268
   19a4c:	b1b05663          	blez	s11,18d58 <_svfprintf_r+0x280>
   19a50:	01000613          	li	a2,16
   19a54:	0e812683          	lw	a3,232(sp)
   19a58:	07b65263          	bge	a2,s11,19abc <_svfprintf_r+0xfe4>
   19a5c:	01000b93          	li	s7,16
   19a60:	00700913          	li	s2,7
   19a64:	00c0006f          	j	19a70 <_svfprintf_r+0xf98>
   19a68:	ff0d8d93          	addi	s11,s11,-16
   19a6c:	05bbd863          	bge	s7,s11,19abc <_svfprintf_r+0xfe4>
   19a70:	00812703          	lw	a4,8(sp)
   19a74:	01078793          	addi	a5,a5,16
   19a78:	00168693          	addi	a3,a3,1
   19a7c:	00e8a023          	sw	a4,0(a7)
   19a80:	0178a223          	sw	s7,4(a7)
   19a84:	0ef12623          	sw	a5,236(sp)
   19a88:	0ed12423          	sw	a3,232(sp)
   19a8c:	00888893          	addi	a7,a7,8
   19a90:	fcd95ce3          	bge	s2,a3,19a68 <_svfprintf_r+0xf90>
   19a94:	0e410613          	addi	a2,sp,228
   19a98:	000c0593          	mv	a1,s8
   19a9c:	000d0513          	mv	a0,s10
   19aa0:	568040ef          	jal	ra,1e008 <__ssprint_r>
   19aa4:	06051a63          	bnez	a0,19b18 <_svfprintf_r+0x1040>
   19aa8:	ff0d8d93          	addi	s11,s11,-16
   19aac:	0ec12783          	lw	a5,236(sp)
   19ab0:	0e812683          	lw	a3,232(sp)
   19ab4:	10c10893          	addi	a7,sp,268
   19ab8:	fbbbcce3          	blt	s7,s11,19a70 <_svfprintf_r+0xf98>
   19abc:	00812703          	lw	a4,8(sp)
   19ac0:	01b787b3          	add	a5,a5,s11
   19ac4:	00168693          	addi	a3,a3,1
   19ac8:	00e8a023          	sw	a4,0(a7)
   19acc:	01b8a223          	sw	s11,4(a7)
   19ad0:	0ef12623          	sw	a5,236(sp)
   19ad4:	0ed12423          	sw	a3,232(sp)
   19ad8:	00700613          	li	a2,7
   19adc:	00888893          	addi	a7,a7,8
   19ae0:	a6d65c63          	bge	a2,a3,18d58 <_svfprintf_r+0x280>
   19ae4:	0e410613          	addi	a2,sp,228
   19ae8:	000c0593          	mv	a1,s8
   19aec:	000d0513          	mv	a0,s10
   19af0:	518040ef          	jal	ra,1e008 <__ssprint_r>
   19af4:	02051263          	bnez	a0,19b18 <_svfprintf_r+0x1040>
   19af8:	0ec12783          	lw	a5,236(sp)
   19afc:	10c10893          	addi	a7,sp,268
   19b00:	a58ff06f          	j	18d58 <_svfprintf_r+0x280>
   19b04:	0e410613          	addi	a2,sp,228
   19b08:	000c0593          	mv	a1,s8
   19b0c:	000d0513          	mv	a0,s10
   19b10:	4f8040ef          	jal	ra,1e008 <__ssprint_r>
   19b14:	a8050e63          	beqz	a0,18db0 <_svfprintf_r+0x2d8>
   19b18:	01012b83          	lw	s7,16(sp)
   19b1c:	ac0b8463          	beqz	s7,18de4 <_svfprintf_r+0x30c>
   19b20:	000b8593          	mv	a1,s7
   19b24:	000d0513          	mv	a0,s10
   19b28:	ee1f90ef          	jal	ra,13a08 <_free_r>
   19b2c:	ab8ff06f          	j	18de4 <_svfprintf_r+0x30c>
   19b30:	00025737          	lui	a4,0x25
   19b34:	01000613          	li	a2,16
   19b38:	0e812683          	lw	a3,232(sp)
   19b3c:	e3470e93          	addi	t4,a4,-460 # 24e34 <blanks.4468>
   19b40:	09065c63          	bge	a2,a6,19bd8 <_svfprintf_r+0x1100>
   19b44:	04812023          	sw	s0,64(sp)
   19b48:	04912223          	sw	s1,68(sp)
   19b4c:	000d0413          	mv	s0,s10
   19b50:	000c0493          	mv	s1,s8
   19b54:	01000e13          	li	t3,16
   19b58:	00700293          	li	t0,7
   19b5c:	00080c13          	mv	s8,a6
   19b60:	000e8d13          	mv	s10,t4
   19b64:	00c0006f          	j	19b70 <_svfprintf_r+0x1098>
   19b68:	ff0c0c13          	addi	s8,s8,-16
   19b6c:	058e5a63          	bge	t3,s8,19bc0 <_svfprintf_r+0x10e8>
   19b70:	01078793          	addi	a5,a5,16
   19b74:	00168693          	addi	a3,a3,1
   19b78:	01a8a023          	sw	s10,0(a7)
   19b7c:	01c8a223          	sw	t3,4(a7)
   19b80:	0ef12623          	sw	a5,236(sp)
   19b84:	0ed12423          	sw	a3,232(sp)
   19b88:	00888893          	addi	a7,a7,8
   19b8c:	fcd2dee3          	bge	t0,a3,19b68 <_svfprintf_r+0x1090>
   19b90:	0e410613          	addi	a2,sp,228
   19b94:	00048593          	mv	a1,s1
   19b98:	00040513          	mv	a0,s0
   19b9c:	46c040ef          	jal	ra,1e008 <__ssprint_r>
   19ba0:	160512e3          	bnez	a0,1a504 <_svfprintf_r+0x1a2c>
   19ba4:	01000e13          	li	t3,16
   19ba8:	ff0c0c13          	addi	s8,s8,-16
   19bac:	0ec12783          	lw	a5,236(sp)
   19bb0:	0e812683          	lw	a3,232(sp)
   19bb4:	10c10893          	addi	a7,sp,268
   19bb8:	00700293          	li	t0,7
   19bbc:	fb8e4ae3          	blt	t3,s8,19b70 <_svfprintf_r+0x1098>
   19bc0:	000c0813          	mv	a6,s8
   19bc4:	000d0e93          	mv	t4,s10
   19bc8:	00048c13          	mv	s8,s1
   19bcc:	00040d13          	mv	s10,s0
   19bd0:	04412483          	lw	s1,68(sp)
   19bd4:	04012403          	lw	s0,64(sp)
   19bd8:	010787b3          	add	a5,a5,a6
   19bdc:	00168693          	addi	a3,a3,1
   19be0:	01d8a023          	sw	t4,0(a7)
   19be4:	0108a223          	sw	a6,4(a7)
   19be8:	0ef12623          	sw	a5,236(sp)
   19bec:	0ed12423          	sw	a3,232(sp)
   19bf0:	00700613          	li	a2,7
   19bf4:	00888893          	addi	a7,a7,8
   19bf8:	8ed65263          	bge	a2,a3,18cdc <_svfprintf_r+0x204>
   19bfc:	0e410613          	addi	a2,sp,228
   19c00:	000c0593          	mv	a1,s8
   19c04:	000d0513          	mv	a0,s10
   19c08:	400040ef          	jal	ra,1e008 <__ssprint_r>
   19c0c:	f00516e3          	bnez	a0,19b18 <_svfprintf_r+0x1040>
   19c10:	0ec12783          	lw	a5,236(sp)
   19c14:	10c10893          	addi	a7,sp,268
   19c18:	8c4ff06f          	j	18cdc <_svfprintf_r+0x204>
   19c1c:	0e410613          	addi	a2,sp,228
   19c20:	000c0593          	mv	a1,s8
   19c24:	000d0513          	mv	a0,s10
   19c28:	3e0040ef          	jal	ra,1e008 <__ssprint_r>
   19c2c:	ee0516e3          	bnez	a0,19b18 <_svfprintf_r+0x1040>
   19c30:	0ec12783          	lw	a5,236(sp)
   19c34:	10c10893          	addi	a7,sp,268
   19c38:	910ff06f          	j	18d48 <_svfprintf_r+0x270>
   19c3c:	0cc12583          	lw	a1,204(sp)
   19c40:	7eb05c63          	blez	a1,1a438 <_svfprintf_r+0x1960>
   19c44:	01c12703          	lw	a4,28(sp)
   19c48:	02012683          	lw	a3,32(sp)
   19c4c:	00070493          	mv	s1,a4
   19c50:	3ce6c263          	blt	a3,a4,1a014 <_svfprintf_r+0x153c>
   19c54:	02905663          	blez	s1,19c80 <_svfprintf_r+0x11a8>
   19c58:	0e812683          	lw	a3,232(sp)
   19c5c:	009787b3          	add	a5,a5,s1
   19c60:	0168a023          	sw	s6,0(a7)
   19c64:	00168693          	addi	a3,a3,1
   19c68:	0098a223          	sw	s1,4(a7)
   19c6c:	0ef12623          	sw	a5,236(sp)
   19c70:	0ed12423          	sw	a3,232(sp)
   19c74:	00700613          	li	a2,7
   19c78:	00888893          	addi	a7,a7,8
   19c7c:	40d64ce3          	blt	a2,a3,1a894 <_svfprintf_r+0x1dbc>
   19c80:	fff4c693          	not	a3,s1
   19c84:	01c12703          	lw	a4,28(sp)
   19c88:	41f6d693          	srai	a3,a3,0x1f
   19c8c:	00d4f4b3          	and	s1,s1,a3
   19c90:	409704b3          	sub	s1,a4,s1
   19c94:	48904e63          	bgtz	s1,1a130 <_svfprintf_r+0x1658>
   19c98:	01c12703          	lw	a4,28(sp)
   19c9c:	400a7693          	andi	a3,s4,1024
   19ca0:	00eb0db3          	add	s11,s6,a4
   19ca4:	4e069a63          	bnez	a3,1a198 <_svfprintf_r+0x16c0>
   19ca8:	0cc12483          	lw	s1,204(sp)
   19cac:	02012703          	lw	a4,32(sp)
   19cb0:	00e4c663          	blt	s1,a4,19cbc <_svfprintf_r+0x11e4>
   19cb4:	001a7693          	andi	a3,s4,1
   19cb8:	400682e3          	beqz	a3,1a8bc <_svfprintf_r+0x1de4>
   19cbc:	03012683          	lw	a3,48(sp)
   19cc0:	02c12703          	lw	a4,44(sp)
   19cc4:	00700613          	li	a2,7
   19cc8:	00d8a023          	sw	a3,0(a7)
   19ccc:	0e812683          	lw	a3,232(sp)
   19cd0:	00e787b3          	add	a5,a5,a4
   19cd4:	00e8a223          	sw	a4,4(a7)
   19cd8:	00168693          	addi	a3,a3,1
   19cdc:	0ef12623          	sw	a5,236(sp)
   19ce0:	0ed12423          	sw	a3,232(sp)
   19ce4:	00888893          	addi	a7,a7,8
   19ce8:	6ad644e3          	blt	a2,a3,1ab90 <_svfprintf_r+0x20b8>
   19cec:	02012683          	lw	a3,32(sp)
   19cf0:	00db0733          	add	a4,s6,a3
   19cf4:	409684b3          	sub	s1,a3,s1
   19cf8:	41b70733          	sub	a4,a4,s11
   19cfc:	00048913          	mv	s2,s1
   19d00:	00975463          	bge	a4,s1,19d08 <_svfprintf_r+0x1230>
   19d04:	00070913          	mv	s2,a4
   19d08:	03205663          	blez	s2,19d34 <_svfprintf_r+0x125c>
   19d0c:	0e812703          	lw	a4,232(sp)
   19d10:	012787b3          	add	a5,a5,s2
   19d14:	01b8a023          	sw	s11,0(a7)
   19d18:	00170713          	addi	a4,a4,1
   19d1c:	0128a223          	sw	s2,4(a7)
   19d20:	0ef12623          	sw	a5,236(sp)
   19d24:	0ee12423          	sw	a4,232(sp)
   19d28:	00700693          	li	a3,7
   19d2c:	00888893          	addi	a7,a7,8
   19d30:	6ae6cae3          	blt	a3,a4,1abe4 <_svfprintf_r+0x210c>
   19d34:	fff94713          	not	a4,s2
   19d38:	41f75713          	srai	a4,a4,0x1f
   19d3c:	00e97733          	and	a4,s2,a4
   19d40:	40e484b3          	sub	s1,s1,a4
   19d44:	00904463          	bgtz	s1,19d4c <_svfprintf_r+0x1274>
   19d48:	840ff06f          	j	18d88 <_svfprintf_r+0x2b0>
   19d4c:	01000693          	li	a3,16
   19d50:	0e812703          	lw	a4,232(sp)
   19d54:	7e96de63          	bge	a3,s1,1a550 <_svfprintf_r+0x1a78>
   19d58:	01000913          	li	s2,16
   19d5c:	00700c93          	li	s9,7
   19d60:	00c0006f          	j	19d6c <_svfprintf_r+0x1294>
   19d64:	ff048493          	addi	s1,s1,-16
   19d68:	7e995463          	bge	s2,s1,1a550 <_svfprintf_r+0x1a78>
   19d6c:	00812683          	lw	a3,8(sp)
   19d70:	01078793          	addi	a5,a5,16
   19d74:	00170713          	addi	a4,a4,1
   19d78:	00d8a023          	sw	a3,0(a7)
   19d7c:	0128a223          	sw	s2,4(a7)
   19d80:	0ef12623          	sw	a5,236(sp)
   19d84:	0ee12423          	sw	a4,232(sp)
   19d88:	00888893          	addi	a7,a7,8
   19d8c:	fcecdce3          	bge	s9,a4,19d64 <_svfprintf_r+0x128c>
   19d90:	0e410613          	addi	a2,sp,228
   19d94:	000c0593          	mv	a1,s8
   19d98:	000d0513          	mv	a0,s10
   19d9c:	26c040ef          	jal	ra,1e008 <__ssprint_r>
   19da0:	d6051ce3          	bnez	a0,19b18 <_svfprintf_r+0x1040>
   19da4:	0ec12783          	lw	a5,236(sp)
   19da8:	0e812703          	lw	a4,232(sp)
   19dac:	10c10893          	addi	a7,sp,268
   19db0:	fb5ff06f          	j	19d64 <_svfprintf_r+0x128c>
   19db4:	001a7793          	andi	a5,s4,1
   19db8:	c8079863          	bnez	a5,19248 <_svfprintf_r+0x770>
   19dbc:	00c8a223          	sw	a2,4(a7)
   19dc0:	0f912623          	sw	s9,236(sp)
   19dc4:	0e912423          	sw	s1,232(sp)
   19dc8:	00700793          	li	a5,7
   19dcc:	5497ca63          	blt	a5,s1,1a320 <_svfprintf_r+0x1848>
   19dd0:	00268693          	addi	a3,a3,2
   19dd4:	01088893          	addi	a7,a7,16
   19dd8:	d44ff06f          	j	1931c <_svfprintf_r+0x844>
   19ddc:	d5b05063          	blez	s11,1931c <_svfprintf_r+0x844>
   19de0:	01000713          	li	a4,16
   19de4:	01b74463          	blt	a4,s11,19dec <_svfprintf_r+0x1314>
   19de8:	6c00106f          	j	1b4a8 <_svfprintf_r+0x29d0>
   19dec:	00700b13          	li	s6,7
   19df0:	00060493          	mv	s1,a2
   19df4:	0100006f          	j	19e04 <_svfprintf_r+0x132c>
   19df8:	ff0d8d93          	addi	s11,s11,-16
   19dfc:	11b75ee3          	bge	a4,s11,1a718 <_svfprintf_r+0x1c40>
   19e00:	00148493          	addi	s1,s1,1
   19e04:	00812783          	lw	a5,8(sp)
   19e08:	010c8c93          	addi	s9,s9,16
   19e0c:	00e92223          	sw	a4,4(s2)
   19e10:	00f92023          	sw	a5,0(s2)
   19e14:	0f912623          	sw	s9,236(sp)
   19e18:	0e912423          	sw	s1,232(sp)
   19e1c:	00890913          	addi	s2,s2,8
   19e20:	fc9b5ce3          	bge	s6,s1,19df8 <_svfprintf_r+0x1320>
   19e24:	0e410613          	addi	a2,sp,228
   19e28:	000c0593          	mv	a1,s8
   19e2c:	000d0513          	mv	a0,s10
   19e30:	1d8040ef          	jal	ra,1e008 <__ssprint_r>
   19e34:	ce0512e3          	bnez	a0,19b18 <_svfprintf_r+0x1040>
   19e38:	0ec12c83          	lw	s9,236(sp)
   19e3c:	0e812483          	lw	s1,232(sp)
   19e40:	10c10913          	addi	s2,sp,268
   19e44:	01000713          	li	a4,16
   19e48:	fb1ff06f          	j	19df8 <_svfprintf_r+0x1320>
   19e4c:	01412683          	lw	a3,20(sp)
   19e50:	010a7793          	andi	a5,s4,16
   19e54:	00468713          	addi	a4,a3,4
   19e58:	18079463          	bnez	a5,19fe0 <_svfprintf_r+0x1508>
   19e5c:	040a7793          	andi	a5,s4,64
   19e60:	140786e3          	beqz	a5,1a7ac <_svfprintf_r+0x1cd4>
   19e64:	01412783          	lw	a5,20(sp)
   19e68:	00000c93          	li	s9,0
   19e6c:	00e12a23          	sw	a4,20(sp)
   19e70:	0007d903          	lhu	s2,0(a5)
   19e74:	f80ff06f          	j	195f4 <_svfprintf_r+0xb1c>
   19e78:	01412683          	lw	a3,20(sp)
   19e7c:	010bf793          	andi	a5,s7,16
   19e80:	00468713          	addi	a4,a3,4
   19e84:	14079463          	bnez	a5,19fcc <_svfprintf_r+0x14f4>
   19e88:	040bf793          	andi	a5,s7,64
   19e8c:	100780e3          	beqz	a5,1a78c <_svfprintf_r+0x1cb4>
   19e90:	01412783          	lw	a5,20(sp)
   19e94:	00000c93          	li	s9,0
   19e98:	00e12a23          	sw	a4,20(sp)
   19e9c:	0007d903          	lhu	s2,0(a5)
   19ea0:	00100793          	li	a5,1
   19ea4:	ed0ff06f          	j	19574 <_svfprintf_r+0xa9c>
   19ea8:	01412683          	lw	a3,20(sp)
   19eac:	010a7793          	andi	a5,s4,16
   19eb0:	00468713          	addi	a4,a3,4
   19eb4:	10079263          	bnez	a5,19fb8 <_svfprintf_r+0x14e0>
   19eb8:	040a7793          	andi	a5,s4,64
   19ebc:	0a0788e3          	beqz	a5,1a76c <_svfprintf_r+0x1c94>
   19ec0:	01412783          	lw	a5,20(sp)
   19ec4:	00e12a23          	sw	a4,20(sp)
   19ec8:	00079903          	lh	s2,0(a5)
   19ecc:	41f95c93          	srai	s9,s2,0x1f
   19ed0:	000c8793          	mv	a5,s9
   19ed4:	8407dee3          	bgez	a5,19730 <_svfprintf_r+0xc58>
   19ed8:	012037b3          	snez	a5,s2
   19edc:	41900cb3          	neg	s9,s9
   19ee0:	40fc8cb3          	sub	s9,s9,a5
   19ee4:	02d00793          	li	a5,45
   19ee8:	0cf103a3          	sb	a5,199(sp)
   19eec:	41200933          	neg	s2,s2
   19ef0:	000a0b93          	mv	s7,s4
   19ef4:	00100793          	li	a5,1
   19ef8:	e80ff06f          	j	19578 <_svfprintf_r+0xaa0>
   19efc:	0e410613          	addi	a2,sp,228
   19f00:	000c0593          	mv	a1,s8
   19f04:	000d0513          	mv	a0,s10
   19f08:	100040ef          	jal	ra,1e008 <__ssprint_r>
   19f0c:	c00516e3          	bnez	a0,19b18 <_svfprintf_r+0x1040>
   19f10:	0ec12c83          	lw	s9,236(sp)
   19f14:	0e812483          	lw	s1,232(sp)
   19f18:	10c10913          	addi	s2,sp,268
   19f1c:	b44ff06f          	j	19260 <_svfprintf_r+0x788>
   19f20:	0e410613          	addi	a2,sp,228
   19f24:	000c0593          	mv	a1,s8
   19f28:	000d0513          	mv	a0,s10
   19f2c:	0dc040ef          	jal	ra,1e008 <__ssprint_r>
   19f30:	be0514e3          	bnez	a0,19b18 <_svfprintf_r+0x1040>
   19f34:	0ec12c83          	lw	s9,236(sp)
   19f38:	0e812483          	lw	s1,232(sp)
   19f3c:	10c10913          	addi	s2,sp,268
   19f40:	b4cff06f          	j	1928c <_svfprintf_r+0x7b4>
   19f44:	001a7713          	andi	a4,s4,1
   19f48:	00071463          	bnez	a4,19f50 <_svfprintf_r+0x1478>
   19f4c:	e3dfe06f          	j	18d88 <_svfprintf_r+0x2b0>
   19f50:	999ff06f          	j	198e8 <_svfprintf_r+0xe10>
   19f54:	000c8893          	mv	a7,s9
   19f58:	facff06f          	j	19704 <_svfprintf_r+0xc2c>
   19f5c:	03000793          	li	a5,48
   19f60:	1af107a3          	sb	a5,431(sp)
   19f64:	1af10b13          	addi	s6,sp,431
   19f68:	e38ff06f          	j	195a0 <_svfprintf_r+0xac8>
   19f6c:	00c12683          	lw	a3,12(sp)
   19f70:	00040b13          	mv	s6,s0
   19f74:	41f6d793          	srai	a5,a3,0x1f
   19f78:	00d72023          	sw	a3,0(a4)
   19f7c:	00f72223          	sw	a5,4(a4)
   19f80:	e51fe06f          	j	18dd0 <_svfprintf_r+0x2f8>
   19f84:	01412703          	lw	a4,20(sp)
   19f88:	00072783          	lw	a5,0(a4)
   19f8c:	00470713          	addi	a4,a4,4
   19f90:	00e12a23          	sw	a4,20(sp)
   19f94:	0007a583          	lw	a1,0(a5)
   19f98:	0047a603          	lw	a2,4(a5)
   19f9c:	0087a683          	lw	a3,8(a5)
   19fa0:	00c7a783          	lw	a5,12(a5)
   19fa4:	0eb12823          	sw	a1,240(sp)
   19fa8:	0ec12a23          	sw	a2,244(sp)
   19fac:	0ed12c23          	sw	a3,248(sp)
   19fb0:	0ef12e23          	sw	a5,252(sp)
   19fb4:	f59fe06f          	j	18f0c <_svfprintf_r+0x434>
   19fb8:	0006a903          	lw	s2,0(a3)
   19fbc:	00e12a23          	sw	a4,20(sp)
   19fc0:	41f95c93          	srai	s9,s2,0x1f
   19fc4:	000c8793          	mv	a5,s9
   19fc8:	f64ff06f          	j	1972c <_svfprintf_r+0xc54>
   19fcc:	0006a903          	lw	s2,0(a3)
   19fd0:	00000c93          	li	s9,0
   19fd4:	00e12a23          	sw	a4,20(sp)
   19fd8:	00100793          	li	a5,1
   19fdc:	d98ff06f          	j	19574 <_svfprintf_r+0xa9c>
   19fe0:	0006a903          	lw	s2,0(a3)
   19fe4:	00000c93          	li	s9,0
   19fe8:	00e12a23          	sw	a4,20(sp)
   19fec:	e08ff06f          	j	195f4 <_svfprintf_r+0xb1c>
   19ff0:	03c12783          	lw	a5,60(sp)
   19ff4:	00044483          	lbu	s1,0(s0)
   19ff8:	00079463          	bnez	a5,1a000 <_svfprintf_r+0x1528>
   19ffc:	c41fe06f          	j	18c3c <_svfprintf_r+0x164>
   1a000:	0007c783          	lbu	a5,0(a5)
   1a004:	00079463          	bnez	a5,1a00c <_svfprintf_r+0x1534>
   1a008:	c35fe06f          	j	18c3c <_svfprintf_r+0x164>
   1a00c:	400a6a13          	ori	s4,s4,1024
   1a010:	c2dfe06f          	j	18c3c <_svfprintf_r+0x164>
   1a014:	00068493          	mv	s1,a3
   1a018:	c49040e3          	bgtz	s1,19c58 <_svfprintf_r+0x1180>
   1a01c:	c65ff06f          	j	19c80 <_svfprintf_r+0x11a8>
   1a020:	000c8893          	mv	a7,s9
   1a024:	000a0b93          	mv	s7,s4
   1a028:	df4ff06f          	j	1961c <_svfprintf_r+0xb44>
   1a02c:	000247b7          	lui	a5,0x24
   1a030:	76478793          	addi	a5,a5,1892 # 24764 <__clzsi2+0x68>
   1a034:	000c8893          	mv	a7,s9
   1a038:	02f12a23          	sw	a5,52(sp)
   1a03c:	020a7793          	andi	a5,s4,32
   1a040:	2c078063          	beqz	a5,1a300 <_svfprintf_r+0x1828>
   1a044:	01412783          	lw	a5,20(sp)
   1a048:	00778b13          	addi	s6,a5,7
   1a04c:	ff8b7b13          	andi	s6,s6,-8
   1a050:	000b2903          	lw	s2,0(s6)
   1a054:	004b2c83          	lw	s9,4(s6)
   1a058:	008b0793          	addi	a5,s6,8
   1a05c:	00f12a23          	sw	a5,20(sp)
   1a060:	001a7793          	andi	a5,s4,1
   1a064:	00078e63          	beqz	a5,1a080 <_svfprintf_r+0x15a8>
   1a068:	019967b3          	or	a5,s2,s9
   1a06c:	00078a63          	beqz	a5,1a080 <_svfprintf_r+0x15a8>
   1a070:	03000793          	li	a5,48
   1a074:	0cf10423          	sb	a5,200(sp)
   1a078:	0c9104a3          	sb	s1,201(sp)
   1a07c:	002a6a13          	ori	s4,s4,2
   1a080:	bffa7b93          	andi	s7,s4,-1025
   1a084:	00200793          	li	a5,2
   1a088:	cecff06f          	j	19574 <_svfprintf_r+0xa9c>
   1a08c:	0e410613          	addi	a2,sp,228
   1a090:	000c0593          	mv	a1,s8
   1a094:	000d0513          	mv	a0,s10
   1a098:	771030ef          	jal	ra,1e008 <__ssprint_r>
   1a09c:	a6051ee3          	bnez	a0,19b18 <_svfprintf_r+0x1040>
   1a0a0:	0ec12783          	lw	a5,236(sp)
   1a0a4:	10c10893          	addi	a7,sp,268
   1a0a8:	871ff06f          	j	19918 <_svfprintf_r+0xe40>
   1a0ac:	000247b7          	lui	a5,0x24
   1a0b0:	77878793          	addi	a5,a5,1912 # 24778 <__clzsi2+0x7c>
   1a0b4:	000c8893          	mv	a7,s9
   1a0b8:	02f12a23          	sw	a5,52(sp)
   1a0bc:	f81ff06f          	j	1a03c <_svfprintf_r+0x1564>
   1a0c0:	000c8893          	mv	a7,s9
   1a0c4:	d0cff06f          	j	195d0 <_svfprintf_r+0xaf8>
   1a0c8:	00144483          	lbu	s1,1(s0)
   1a0cc:	020a6a13          	ori	s4,s4,32
   1a0d0:	00140413          	addi	s0,s0,1
   1a0d4:	b69fe06f          	j	18c3c <_svfprintf_r+0x164>
   1a0d8:	00144483          	lbu	s1,1(s0)
   1a0dc:	200a6a13          	ori	s4,s4,512
   1a0e0:	00140413          	addi	s0,s0,1
   1a0e4:	b59fe06f          	j	18c3c <_svfprintf_r+0x164>
   1a0e8:	04000593          	li	a1,64
   1a0ec:	000d0513          	mv	a0,s10
   1a0f0:	b35fc0ef          	jal	ra,16c24 <_malloc_r>
   1a0f4:	00ac2023          	sw	a0,0(s8)
   1a0f8:	00ac2823          	sw	a0,16(s8)
   1a0fc:	00051463          	bnez	a0,1a104 <_svfprintf_r+0x162c>
   1a100:	3d40106f          	j	1b4d4 <_svfprintf_r+0x29fc>
   1a104:	04000713          	li	a4,64
   1a108:	00ec2a23          	sw	a4,20(s8)
   1a10c:	a55fe06f          	j	18b60 <_svfprintf_r+0x88>
   1a110:	00600793          	li	a5,6
   1a114:	000d8c93          	mv	s9,s11
   1a118:	79b7ee63          	bltu	a5,s11,1a8b4 <_svfprintf_r+0x1ddc>
   1a11c:	00024737          	lui	a4,0x24
   1a120:	000c8a93          	mv	s5,s9
   1a124:	01212a23          	sw	s2,20(sp)
   1a128:	78c70b13          	addi	s6,a4,1932 # 2478c <__clzsi2+0x90>
   1a12c:	b7dfe06f          	j	18ca8 <_svfprintf_r+0x1d0>
   1a130:	01000613          	li	a2,16
   1a134:	0e812683          	lw	a3,232(sp)
   1a138:	6a965863          	bge	a2,s1,1a7e8 <_svfprintf_r+0x1d10>
   1a13c:	01000c93          	li	s9,16
   1a140:	00700d93          	li	s11,7
   1a144:	00c0006f          	j	1a150 <_svfprintf_r+0x1678>
   1a148:	ff048493          	addi	s1,s1,-16
   1a14c:	689cde63          	bge	s9,s1,1a7e8 <_svfprintf_r+0x1d10>
   1a150:	00812703          	lw	a4,8(sp)
   1a154:	01078793          	addi	a5,a5,16
   1a158:	00168693          	addi	a3,a3,1
   1a15c:	00e8a023          	sw	a4,0(a7)
   1a160:	0198a223          	sw	s9,4(a7)
   1a164:	0ef12623          	sw	a5,236(sp)
   1a168:	0ed12423          	sw	a3,232(sp)
   1a16c:	00888893          	addi	a7,a7,8
   1a170:	fcdddce3          	bge	s11,a3,1a148 <_svfprintf_r+0x1670>
   1a174:	0e410613          	addi	a2,sp,228
   1a178:	000c0593          	mv	a1,s8
   1a17c:	000d0513          	mv	a0,s10
   1a180:	689030ef          	jal	ra,1e008 <__ssprint_r>
   1a184:	98051ae3          	bnez	a0,19b18 <_svfprintf_r+0x1040>
   1a188:	0ec12783          	lw	a5,236(sp)
   1a18c:	0e812683          	lw	a3,232(sp)
   1a190:	10c10893          	addi	a7,sp,268
   1a194:	fb5ff06f          	j	1a148 <_svfprintf_r+0x1670>
   1a198:	02012703          	lw	a4,32(sp)
   1a19c:	02412c83          	lw	s9,36(sp)
   1a1a0:	01412e23          	sw	s4,28(sp)
   1a1a4:	04812023          	sw	s0,64(sp)
   1a1a8:	05312223          	sw	s3,68(sp)
   1a1ac:	03512223          	sw	s5,36(sp)
   1a1b0:	02812983          	lw	s3,40(sp)
   1a1b4:	03612423          	sw	s6,40(sp)
   1a1b8:	00eb0bb3          	add	s7,s6,a4
   1a1bc:	03c12403          	lw	s0,60(sp)
   1a1c0:	04812a03          	lw	s4,72(sp)
   1a1c4:	04c12a83          	lw	s5,76(sp)
   1a1c8:	00700493          	li	s1,7
   1a1cc:	01000913          	li	s2,16
   1a1d0:	000c0b13          	mv	s6,s8
   1a1d4:	080c8863          	beqz	s9,1a264 <_svfprintf_r+0x178c>
   1a1d8:	08099863          	bnez	s3,1a268 <_svfprintf_r+0x1790>
   1a1dc:	fff40413          	addi	s0,s0,-1
   1a1e0:	fffc8c93          	addi	s9,s9,-1
   1a1e4:	0e812703          	lw	a4,232(sp)
   1a1e8:	014787b3          	add	a5,a5,s4
   1a1ec:	0158a023          	sw	s5,0(a7)
   1a1f0:	00170713          	addi	a4,a4,1
   1a1f4:	0148a223          	sw	s4,4(a7)
   1a1f8:	0ef12623          	sw	a5,236(sp)
   1a1fc:	0ee12423          	sw	a4,232(sp)
   1a200:	00888893          	addi	a7,a7,8
   1a204:	14e4c463          	blt	s1,a4,1a34c <_svfprintf_r+0x1874>
   1a208:	00044683          	lbu	a3,0(s0)
   1a20c:	41bb8633          	sub	a2,s7,s11
   1a210:	00068c13          	mv	s8,a3
   1a214:	00d65463          	bge	a2,a3,1a21c <_svfprintf_r+0x1744>
   1a218:	00060c13          	mv	s8,a2
   1a21c:	03805663          	blez	s8,1a248 <_svfprintf_r+0x1770>
   1a220:	0e812683          	lw	a3,232(sp)
   1a224:	018787b3          	add	a5,a5,s8
   1a228:	01b8a023          	sw	s11,0(a7)
   1a22c:	00168693          	addi	a3,a3,1
   1a230:	0188a223          	sw	s8,4(a7)
   1a234:	0ef12623          	sw	a5,236(sp)
   1a238:	0ed12423          	sw	a3,232(sp)
   1a23c:	34d4c063          	blt	s1,a3,1a57c <_svfprintf_r+0x1aa4>
   1a240:	00044683          	lbu	a3,0(s0)
   1a244:	00888893          	addi	a7,a7,8
   1a248:	fffc4613          	not	a2,s8
   1a24c:	41f65613          	srai	a2,a2,0x1f
   1a250:	00cc7733          	and	a4,s8,a2
   1a254:	40e68c33          	sub	s8,a3,a4
   1a258:	01804c63          	bgtz	s8,1a270 <_svfprintf_r+0x1798>
   1a25c:	00dd8db3          	add	s11,s11,a3
   1a260:	f60c9ce3          	bnez	s9,1a1d8 <_svfprintf_r+0x1700>
   1a264:	72098c63          	beqz	s3,1a99c <_svfprintf_r+0x1ec4>
   1a268:	fff98993          	addi	s3,s3,-1
   1a26c:	f79ff06f          	j	1a1e4 <_svfprintf_r+0x170c>
   1a270:	0e812683          	lw	a3,232(sp)
   1a274:	01894863          	blt	s2,s8,1a284 <_svfprintf_r+0x17ac>
   1a278:	0580006f          	j	1a2d0 <_svfprintf_r+0x17f8>
   1a27c:	ff0c0c13          	addi	s8,s8,-16
   1a280:	05895863          	bge	s2,s8,1a2d0 <_svfprintf_r+0x17f8>
   1a284:	00812703          	lw	a4,8(sp)
   1a288:	01078793          	addi	a5,a5,16
   1a28c:	00168693          	addi	a3,a3,1
   1a290:	00e8a023          	sw	a4,0(a7)
   1a294:	0128a223          	sw	s2,4(a7)
   1a298:	0ef12623          	sw	a5,236(sp)
   1a29c:	0ed12423          	sw	a3,232(sp)
   1a2a0:	00888893          	addi	a7,a7,8
   1a2a4:	fcd4dce3          	bge	s1,a3,1a27c <_svfprintf_r+0x17a4>
   1a2a8:	0e410613          	addi	a2,sp,228
   1a2ac:	000b0593          	mv	a1,s6
   1a2b0:	000d0513          	mv	a0,s10
   1a2b4:	555030ef          	jal	ra,1e008 <__ssprint_r>
   1a2b8:	5a051c63          	bnez	a0,1a870 <_svfprintf_r+0x1d98>
   1a2bc:	ff0c0c13          	addi	s8,s8,-16
   1a2c0:	0ec12783          	lw	a5,236(sp)
   1a2c4:	0e812683          	lw	a3,232(sp)
   1a2c8:	10c10893          	addi	a7,sp,268
   1a2cc:	fb894ce3          	blt	s2,s8,1a284 <_svfprintf_r+0x17ac>
   1a2d0:	00812703          	lw	a4,8(sp)
   1a2d4:	018787b3          	add	a5,a5,s8
   1a2d8:	00168693          	addi	a3,a3,1
   1a2dc:	00e8a023          	sw	a4,0(a7)
   1a2e0:	0188a223          	sw	s8,4(a7)
   1a2e4:	0ef12623          	sw	a5,236(sp)
   1a2e8:	0ed12423          	sw	a3,232(sp)
   1a2ec:	76d4c463          	blt	s1,a3,1aa54 <_svfprintf_r+0x1f7c>
   1a2f0:	00044683          	lbu	a3,0(s0)
   1a2f4:	00888893          	addi	a7,a7,8
   1a2f8:	00dd8db3          	add	s11,s11,a3
   1a2fc:	f65ff06f          	j	1a260 <_svfprintf_r+0x1788>
   1a300:	01412683          	lw	a3,20(sp)
   1a304:	010a7793          	andi	a5,s4,16
   1a308:	00468713          	addi	a4,a3,4
   1a30c:	20078463          	beqz	a5,1a514 <_svfprintf_r+0x1a3c>
   1a310:	0006a903          	lw	s2,0(a3)
   1a314:	00000c93          	li	s9,0
   1a318:	00e12a23          	sw	a4,20(sp)
   1a31c:	d45ff06f          	j	1a060 <_svfprintf_r+0x1588>
   1a320:	0e410613          	addi	a2,sp,228
   1a324:	000c0593          	mv	a1,s8
   1a328:	000d0513          	mv	a0,s10
   1a32c:	4dd030ef          	jal	ra,1e008 <__ssprint_r>
   1a330:	fe051463          	bnez	a0,19b18 <_svfprintf_r+0x1040>
   1a334:	0e812683          	lw	a3,232(sp)
   1a338:	0ec12c83          	lw	s9,236(sp)
   1a33c:	11410893          	addi	a7,sp,276
   1a340:	00168693          	addi	a3,a3,1
   1a344:	10c10913          	addi	s2,sp,268
   1a348:	fd5fe06f          	j	1931c <_svfprintf_r+0x844>
   1a34c:	0e410613          	addi	a2,sp,228
   1a350:	000b0593          	mv	a1,s6
   1a354:	000d0513          	mv	a0,s10
   1a358:	4b1030ef          	jal	ra,1e008 <__ssprint_r>
   1a35c:	50051a63          	bnez	a0,1a870 <_svfprintf_r+0x1d98>
   1a360:	0ec12783          	lw	a5,236(sp)
   1a364:	10c10893          	addi	a7,sp,268
   1a368:	ea1ff06f          	j	1a208 <_svfprintf_r+0x1730>
   1a36c:	1b010b13          	addi	s6,sp,432
   1a370:	00000793          	li	a5,0
   1a374:	00812823          	sw	s0,16(sp)
   1a378:	00912e23          	sw	s1,28(sp)
   1a37c:	000b0413          	mv	s0,s6
   1a380:	03312223          	sw	s3,36(sp)
   1a384:	000c0b13          	mv	s6,s8
   1a388:	00090493          	mv	s1,s2
   1a38c:	000c8993          	mv	s3,s9
   1a390:	400bfa13          	andi	s4,s7,1024
   1a394:	03c12c83          	lw	s9,60(sp)
   1a398:	0ff00a93          	li	s5,255
   1a39c:	00088c13          	mv	s8,a7
   1a3a0:	00078913          	mv	s2,a5
   1a3a4:	0240006f          	j	1a3c8 <_svfprintf_r+0x18f0>
   1a3a8:	00a00613          	li	a2,10
   1a3ac:	00000693          	li	a3,0
   1a3b0:	00048513          	mv	a0,s1
   1a3b4:	00098593          	mv	a1,s3
   1a3b8:	51c050ef          	jal	ra,1f8d4 <__udivdi3>
   1a3bc:	4c098063          	beqz	s3,1a87c <_svfprintf_r+0x1da4>
   1a3c0:	00050493          	mv	s1,a0
   1a3c4:	00058993          	mv	s3,a1
   1a3c8:	00a00613          	li	a2,10
   1a3cc:	00000693          	li	a3,0
   1a3d0:	00048513          	mv	a0,s1
   1a3d4:	00098593          	mv	a1,s3
   1a3d8:	2d5050ef          	jal	ra,1feac <__umoddi3>
   1a3dc:	03050513          	addi	a0,a0,48
   1a3e0:	fea40fa3          	sb	a0,-1(s0)
   1a3e4:	00190913          	addi	s2,s2,1
   1a3e8:	fff40413          	addi	s0,s0,-1
   1a3ec:	fa0a0ee3          	beqz	s4,1a3a8 <_svfprintf_r+0x18d0>
   1a3f0:	000cc683          	lbu	a3,0(s9)
   1a3f4:	fad91ae3          	bne	s2,a3,1a3a8 <_svfprintf_r+0x18d0>
   1a3f8:	fb5908e3          	beq	s2,s5,1a3a8 <_svfprintf_r+0x18d0>
   1a3fc:	42099a63          	bnez	s3,1a830 <_svfprintf_r+0x1d58>
   1a400:	00900793          	li	a5,9
   1a404:	4297e663          	bltu	a5,s1,1a830 <_svfprintf_r+0x1d58>
   1a408:	000c0893          	mv	a7,s8
   1a40c:	1b010793          	addi	a5,sp,432
   1a410:	000b0c13          	mv	s8,s6
   1a414:	00040b13          	mv	s6,s0
   1a418:	03912e23          	sw	s9,60(sp)
   1a41c:	01c12483          	lw	s1,28(sp)
   1a420:	02412983          	lw	s3,36(sp)
   1a424:	01012403          	lw	s0,16(sp)
   1a428:	03212023          	sw	s2,32(sp)
   1a42c:	41678cb3          	sub	s9,a5,s6
   1a430:	000b8a13          	mv	s4,s7
   1a434:	96cff06f          	j	195a0 <_svfprintf_r+0xac8>
   1a438:	0e812683          	lw	a3,232(sp)
   1a43c:	00024637          	lui	a2,0x24
   1a440:	79460613          	addi	a2,a2,1940 # 24794 <__clzsi2+0x98>
   1a444:	00c8a023          	sw	a2,0(a7)
   1a448:	00178793          	addi	a5,a5,1
   1a44c:	00100613          	li	a2,1
   1a450:	00168693          	addi	a3,a3,1
   1a454:	00c8a223          	sw	a2,4(a7)
   1a458:	0ef12623          	sw	a5,236(sp)
   1a45c:	0ed12423          	sw	a3,232(sp)
   1a460:	00700613          	li	a2,7
   1a464:	00888893          	addi	a7,a7,8
   1a468:	06d64c63          	blt	a2,a3,1a4e0 <_svfprintf_r+0x1a08>
   1a46c:	20059863          	bnez	a1,1a67c <_svfprintf_r+0x1ba4>
   1a470:	02012703          	lw	a4,32(sp)
   1a474:	001a7693          	andi	a3,s4,1
   1a478:	00e6e6b3          	or	a3,a3,a4
   1a47c:	00069463          	bnez	a3,1a484 <_svfprintf_r+0x19ac>
   1a480:	909fe06f          	j	18d88 <_svfprintf_r+0x2b0>
   1a484:	03012683          	lw	a3,48(sp)
   1a488:	02c12703          	lw	a4,44(sp)
   1a48c:	00700613          	li	a2,7
   1a490:	00d8a023          	sw	a3,0(a7)
   1a494:	0e812683          	lw	a3,232(sp)
   1a498:	00e787b3          	add	a5,a5,a4
   1a49c:	00e8a223          	sw	a4,4(a7)
   1a4a0:	00168693          	addi	a3,a3,1
   1a4a4:	0ef12623          	sw	a5,236(sp)
   1a4a8:	0ed12423          	sw	a3,232(sp)
   1a4ac:	4ad64e63          	blt	a2,a3,1a968 <_svfprintf_r+0x1e90>
   1a4b0:	00888893          	addi	a7,a7,8
   1a4b4:	02012703          	lw	a4,32(sp)
   1a4b8:	00168693          	addi	a3,a3,1
   1a4bc:	0168a023          	sw	s6,0(a7)
   1a4c0:	00e787b3          	add	a5,a5,a4
   1a4c4:	00e8a223          	sw	a4,4(a7)
   1a4c8:	0ef12623          	sw	a5,236(sp)
   1a4cc:	0ed12423          	sw	a3,232(sp)
   1a4d0:	00700713          	li	a4,7
   1a4d4:	00d74463          	blt	a4,a3,1a4dc <_svfprintf_r+0x1a04>
   1a4d8:	8adfe06f          	j	18d84 <_svfprintf_r+0x2ac>
   1a4dc:	e65fe06f          	j	19340 <_svfprintf_r+0x868>
   1a4e0:	0e410613          	addi	a2,sp,228
   1a4e4:	000c0593          	mv	a1,s8
   1a4e8:	000d0513          	mv	a0,s10
   1a4ec:	31d030ef          	jal	ra,1e008 <__ssprint_r>
   1a4f0:	e2051463          	bnez	a0,19b18 <_svfprintf_r+0x1040>
   1a4f4:	0cc12583          	lw	a1,204(sp)
   1a4f8:	0ec12783          	lw	a5,236(sp)
   1a4fc:	10c10893          	addi	a7,sp,268
   1a500:	f6dff06f          	j	1a46c <_svfprintf_r+0x1994>
   1a504:	01012b83          	lw	s7,16(sp)
   1a508:	00040d13          	mv	s10,s0
   1a50c:	00048c13          	mv	s8,s1
   1a510:	e0cff06f          	j	19b1c <_svfprintf_r+0x1044>
   1a514:	040a7793          	andi	a5,s4,64
   1a518:	22078c63          	beqz	a5,1a750 <_svfprintf_r+0x1c78>
   1a51c:	01412783          	lw	a5,20(sp)
   1a520:	00000c93          	li	s9,0
   1a524:	00e12a23          	sw	a4,20(sp)
   1a528:	0007d903          	lhu	s2,0(a5)
   1a52c:	b35ff06f          	j	1a060 <_svfprintf_r+0x1588>
   1a530:	0e410613          	addi	a2,sp,228
   1a534:	000c0593          	mv	a1,s8
   1a538:	000d0513          	mv	a0,s10
   1a53c:	2cd030ef          	jal	ra,1e008 <__ssprint_r>
   1a540:	dc051c63          	bnez	a0,19b18 <_svfprintf_r+0x1040>
   1a544:	0ec12783          	lw	a5,236(sp)
   1a548:	10c10893          	addi	a7,sp,268
   1a54c:	b90ff06f          	j	198dc <_svfprintf_r+0xe04>
   1a550:	00812683          	lw	a3,8(sp)
   1a554:	009787b3          	add	a5,a5,s1
   1a558:	0098a223          	sw	s1,4(a7)
   1a55c:	00d8a023          	sw	a3,0(a7)
   1a560:	00170713          	addi	a4,a4,1
   1a564:	0ef12623          	sw	a5,236(sp)
   1a568:	0ee12423          	sw	a4,232(sp)
   1a56c:	00700693          	li	a3,7
   1a570:	00e6c463          	blt	a3,a4,1a578 <_svfprintf_r+0x1aa0>
   1a574:	811fe06f          	j	18d84 <_svfprintf_r+0x2ac>
   1a578:	dc9fe06f          	j	19340 <_svfprintf_r+0x868>
   1a57c:	0e410613          	addi	a2,sp,228
   1a580:	000b0593          	mv	a1,s6
   1a584:	000d0513          	mv	a0,s10
   1a588:	281030ef          	jal	ra,1e008 <__ssprint_r>
   1a58c:	2e051263          	bnez	a0,1a870 <_svfprintf_r+0x1d98>
   1a590:	00044683          	lbu	a3,0(s0)
   1a594:	0ec12783          	lw	a5,236(sp)
   1a598:	10c10893          	addi	a7,sp,268
   1a59c:	cadff06f          	j	1a248 <_svfprintf_r+0x1770>
   1a5a0:	0f012783          	lw	a5,240(sp)
   1a5a4:	0a010593          	addi	a1,sp,160
   1a5a8:	0b010513          	addi	a0,sp,176
   1a5ac:	0af12823          	sw	a5,176(sp)
   1a5b0:	0f412783          	lw	a5,244(sp)
   1a5b4:	0a012023          	sw	zero,160(sp)
   1a5b8:	0a012223          	sw	zero,164(sp)
   1a5bc:	0af12a23          	sw	a5,180(sp)
   1a5c0:	0f812783          	lw	a5,248(sp)
   1a5c4:	0a012423          	sw	zero,168(sp)
   1a5c8:	0a012623          	sw	zero,172(sp)
   1a5cc:	0af12c23          	sw	a5,184(sp)
   1a5d0:	0fc12783          	lw	a5,252(sp)
   1a5d4:	0af12e23          	sw	a5,188(sp)
   1a5d8:	62d060ef          	jal	ra,21404 <__letf2>
   1a5dc:	01012883          	lw	a7,16(sp)
   1a5e0:	52054263          	bltz	a0,1ab04 <_svfprintf_r+0x202c>
   1a5e4:	0c714783          	lbu	a5,199(sp)
   1a5e8:	04700713          	li	a4,71
   1a5ec:	28975e63          	bge	a4,s1,1a888 <_svfprintf_r+0x1db0>
   1a5f0:	00024737          	lui	a4,0x24
   1a5f4:	75870b13          	addi	s6,a4,1880 # 24758 <__clzsi2+0x5c>
   1a5f8:	00012823          	sw	zero,16(sp)
   1a5fc:	02012423          	sw	zero,40(sp)
   1a600:	02012223          	sw	zero,36(sp)
   1a604:	00012e23          	sw	zero,28(sp)
   1a608:	f7fa7a13          	andi	s4,s4,-129
   1a60c:	00300a93          	li	s5,3
   1a610:	00300c93          	li	s9,3
   1a614:	00000d93          	li	s11,0
   1a618:	00078463          	beqz	a5,1a620 <_svfprintf_r+0x1b48>
   1a61c:	e79fe06f          	j	19494 <_svfprintf_r+0x9bc>
   1a620:	e9cfe06f          	j	18cbc <_svfprintf_r+0x1e4>
   1a624:	00c12783          	lw	a5,12(sp)
   1a628:	00040b13          	mv	s6,s0
   1a62c:	00f72023          	sw	a5,0(a4)
   1a630:	fa0fe06f          	j	18dd0 <_svfprintf_r+0x2f8>
   1a634:	000b0513          	mv	a0,s6
   1a638:	05912023          	sw	s9,64(sp)
   1a63c:	b68fe0ef          	jal	ra,189a4 <strlen>
   1a640:	0c714783          	lbu	a5,199(sp)
   1a644:	fff54a93          	not	s5,a0
   1a648:	41fada93          	srai	s5,s5,0x1f
   1a64c:	01212a23          	sw	s2,20(sp)
   1a650:	00012823          	sw	zero,16(sp)
   1a654:	02012423          	sw	zero,40(sp)
   1a658:	02012223          	sw	zero,36(sp)
   1a65c:	00012e23          	sw	zero,28(sp)
   1a660:	04012883          	lw	a7,64(sp)
   1a664:	00050c93          	mv	s9,a0
   1a668:	01557ab3          	and	s5,a0,s5
   1a66c:	00000d93          	li	s11,0
   1a670:	00078463          	beqz	a5,1a678 <_svfprintf_r+0x1ba0>
   1a674:	e21fe06f          	j	19494 <_svfprintf_r+0x9bc>
   1a678:	e44fe06f          	j	18cbc <_svfprintf_r+0x1e4>
   1a67c:	03012683          	lw	a3,48(sp)
   1a680:	02c12703          	lw	a4,44(sp)
   1a684:	00700613          	li	a2,7
   1a688:	00d8a023          	sw	a3,0(a7)
   1a68c:	0e812683          	lw	a3,232(sp)
   1a690:	00e787b3          	add	a5,a5,a4
   1a694:	00e8a223          	sw	a4,4(a7)
   1a698:	00168693          	addi	a3,a3,1
   1a69c:	0ef12623          	sw	a5,236(sp)
   1a6a0:	0ed12423          	sw	a3,232(sp)
   1a6a4:	00888893          	addi	a7,a7,8
   1a6a8:	2cd64063          	blt	a2,a3,1a968 <_svfprintf_r+0x1e90>
   1a6ac:	e005d4e3          	bgez	a1,1a4b4 <_svfprintf_r+0x19dc>
   1a6b0:	ff000613          	li	a2,-16
   1a6b4:	40b004b3          	neg	s1,a1
   1a6b8:	26c5d4e3          	bge	a1,a2,1b120 <_svfprintf_r+0x2648>
   1a6bc:	01000913          	li	s2,16
   1a6c0:	00700c93          	li	s9,7
   1a6c4:	00c0006f          	j	1a6d0 <_svfprintf_r+0x1bf8>
   1a6c8:	ff048493          	addi	s1,s1,-16
   1a6cc:	24995ae3          	bge	s2,s1,1b120 <_svfprintf_r+0x2648>
   1a6d0:	00812703          	lw	a4,8(sp)
   1a6d4:	01078793          	addi	a5,a5,16
   1a6d8:	00168693          	addi	a3,a3,1
   1a6dc:	00e8a023          	sw	a4,0(a7)
   1a6e0:	0128a223          	sw	s2,4(a7)
   1a6e4:	0ef12623          	sw	a5,236(sp)
   1a6e8:	0ed12423          	sw	a3,232(sp)
   1a6ec:	00888893          	addi	a7,a7,8
   1a6f0:	fcdcdce3          	bge	s9,a3,1a6c8 <_svfprintf_r+0x1bf0>
   1a6f4:	0e410613          	addi	a2,sp,228
   1a6f8:	000c0593          	mv	a1,s8
   1a6fc:	000d0513          	mv	a0,s10
   1a700:	109030ef          	jal	ra,1e008 <__ssprint_r>
   1a704:	c0051a63          	bnez	a0,19b18 <_svfprintf_r+0x1040>
   1a708:	0ec12783          	lw	a5,236(sp)
   1a70c:	0e812683          	lw	a3,232(sp)
   1a710:	10c10893          	addi	a7,sp,268
   1a714:	fb5ff06f          	j	1a6c8 <_svfprintf_r+0x1bf0>
   1a718:	00148693          	addi	a3,s1,1
   1a71c:	00890713          	addi	a4,s2,8
   1a720:	00812783          	lw	a5,8(sp)
   1a724:	01bc8cb3          	add	s9,s9,s11
   1a728:	01b92223          	sw	s11,4(s2)
   1a72c:	00f92023          	sw	a5,0(s2)
   1a730:	0f912623          	sw	s9,236(sp)
   1a734:	0ed12423          	sw	a3,232(sp)
   1a738:	00700793          	li	a5,7
   1a73c:	bed7c2e3          	blt	a5,a3,1a320 <_svfprintf_r+0x1848>
   1a740:	00168693          	addi	a3,a3,1
   1a744:	00870893          	addi	a7,a4,8
   1a748:	00070913          	mv	s2,a4
   1a74c:	bd1fe06f          	j	1931c <_svfprintf_r+0x844>
   1a750:	200a7793          	andi	a5,s4,512
   1a754:	1c078e63          	beqz	a5,1a930 <_svfprintf_r+0x1e58>
   1a758:	01412783          	lw	a5,20(sp)
   1a75c:	00000c93          	li	s9,0
   1a760:	00e12a23          	sw	a4,20(sp)
   1a764:	0007c903          	lbu	s2,0(a5)
   1a768:	8f9ff06f          	j	1a060 <_svfprintf_r+0x1588>
   1a76c:	200a7793          	andi	a5,s4,512
   1a770:	1a078463          	beqz	a5,1a918 <_svfprintf_r+0x1e40>
   1a774:	01412783          	lw	a5,20(sp)
   1a778:	00e12a23          	sw	a4,20(sp)
   1a77c:	00078903          	lb	s2,0(a5)
   1a780:	41f95c93          	srai	s9,s2,0x1f
   1a784:	000c8793          	mv	a5,s9
   1a788:	fa5fe06f          	j	1972c <_svfprintf_r+0xc54>
   1a78c:	200bf793          	andi	a5,s7,512
   1a790:	16078863          	beqz	a5,1a900 <_svfprintf_r+0x1e28>
   1a794:	01412783          	lw	a5,20(sp)
   1a798:	00000c93          	li	s9,0
   1a79c:	00e12a23          	sw	a4,20(sp)
   1a7a0:	0007c903          	lbu	s2,0(a5)
   1a7a4:	00100793          	li	a5,1
   1a7a8:	dcdfe06f          	j	19574 <_svfprintf_r+0xa9c>
   1a7ac:	200a7793          	andi	a5,s4,512
   1a7b0:	12078e63          	beqz	a5,1a8ec <_svfprintf_r+0x1e14>
   1a7b4:	01412783          	lw	a5,20(sp)
   1a7b8:	00000c93          	li	s9,0
   1a7bc:	00e12a23          	sw	a4,20(sp)
   1a7c0:	0007c903          	lbu	s2,0(a5)
   1a7c4:	e31fe06f          	j	195f4 <_svfprintf_r+0xb1c>
   1a7c8:	0fc12783          	lw	a5,252(sp)
   1a7cc:	1807c863          	bltz	a5,1a95c <_svfprintf_r+0x1e84>
   1a7d0:	0c714783          	lbu	a5,199(sp)
   1a7d4:	04700713          	li	a4,71
   1a7d8:	46975c63          	bge	a4,s1,1ac50 <_svfprintf_r+0x2178>
   1a7dc:	00024737          	lui	a4,0x24
   1a7e0:	76070b13          	addi	s6,a4,1888 # 24760 <__clzsi2+0x64>
   1a7e4:	e15ff06f          	j	1a5f8 <_svfprintf_r+0x1b20>
   1a7e8:	00812703          	lw	a4,8(sp)
   1a7ec:	009787b3          	add	a5,a5,s1
   1a7f0:	00168693          	addi	a3,a3,1
   1a7f4:	00e8a023          	sw	a4,0(a7)
   1a7f8:	0098a223          	sw	s1,4(a7)
   1a7fc:	0ef12623          	sw	a5,236(sp)
   1a800:	0ed12423          	sw	a3,232(sp)
   1a804:	00700613          	li	a2,7
   1a808:	00888893          	addi	a7,a7,8
   1a80c:	c8d65663          	bge	a2,a3,19c98 <_svfprintf_r+0x11c0>
   1a810:	0e410613          	addi	a2,sp,228
   1a814:	000c0593          	mv	a1,s8
   1a818:	000d0513          	mv	a0,s10
   1a81c:	7ec030ef          	jal	ra,1e008 <__ssprint_r>
   1a820:	ae051c63          	bnez	a0,19b18 <_svfprintf_r+0x1040>
   1a824:	0ec12783          	lw	a5,236(sp)
   1a828:	10c10893          	addi	a7,sp,268
   1a82c:	c6cff06f          	j	19c98 <_svfprintf_r+0x11c0>
   1a830:	04812783          	lw	a5,72(sp)
   1a834:	04c12583          	lw	a1,76(sp)
   1a838:	00000913          	li	s2,0
   1a83c:	40f40433          	sub	s0,s0,a5
   1a840:	00078613          	mv	a2,a5
   1a844:	00040513          	mv	a0,s0
   1a848:	9e8fe0ef          	jal	ra,18a30 <strncpy>
   1a84c:	001cc583          	lbu	a1,1(s9)
   1a850:	00a00613          	li	a2,10
   1a854:	00000693          	li	a3,0
   1a858:	00b03833          	snez	a6,a1
   1a85c:	00048513          	mv	a0,s1
   1a860:	00098593          	mv	a1,s3
   1a864:	010c8cb3          	add	s9,s9,a6
   1a868:	06c050ef          	jal	ra,1f8d4 <__udivdi3>
   1a86c:	b55ff06f          	j	1a3c0 <_svfprintf_r+0x18e8>
   1a870:	01012b83          	lw	s7,16(sp)
   1a874:	000b0c13          	mv	s8,s6
   1a878:	aa4ff06f          	j	19b1c <_svfprintf_r+0x1044>
   1a87c:	00900793          	li	a5,9
   1a880:	b497e0e3          	bltu	a5,s1,1a3c0 <_svfprintf_r+0x18e8>
   1a884:	b85ff06f          	j	1a408 <_svfprintf_r+0x1930>
   1a888:	00024737          	lui	a4,0x24
   1a88c:	75470b13          	addi	s6,a4,1876 # 24754 <__clzsi2+0x58>
   1a890:	d69ff06f          	j	1a5f8 <_svfprintf_r+0x1b20>
   1a894:	0e410613          	addi	a2,sp,228
   1a898:	000c0593          	mv	a1,s8
   1a89c:	000d0513          	mv	a0,s10
   1a8a0:	768030ef          	jal	ra,1e008 <__ssprint_r>
   1a8a4:	a6051a63          	bnez	a0,19b18 <_svfprintf_r+0x1040>
   1a8a8:	0ec12783          	lw	a5,236(sp)
   1a8ac:	10c10893          	addi	a7,sp,268
   1a8b0:	bd0ff06f          	j	19c80 <_svfprintf_r+0x11a8>
   1a8b4:	00600c93          	li	s9,6
   1a8b8:	865ff06f          	j	1a11c <_svfprintf_r+0x1644>
   1a8bc:	02012683          	lw	a3,32(sp)
   1a8c0:	00db0733          	add	a4,s6,a3
   1a8c4:	409684b3          	sub	s1,a3,s1
   1a8c8:	41b70833          	sub	a6,a4,s11
   1a8cc:	00048913          	mv	s2,s1
   1a8d0:	c6985263          	bge	a6,s1,19d34 <_svfprintf_r+0x125c>
   1a8d4:	00080913          	mv	s2,a6
   1a8d8:	c5cff06f          	j	19d34 <_svfprintf_r+0x125c>
   1a8dc:	00c12783          	lw	a5,12(sp)
   1a8e0:	00040b13          	mv	s6,s0
   1a8e4:	00f71023          	sh	a5,0(a4)
   1a8e8:	ce8fe06f          	j	18dd0 <_svfprintf_r+0x2f8>
   1a8ec:	01412783          	lw	a5,20(sp)
   1a8f0:	00000c93          	li	s9,0
   1a8f4:	00e12a23          	sw	a4,20(sp)
   1a8f8:	0007a903          	lw	s2,0(a5)
   1a8fc:	cf9fe06f          	j	195f4 <_svfprintf_r+0xb1c>
   1a900:	01412783          	lw	a5,20(sp)
   1a904:	00000c93          	li	s9,0
   1a908:	00e12a23          	sw	a4,20(sp)
   1a90c:	0007a903          	lw	s2,0(a5)
   1a910:	00100793          	li	a5,1
   1a914:	c61fe06f          	j	19574 <_svfprintf_r+0xa9c>
   1a918:	01412783          	lw	a5,20(sp)
   1a91c:	00e12a23          	sw	a4,20(sp)
   1a920:	0007a903          	lw	s2,0(a5)
   1a924:	41f95c93          	srai	s9,s2,0x1f
   1a928:	000c8793          	mv	a5,s9
   1a92c:	e01fe06f          	j	1972c <_svfprintf_r+0xc54>
   1a930:	01412783          	lw	a5,20(sp)
   1a934:	00000c93          	li	s9,0
   1a938:	00e12a23          	sw	a4,20(sp)
   1a93c:	0007a903          	lw	s2,0(a5)
   1a940:	f20ff06f          	j	1a060 <_svfprintf_r+0x1588>
   1a944:	0e410613          	addi	a2,sp,228
   1a948:	000c0593          	mv	a1,s8
   1a94c:	000d0513          	mv	a0,s10
   1a950:	6b8030ef          	jal	ra,1e008 <__ssprint_r>
   1a954:	00cc5703          	lhu	a4,12(s8)
   1a958:	c90fe06f          	j	18de8 <_svfprintf_r+0x310>
   1a95c:	02d00793          	li	a5,45
   1a960:	0cf103a3          	sb	a5,199(sp)
   1a964:	e71ff06f          	j	1a7d4 <_svfprintf_r+0x1cfc>
   1a968:	0e410613          	addi	a2,sp,228
   1a96c:	000c0593          	mv	a1,s8
   1a970:	000d0513          	mv	a0,s10
   1a974:	694030ef          	jal	ra,1e008 <__ssprint_r>
   1a978:	9a051063          	bnez	a0,19b18 <_svfprintf_r+0x1040>
   1a97c:	0cc12583          	lw	a1,204(sp)
   1a980:	0ec12783          	lw	a5,236(sp)
   1a984:	0e812683          	lw	a3,232(sp)
   1a988:	10c10893          	addi	a7,sp,268
   1a98c:	b205d4e3          	bgez	a1,1a4b4 <_svfprintf_r+0x19dc>
   1a990:	d21ff06f          	j	1a6b0 <_svfprintf_r+0x1bd8>
   1a994:	00600d93          	li	s11,6
   1a998:	dd8fe06f          	j	18f70 <_svfprintf_r+0x498>
   1a99c:	02012703          	lw	a4,32(sp)
   1a9a0:	000b0c13          	mv	s8,s6
   1a9a4:	02812b03          	lw	s6,40(sp)
   1a9a8:	02812e23          	sw	s0,60(sp)
   1a9ac:	01c12a03          	lw	s4,28(sp)
   1a9b0:	00eb06b3          	add	a3,s6,a4
   1a9b4:	04012403          	lw	s0,64(sp)
   1a9b8:	04412983          	lw	s3,68(sp)
   1a9bc:	02412a83          	lw	s5,36(sp)
   1a9c0:	afb6f463          	bgeu	a3,s11,19ca8 <_svfprintf_r+0x11d0>
   1a9c4:	00068d93          	mv	s11,a3
   1a9c8:	ae0ff06f          	j	19ca8 <_svfprintf_r+0x11d0>
   1a9cc:	01c12703          	lw	a4,28(sp)
   1a9d0:	ffd00793          	li	a5,-3
   1a9d4:	00f74463          	blt	a4,a5,1a9dc <_svfprintf_r+0x1f04>
   1a9d8:	00edda63          	bge	s11,a4,1a9ec <_svfprintf_r+0x1f14>
   1a9dc:	ffe48493          	addi	s1,s1,-2
   1a9e0:	fdf4f793          	andi	a5,s1,-33
   1a9e4:	04f12a23          	sw	a5,84(sp)
   1a9e8:	ec4fe06f          	j	190ac <_svfprintf_r+0x5d4>
   1a9ec:	02012783          	lw	a5,32(sp)
   1a9f0:	01c12703          	lw	a4,28(sp)
   1a9f4:	26f74463          	blt	a4,a5,1ac5c <_svfprintf_r+0x2184>
   1a9f8:	02812783          	lw	a5,40(sp)
   1a9fc:	00070c93          	mv	s9,a4
   1aa00:	0017f793          	andi	a5,a5,1
   1aa04:	00078663          	beqz	a5,1aa10 <_svfprintf_r+0x1f38>
   1aa08:	02c12783          	lw	a5,44(sp)
   1aa0c:	00f70cb3          	add	s9,a4,a5
   1aa10:	02812783          	lw	a5,40(sp)
   1aa14:	4007f793          	andi	a5,a5,1024
   1aa18:	00078663          	beqz	a5,1aa24 <_svfprintf_r+0x1f4c>
   1aa1c:	01c12783          	lw	a5,28(sp)
   1aa20:	12f04ae3          	bgtz	a5,1b354 <_svfprintf_r+0x287c>
   1aa24:	fffcca93          	not	s5,s9
   1aa28:	41fada93          	srai	s5,s5,0x1f
   1aa2c:	015cfab3          	and	s5,s9,s5
   1aa30:	06700493          	li	s1,103
   1aa34:	02012423          	sw	zero,40(sp)
   1aa38:	02012223          	sw	zero,36(sp)
   1aa3c:	facfe06f          	j	191e8 <_svfprintf_r+0x710>
   1aa40:	0c714783          	lbu	a5,199(sp)
   1aa44:	00000d93          	li	s11,0
   1aa48:	00078463          	beqz	a5,1aa50 <_svfprintf_r+0x1f78>
   1aa4c:	a49fe06f          	j	19494 <_svfprintf_r+0x9bc>
   1aa50:	a6cfe06f          	j	18cbc <_svfprintf_r+0x1e4>
   1aa54:	0e410613          	addi	a2,sp,228
   1aa58:	000b0593          	mv	a1,s6
   1aa5c:	000d0513          	mv	a0,s10
   1aa60:	5a8030ef          	jal	ra,1e008 <__ssprint_r>
   1aa64:	e00516e3          	bnez	a0,1a870 <_svfprintf_r+0x1d98>
   1aa68:	00044683          	lbu	a3,0(s0)
   1aa6c:	0ec12783          	lw	a5,236(sp)
   1aa70:	10c10893          	addi	a7,sp,268
   1aa74:	00dd8db3          	add	s11,s11,a3
   1aa78:	fe8ff06f          	j	1a260 <_svfprintf_r+0x1788>
   1aa7c:	0b010a93          	addi	s5,sp,176
   1aa80:	0dc10813          	addi	a6,sp,220
   1aa84:	0d010793          	addi	a5,sp,208
   1aa88:	0cc10713          	addi	a4,sp,204
   1aa8c:	000d8693          	mv	a3,s11
   1aa90:	00300613          	li	a2,3
   1aa94:	000a8593          	mv	a1,s5
   1aa98:	000d0513          	mv	a0,s10
   1aa9c:	05112223          	sw	a7,68(sp)
   1aaa0:	0bc12823          	sw	t3,176(sp)
   1aaa4:	05c12023          	sw	t3,64(sp)
   1aaa8:	0bd12a23          	sw	t4,180(sp)
   1aaac:	03d12223          	sw	t4,36(sp)
   1aab0:	0be12c23          	sw	t5,184(sp)
   1aab4:	03e12023          	sw	t5,32(sp)
   1aab8:	0a612e23          	sw	t1,188(sp)
   1aabc:	00612e23          	sw	t1,28(sp)
   1aac0:	c61fa0ef          	jal	ra,15720 <_ldtoa_r>
   1aac4:	01c12303          	lw	t1,28(sp)
   1aac8:	02012f03          	lw	t5,32(sp)
   1aacc:	02412e83          	lw	t4,36(sp)
   1aad0:	04012e03          	lw	t3,64(sp)
   1aad4:	04412883          	lw	a7,68(sp)
   1aad8:	00050b13          	mv	s6,a0
   1aadc:	04600793          	li	a5,70
   1aae0:	01bb0933          	add	s2,s6,s11
   1aae4:	62fb9a63          	bne	s7,a5,1b118 <_svfprintf_r+0x2640>
   1aae8:	000b4683          	lbu	a3,0(s6)
   1aaec:	03000793          	li	a5,48
   1aaf0:	10f68ae3          	beq	a3,a5,1b404 <_svfprintf_r+0x292c>
   1aaf4:	0a010c93          	addi	s9,sp,160
   1aaf8:	0cc12783          	lw	a5,204(sp)
   1aafc:	00f90933          	add	s2,s2,a5
   1ab00:	d20fe06f          	j	19020 <_svfprintf_r+0x548>
   1ab04:	02d00793          	li	a5,45
   1ab08:	0cf103a3          	sb	a5,199(sp)
   1ab0c:	addff06f          	j	1a5e8 <_svfprintf_r+0x1b10>
   1ab10:	0b010a93          	addi	s5,sp,176
   1ab14:	0d010793          	addi	a5,sp,208
   1ab18:	0dc10813          	addi	a6,sp,220
   1ab1c:	0cc10713          	addi	a4,sp,204
   1ab20:	000d8693          	mv	a3,s11
   1ab24:	00200613          	li	a2,2
   1ab28:	000a8593          	mv	a1,s5
   1ab2c:	000d0513          	mv	a0,s10
   1ab30:	0bc12823          	sw	t3,176(sp)
   1ab34:	05c12023          	sw	t3,64(sp)
   1ab38:	0bd12a23          	sw	t4,180(sp)
   1ab3c:	03d12223          	sw	t4,36(sp)
   1ab40:	0be12c23          	sw	t5,184(sp)
   1ab44:	03e12023          	sw	t5,32(sp)
   1ab48:	0a612e23          	sw	t1,188(sp)
   1ab4c:	00612e23          	sw	t1,28(sp)
   1ab50:	bd1fa0ef          	jal	ra,15720 <_ldtoa_r>
   1ab54:	04700793          	li	a5,71
   1ab58:	01c12303          	lw	t1,28(sp)
   1ab5c:	02012f03          	lw	t5,32(sp)
   1ab60:	02412e83          	lw	t4,36(sp)
   1ab64:	04012e03          	lw	t3,64(sp)
   1ab68:	04412883          	lw	a7,68(sp)
   1ab6c:	00050b13          	mv	s6,a0
   1ab70:	f6fb96e3          	bne	s7,a5,1aadc <_svfprintf_r+0x2004>
   1ab74:	02812783          	lw	a5,40(sp)
   1ab78:	0017f793          	andi	a5,a5,1
   1ab7c:	58079863          	bnez	a5,1b10c <_svfprintf_r+0x2634>
   1ab80:	04700793          	li	a5,71
   1ab84:	0dc12703          	lw	a4,220(sp)
   1ab88:	04f12a23          	sw	a5,84(sp)
   1ab8c:	cf0fe06f          	j	1907c <_svfprintf_r+0x5a4>
   1ab90:	0e410613          	addi	a2,sp,228
   1ab94:	000c0593          	mv	a1,s8
   1ab98:	000d0513          	mv	a0,s10
   1ab9c:	46c030ef          	jal	ra,1e008 <__ssprint_r>
   1aba0:	00050463          	beqz	a0,1aba8 <_svfprintf_r+0x20d0>
   1aba4:	f75fe06f          	j	19b18 <_svfprintf_r+0x1040>
   1aba8:	0cc12483          	lw	s1,204(sp)
   1abac:	0ec12783          	lw	a5,236(sp)
   1abb0:	10c10893          	addi	a7,sp,268
   1abb4:	938ff06f          	j	19cec <_svfprintf_r+0x1214>
   1abb8:	0c714783          	lbu	a5,199(sp)
   1abbc:	01212a23          	sw	s2,20(sp)
   1abc0:	02012423          	sw	zero,40(sp)
   1abc4:	02012223          	sw	zero,36(sp)
   1abc8:	00012e23          	sw	zero,28(sp)
   1abcc:	000d8a93          	mv	s5,s11
   1abd0:	000d8c93          	mv	s9,s11
   1abd4:	00000d93          	li	s11,0
   1abd8:	00078463          	beqz	a5,1abe0 <_svfprintf_r+0x2108>
   1abdc:	8b9fe06f          	j	19494 <_svfprintf_r+0x9bc>
   1abe0:	8dcfe06f          	j	18cbc <_svfprintf_r+0x1e4>
   1abe4:	0e410613          	addi	a2,sp,228
   1abe8:	000c0593          	mv	a1,s8
   1abec:	000d0513          	mv	a0,s10
   1abf0:	418030ef          	jal	ra,1e008 <__ssprint_r>
   1abf4:	00050463          	beqz	a0,1abfc <_svfprintf_r+0x2124>
   1abf8:	f21fe06f          	j	19b18 <_svfprintf_r+0x1040>
   1abfc:	0cc12483          	lw	s1,204(sp)
   1ac00:	02012703          	lw	a4,32(sp)
   1ac04:	0ec12783          	lw	a5,236(sp)
   1ac08:	10c10893          	addi	a7,sp,268
   1ac0c:	409704b3          	sub	s1,a4,s1
   1ac10:	924ff06f          	j	19d34 <_svfprintf_r+0x125c>
   1ac14:	02812783          	lw	a5,40(sp)
   1ac18:	01c12703          	lw	a4,28(sp)
   1ac1c:	0017f793          	andi	a5,a5,1
   1ac20:	01b7e7b3          	or	a5,a5,s11
   1ac24:	04e058e3          	blez	a4,1b474 <_svfprintf_r+0x299c>
   1ac28:	7a079a63          	bnez	a5,1b3dc <_svfprintf_r+0x2904>
   1ac2c:	01c12c83          	lw	s9,28(sp)
   1ac30:	06600493          	li	s1,102
   1ac34:	02812783          	lw	a5,40(sp)
   1ac38:	4007f793          	andi	a5,a5,1024
   1ac3c:	70079e63          	bnez	a5,1b358 <_svfprintf_r+0x2880>
   1ac40:	fffcca93          	not	s5,s9
   1ac44:	41fada93          	srai	s5,s5,0x1f
   1ac48:	015cfab3          	and	s5,s9,s5
   1ac4c:	de9ff06f          	j	1aa34 <_svfprintf_r+0x1f5c>
   1ac50:	00024737          	lui	a4,0x24
   1ac54:	75c70b13          	addi	s6,a4,1884 # 2475c <__clzsi2+0x60>
   1ac58:	9a1ff06f          	j	1a5f8 <_svfprintf_r+0x1b20>
   1ac5c:	02012783          	lw	a5,32(sp)
   1ac60:	02c12703          	lw	a4,44(sp)
   1ac64:	06700493          	li	s1,103
   1ac68:	00e78cb3          	add	s9,a5,a4
   1ac6c:	01c12783          	lw	a5,28(sp)
   1ac70:	fcf042e3          	bgtz	a5,1ac34 <_svfprintf_r+0x215c>
   1ac74:	40fc8cb3          	sub	s9,s9,a5
   1ac78:	001c8c93          	addi	s9,s9,1
   1ac7c:	fffcca93          	not	s5,s9
   1ac80:	41fada93          	srai	s5,s5,0x1f
   1ac84:	015cfab3          	and	s5,s9,s5
   1ac88:	dadff06f          	j	1aa34 <_svfprintf_r+0x1f5c>
   1ac8c:	000256b7          	lui	a3,0x25
   1ac90:	e3468e93          	addi	t4,a3,-460 # 24e34 <blanks.4468>
   1ac94:	f48fe06f          	j	193dc <_svfprintf_r+0x904>
   1ac98:	03000793          	li	a5,48
   1ac9c:	0cf10423          	sb	a5,200(sp)
   1aca0:	05800793          	li	a5,88
   1aca4:	002a6713          	ori	a4,s4,2
   1aca8:	0cf104a3          	sb	a5,201(sp)
   1acac:	02e12423          	sw	a4,40(sp)
   1acb0:	06300793          	li	a5,99
   1acb4:	00012823          	sw	zero,16(sp)
   1acb8:	14c10b13          	addi	s6,sp,332
   1acbc:	41b7ce63          	blt	a5,s11,1b0d8 <_svfprintf_r+0x2600>
   1acc0:	0fc12303          	lw	t1,252(sp)
   1acc4:	fdf4fb93          	andi	s7,s1,-33
   1acc8:	05712a23          	sw	s7,84(sp)
   1accc:	04012c23          	sw	zero,88(sp)
   1acd0:	0f012e03          	lw	t3,240(sp)
   1acd4:	0f412e83          	lw	t4,244(sp)
   1acd8:	0f812f03          	lw	t5,248(sp)
   1acdc:	102a6a13          	ori	s4,s4,258
   1ace0:	38034263          	bltz	t1,1b064 <_svfprintf_r+0x258c>
   1ace4:	06100793          	li	a5,97
   1ace8:	54f48e63          	beq	s1,a5,1b244 <_svfprintf_r+0x276c>
   1acec:	04100793          	li	a5,65
   1acf0:	00f48463          	beq	s1,a5,1acf8 <_svfprintf_r+0x2220>
   1acf4:	aa8fe06f          	j	18f9c <_svfprintf_r+0x4c4>
   1acf8:	0b010a93          	addi	s5,sp,176
   1acfc:	000a8513          	mv	a0,s5
   1ad00:	05112823          	sw	a7,80(sp)
   1ad04:	0bc12823          	sw	t3,176(sp)
   1ad08:	0bd12a23          	sw	t4,180(sp)
   1ad0c:	0be12c23          	sw	t5,184(sp)
   1ad10:	0a612e23          	sw	t1,188(sp)
   1ad14:	5c4090ef          	jal	ra,242d8 <__trunctfdf2>
   1ad18:	0cc10613          	addi	a2,sp,204
   1ad1c:	895fd0ef          	jal	ra,185b0 <frexp>
   1ad20:	00058613          	mv	a2,a1
   1ad24:	00050593          	mv	a1,a0
   1ad28:	000a8513          	mv	a0,s5
   1ad2c:	3bc090ef          	jal	ra,240e8 <__extenddftf2>
   1ad30:	0b012783          	lw	a5,176(sp)
   1ad34:	0a010c93          	addi	s9,sp,160
   1ad38:	09010913          	addi	s2,sp,144
   1ad3c:	08f12823          	sw	a5,144(sp)
   1ad40:	0b412783          	lw	a5,180(sp)
   1ad44:	08010613          	addi	a2,sp,128
   1ad48:	00090593          	mv	a1,s2
   1ad4c:	08f12a23          	sw	a5,148(sp)
   1ad50:	0b812783          	lw	a5,184(sp)
   1ad54:	000c8513          	mv	a0,s9
   1ad58:	04c12023          	sw	a2,64(sp)
   1ad5c:	08f12c23          	sw	a5,152(sp)
   1ad60:	0bc12783          	lw	a5,188(sp)
   1ad64:	08012023          	sw	zero,128(sp)
   1ad68:	08012223          	sw	zero,132(sp)
   1ad6c:	08f12e23          	sw	a5,156(sp)
   1ad70:	3ffc07b7          	lui	a5,0x3ffc0
   1ad74:	08f12623          	sw	a5,140(sp)
   1ad78:	08012423          	sw	zero,136(sp)
   1ad7c:	7cc060ef          	jal	ra,21548 <__multf3>
   1ad80:	0a012803          	lw	a6,160(sp)
   1ad84:	0a412e03          	lw	t3,164(sp)
   1ad88:	0a812e83          	lw	t4,168(sp)
   1ad8c:	0ac12f03          	lw	t5,172(sp)
   1ad90:	000c8593          	mv	a1,s9
   1ad94:	000a8513          	mv	a0,s5
   1ad98:	0b012823          	sw	a6,176(sp)
   1ad9c:	05012223          	sw	a6,68(sp)
   1ada0:	0bc12a23          	sw	t3,180(sp)
   1ada4:	03c12223          	sw	t3,36(sp)
   1ada8:	0bd12c23          	sw	t4,184(sp)
   1adac:	03d12023          	sw	t4,32(sp)
   1adb0:	0be12e23          	sw	t5,188(sp)
   1adb4:	01e12e23          	sw	t5,28(sp)
   1adb8:	0a012023          	sw	zero,160(sp)
   1adbc:	0a012223          	sw	zero,164(sp)
   1adc0:	0a012423          	sw	zero,168(sp)
   1adc4:	0a012623          	sw	zero,172(sp)
   1adc8:	42c060ef          	jal	ra,211f4 <__eqtf2>
   1adcc:	01c12f03          	lw	t5,28(sp)
   1add0:	02012e83          	lw	t4,32(sp)
   1add4:	02412e03          	lw	t3,36(sp)
   1add8:	04412803          	lw	a6,68(sp)
   1addc:	05012883          	lw	a7,80(sp)
   1ade0:	00051663          	bnez	a0,1adec <_svfprintf_r+0x2314>
   1ade4:	00100793          	li	a5,1
   1ade8:	0cf12623          	sw	a5,204(sp)
   1adec:	000247b7          	lui	a5,0x24
   1adf0:	77878793          	addi	a5,a5,1912 # 24778 <__clzsi2+0x7c>
   1adf4:	02f12223          	sw	a5,36(sp)
   1adf8:	fffd8693          	addi	a3,s11,-1
   1adfc:	05412e23          	sw	s4,92(sp)
   1ae00:	06912223          	sw	s1,100(sp)
   1ae04:	07b12623          	sw	s11,108(sp)
   1ae08:	07a12a23          	sw	s10,116(sp)
   1ae0c:	07812c23          	sw	s8,120(sp)
   1ae10:	000b0b93          	mv	s7,s6
   1ae14:	06812023          	sw	s0,96(sp)
   1ae18:	07312423          	sw	s3,104(sp)
   1ae1c:	07112823          	sw	a7,112(sp)
   1ae20:	00068c13          	mv	s8,a3
   1ae24:	07612e23          	sw	s6,124(sp)
   1ae28:	00080d13          	mv	s10,a6
   1ae2c:	000e0d93          	mv	s11,t3
   1ae30:	000e8493          	mv	s1,t4
   1ae34:	000f0a13          	mv	s4,t5
   1ae38:	0480006f          	j	1ae80 <_svfprintf_r+0x23a8>
   1ae3c:	000c8593          	mv	a1,s9
   1ae40:	000a8513          	mv	a0,s5
   1ae44:	02c12023          	sw	a2,32(sp)
   1ae48:	01f12e23          	sw	t6,28(sp)
   1ae4c:	0bf12c23          	sw	t6,184(sp)
   1ae50:	0ac12e23          	sw	a2,188(sp)
   1ae54:	0b612823          	sw	s6,176(sp)
   1ae58:	0b312a23          	sw	s3,180(sp)
   1ae5c:	0a012023          	sw	zero,160(sp)
   1ae60:	0a012223          	sw	zero,164(sp)
   1ae64:	0a012423          	sw	zero,168(sp)
   1ae68:	0a012623          	sw	zero,172(sp)
   1ae6c:	388060ef          	jal	ra,211f4 <__eqtf2>
   1ae70:	01c12f83          	lw	t6,28(sp)
   1ae74:	02012603          	lw	a2,32(sp)
   1ae78:	fffc0c13          	addi	s8,s8,-1
   1ae7c:	0e050263          	beqz	a0,1af60 <_svfprintf_r+0x2488>
   1ae80:	400307b7          	lui	a5,0x40030
   1ae84:	00090613          	mv	a2,s2
   1ae88:	000c8593          	mv	a1,s9
   1ae8c:	000a8513          	mv	a0,s5
   1ae90:	08f12e23          	sw	a5,156(sp)
   1ae94:	0ba12023          	sw	s10,160(sp)
   1ae98:	0bb12223          	sw	s11,164(sp)
   1ae9c:	0a912423          	sw	s1,168(sp)
   1aea0:	0b412623          	sw	s4,172(sp)
   1aea4:	08012823          	sw	zero,144(sp)
   1aea8:	08012a23          	sw	zero,148(sp)
   1aeac:	08012c23          	sw	zero,152(sp)
   1aeb0:	698060ef          	jal	ra,21548 <__multf3>
   1aeb4:	000a8513          	mv	a0,s5
   1aeb8:	7cd080ef          	jal	ra,23e84 <__fixtfsi>
   1aebc:	00050593          	mv	a1,a0
   1aec0:	00050413          	mv	s0,a0
   1aec4:	000a8513          	mv	a0,s5
   1aec8:	0b012983          	lw	s3,176(sp)
   1aecc:	0b412483          	lw	s1,180(sp)
   1aed0:	0b812b03          	lw	s6,184(sp)
   1aed4:	0bc12a03          	lw	s4,188(sp)
   1aed8:	0c0090ef          	jal	ra,23f98 <__floatsitf>
   1aedc:	0b012703          	lw	a4,176(sp)
   1aee0:	04012603          	lw	a2,64(sp)
   1aee4:	00090593          	mv	a1,s2
   1aee8:	08e12023          	sw	a4,128(sp)
   1aeec:	0b412703          	lw	a4,180(sp)
   1aef0:	000c8513          	mv	a0,s9
   1aef4:	09312823          	sw	s3,144(sp)
   1aef8:	08e12223          	sw	a4,132(sp)
   1aefc:	0b812703          	lw	a4,184(sp)
   1af00:	08912a23          	sw	s1,148(sp)
   1af04:	09612c23          	sw	s6,152(sp)
   1af08:	08e12423          	sw	a4,136(sp)
   1af0c:	0bc12703          	lw	a4,188(sp)
   1af10:	09412e23          	sw	s4,156(sp)
   1af14:	08e12623          	sw	a4,140(sp)
   1af18:	1cd070ef          	jal	ra,228e4 <__subtf3>
   1af1c:	02412783          	lw	a5,36(sp)
   1af20:	0a012b03          	lw	s6,160(sp)
   1af24:	0a412983          	lw	s3,164(sp)
   1af28:	00878733          	add	a4,a5,s0
   1af2c:	00074703          	lbu	a4,0(a4)
   1af30:	0a812f83          	lw	t6,168(sp)
   1af34:	0ac12603          	lw	a2,172(sp)
   1af38:	05712823          	sw	s7,80(sp)
   1af3c:	00eb8023          	sb	a4,0(s7)
   1af40:	05812223          	sw	s8,68(sp)
   1af44:	fff00793          	li	a5,-1
   1af48:	001b8b93          	addi	s7,s7,1
   1af4c:	000b0d13          	mv	s10,s6
   1af50:	00098d93          	mv	s11,s3
   1af54:	000f8493          	mv	s1,t6
   1af58:	00060a13          	mv	s4,a2
   1af5c:	eefc10e3          	bne	s8,a5,1ae3c <_svfprintf_r+0x2364>
   1af60:	07012883          	lw	a7,112(sp)
   1af64:	000b0393          	mv	t2,s6
   1af68:	00098293          	mv	t0,s3
   1af6c:	3ffe0937          	lui	s2,0x3ffe0
   1af70:	000c8593          	mv	a1,s9
   1af74:	000a8513          	mv	a0,s5
   1af78:	03112023          	sw	a7,32(sp)
   1af7c:	00812e23          	sw	s0,28(sp)
   1af80:	05c12a03          	lw	s4,92(sp)
   1af84:	06412483          	lw	s1,100(sp)
   1af88:	06012403          	lw	s0,96(sp)
   1af8c:	0a712823          	sw	t2,176(sp)
   1af90:	06712223          	sw	t2,100(sp)
   1af94:	0a512a23          	sw	t0,180(sp)
   1af98:	06512023          	sw	t0,96(sp)
   1af9c:	0bf12c23          	sw	t6,184(sp)
   1afa0:	05f12e23          	sw	t6,92(sp)
   1afa4:	0ac12e23          	sw	a2,188(sp)
   1afa8:	04c12023          	sw	a2,64(sp)
   1afac:	0a012023          	sw	zero,160(sp)
   1afb0:	0a012223          	sw	zero,164(sp)
   1afb4:	0a012423          	sw	zero,168(sp)
   1afb8:	0b212623          	sw	s2,172(sp)
   1afbc:	304060ef          	jal	ra,212c0 <__getf2>
   1afc0:	06c12d83          	lw	s11,108(sp)
   1afc4:	07412d03          	lw	s10,116(sp)
   1afc8:	07812c03          	lw	s8,120(sp)
   1afcc:	07c12b03          	lw	s6,124(sp)
   1afd0:	06812983          	lw	s3,104(sp)
   1afd4:	02012883          	lw	a7,32(sp)
   1afd8:	0aa04063          	bgtz	a0,1b078 <_svfprintf_r+0x25a0>
   1afdc:	06412383          	lw	t2,100(sp)
   1afe0:	06012283          	lw	t0,96(sp)
   1afe4:	05c12f83          	lw	t6,92(sp)
   1afe8:	04012603          	lw	a2,64(sp)
   1afec:	000c8593          	mv	a1,s9
   1aff0:	000a8513          	mv	a0,s5
   1aff4:	0a712823          	sw	t2,176(sp)
   1aff8:	0a512a23          	sw	t0,180(sp)
   1affc:	0bf12c23          	sw	t6,184(sp)
   1b000:	0ac12e23          	sw	a2,188(sp)
   1b004:	0a012023          	sw	zero,160(sp)
   1b008:	0a012223          	sw	zero,164(sp)
   1b00c:	0a012423          	sw	zero,168(sp)
   1b010:	0b212623          	sw	s2,172(sp)
   1b014:	1e0060ef          	jal	ra,211f4 <__eqtf2>
   1b018:	02012883          	lw	a7,32(sp)
   1b01c:	00051863          	bnez	a0,1b02c <_svfprintf_r+0x2554>
   1b020:	01c12783          	lw	a5,28(sp)
   1b024:	0017fc93          	andi	s9,a5,1
   1b028:	040c9863          	bnez	s9,1b078 <_svfprintf_r+0x25a0>
   1b02c:	04412783          	lw	a5,68(sp)
   1b030:	03000613          	li	a2,48
   1b034:	00178693          	addi	a3,a5,1 # 40030001 <__BSS_END__+0x400090d5>
   1b038:	00db86b3          	add	a3,s7,a3
   1b03c:	0007c863          	bltz	a5,1b04c <_svfprintf_r+0x2574>
   1b040:	001b8b93          	addi	s7,s7,1
   1b044:	fecb8fa3          	sb	a2,-1(s7)
   1b048:	fedb9ce3          	bne	s7,a3,1b040 <_svfprintf_r+0x2568>
   1b04c:	416b87b3          	sub	a5,s7,s6
   1b050:	02f12023          	sw	a5,32(sp)
   1b054:	830fe06f          	j	19084 <_svfprintf_r+0x5ac>
   1b058:	03412423          	sw	s4,40(sp)
   1b05c:	00012823          	sw	zero,16(sp)
   1b060:	00090a13          	mv	s4,s2
   1b064:	800007b7          	lui	a5,0x80000
   1b068:	0067c333          	xor	t1,a5,t1
   1b06c:	02d00793          	li	a5,45
   1b070:	04f12c23          	sw	a5,88(sp)
   1b074:	c71ff06f          	j	1ace4 <_svfprintf_r+0x220c>
   1b078:	05012783          	lw	a5,80(sp)
   1b07c:	000b8693          	mv	a3,s7
   1b080:	0cf12e23          	sw	a5,220(sp)
   1b084:	02412783          	lw	a5,36(sp)
   1b088:	fffbc603          	lbu	a2,-1(s7)
   1b08c:	00f7c583          	lbu	a1,15(a5) # 8000000f <__BSS_END__+0x7ffd90e3>
   1b090:	02b61063          	bne	a2,a1,1b0b0 <_svfprintf_r+0x25d8>
   1b094:	03000513          	li	a0,48
   1b098:	fea68fa3          	sb	a0,-1(a3)
   1b09c:	0dc12683          	lw	a3,220(sp)
   1b0a0:	fff68793          	addi	a5,a3,-1
   1b0a4:	0cf12e23          	sw	a5,220(sp)
   1b0a8:	fff6c603          	lbu	a2,-1(a3)
   1b0ac:	fec586e3          	beq	a1,a2,1b098 <_svfprintf_r+0x25c0>
   1b0b0:	00160593          	addi	a1,a2,1
   1b0b4:	03900513          	li	a0,57
   1b0b8:	0ff5f593          	andi	a1,a1,255
   1b0bc:	00a60663          	beq	a2,a0,1b0c8 <_svfprintf_r+0x25f0>
   1b0c0:	feb68fa3          	sb	a1,-1(a3)
   1b0c4:	f89ff06f          	j	1b04c <_svfprintf_r+0x2574>
   1b0c8:	02412783          	lw	a5,36(sp)
   1b0cc:	00a7c583          	lbu	a1,10(a5)
   1b0d0:	feb68fa3          	sb	a1,-1(a3)
   1b0d4:	f79ff06f          	j	1b04c <_svfprintf_r+0x2574>
   1b0d8:	001d8593          	addi	a1,s11,1
   1b0dc:	000d0513          	mv	a0,s10
   1b0e0:	01112823          	sw	a7,16(sp)
   1b0e4:	b41fb0ef          	jal	ra,16c24 <_malloc_r>
   1b0e8:	01012883          	lw	a7,16(sp)
   1b0ec:	00050b13          	mv	s6,a0
   1b0f0:	3e050c63          	beqz	a0,1b4e8 <_svfprintf_r+0x2a10>
   1b0f4:	00a12823          	sw	a0,16(sp)
   1b0f8:	bc9ff06f          	j	1acc0 <_svfprintf_r+0x21e8>
   1b0fc:	03000793          	li	a5,48
   1b100:	0cf10423          	sb	a5,200(sp)
   1b104:	07800793          	li	a5,120
   1b108:	b9dff06f          	j	1aca4 <_svfprintf_r+0x21cc>
   1b10c:	04700793          	li	a5,71
   1b110:	01bb0933          	add	s2,s6,s11
   1b114:	04f12a23          	sw	a5,84(sp)
   1b118:	0a010c93          	addi	s9,sp,160
   1b11c:	f05fd06f          	j	19020 <_svfprintf_r+0x548>
   1b120:	00812703          	lw	a4,8(sp)
   1b124:	009787b3          	add	a5,a5,s1
   1b128:	00168693          	addi	a3,a3,1
   1b12c:	00e8a023          	sw	a4,0(a7)
   1b130:	0098a223          	sw	s1,4(a7)
   1b134:	0ef12623          	sw	a5,236(sp)
   1b138:	0ed12423          	sw	a3,232(sp)
   1b13c:	00700613          	li	a2,7
   1b140:	b6d65863          	bge	a2,a3,1a4b0 <_svfprintf_r+0x19d8>
   1b144:	0e410613          	addi	a2,sp,228
   1b148:	000c0593          	mv	a1,s8
   1b14c:	000d0513          	mv	a0,s10
   1b150:	6b9020ef          	jal	ra,1e008 <__ssprint_r>
   1b154:	00050463          	beqz	a0,1b15c <_svfprintf_r+0x2684>
   1b158:	9c1fe06f          	j	19b18 <_svfprintf_r+0x1040>
   1b15c:	0ec12783          	lw	a5,236(sp)
   1b160:	0e812683          	lw	a3,232(sp)
   1b164:	10c10893          	addi	a7,sp,268
   1b168:	b4cff06f          	j	1a4b4 <_svfprintf_r+0x19dc>
   1b16c:	000a0b93          	mv	s7,s4
   1b170:	dfcfe06f          	j	1976c <_svfprintf_r+0xc94>
   1b174:	000d9463          	bnez	s11,1b17c <_svfprintf_r+0x26a4>
   1b178:	00100d93          	li	s11,1
   1b17c:	0fc12303          	lw	t1,252(sp)
   1b180:	0f012e03          	lw	t3,240(sp)
   1b184:	0f412e83          	lw	t4,244(sp)
   1b188:	0f812f03          	lw	t5,248(sp)
   1b18c:	100a6913          	ori	s2,s4,256
   1b190:	ec0344e3          	bltz	t1,1b058 <_svfprintf_r+0x2580>
   1b194:	0b010a93          	addi	s5,sp,176
   1b198:	0dc10813          	addi	a6,sp,220
   1b19c:	0d010793          	addi	a5,sp,208
   1b1a0:	0cc10713          	addi	a4,sp,204
   1b1a4:	000d8693          	mv	a3,s11
   1b1a8:	00200613          	li	a2,2
   1b1ac:	000a8593          	mv	a1,s5
   1b1b0:	000d0513          	mv	a0,s10
   1b1b4:	05112223          	sw	a7,68(sp)
   1b1b8:	0bc12823          	sw	t3,176(sp)
   1b1bc:	05c12023          	sw	t3,64(sp)
   1b1c0:	0bd12a23          	sw	t4,180(sp)
   1b1c4:	03d12223          	sw	t4,36(sp)
   1b1c8:	0be12c23          	sw	t5,184(sp)
   1b1cc:	03e12023          	sw	t5,32(sp)
   1b1d0:	0a612e23          	sw	t1,188(sp)
   1b1d4:	00612e23          	sw	t1,28(sp)
   1b1d8:	d48fa0ef          	jal	ra,15720 <_ldtoa_r>
   1b1dc:	01c12303          	lw	t1,28(sp)
   1b1e0:	03412423          	sw	s4,40(sp)
   1b1e4:	02012f03          	lw	t5,32(sp)
   1b1e8:	02412e83          	lw	t4,36(sp)
   1b1ec:	04012e03          	lw	t3,64(sp)
   1b1f0:	04412883          	lw	a7,68(sp)
   1b1f4:	00050b13          	mv	s6,a0
   1b1f8:	00090a13          	mv	s4,s2
   1b1fc:	00012823          	sw	zero,16(sp)
   1b200:	04012c23          	sw	zero,88(sp)
   1b204:	971ff06f          	j	1ab74 <_svfprintf_r+0x209c>
   1b208:	fff00793          	li	a5,-1
   1b20c:	00f12623          	sw	a5,12(sp)
   1b210:	be5fd06f          	j	18df4 <_svfprintf_r+0x31c>
   1b214:	0d610793          	addi	a5,sp,214
   1b218:	00069863          	bnez	a3,1b228 <_svfprintf_r+0x2750>
   1b21c:	03000793          	li	a5,48
   1b220:	0cf10b23          	sb	a5,214(sp)
   1b224:	0d710793          	addi	a5,sp,215
   1b228:	1b010713          	addi	a4,sp,432
   1b22c:	030a8a93          	addi	s5,s5,48
   1b230:	40e786b3          	sub	a3,a5,a4
   1b234:	01578023          	sb	s5,0(a5)
   1b238:	0dd68793          	addi	a5,a3,221
   1b23c:	02f12c23          	sw	a5,56(sp)
   1b240:	f65fd06f          	j	191a4 <_svfprintf_r+0x6cc>
   1b244:	0b010a93          	addi	s5,sp,176
   1b248:	000a8513          	mv	a0,s5
   1b24c:	05112823          	sw	a7,80(sp)
   1b250:	0bc12823          	sw	t3,176(sp)
   1b254:	0bd12a23          	sw	t4,180(sp)
   1b258:	0be12c23          	sw	t5,184(sp)
   1b25c:	0a612e23          	sw	t1,188(sp)
   1b260:	078090ef          	jal	ra,242d8 <__trunctfdf2>
   1b264:	0cc10613          	addi	a2,sp,204
   1b268:	b48fd0ef          	jal	ra,185b0 <frexp>
   1b26c:	00058613          	mv	a2,a1
   1b270:	00050593          	mv	a1,a0
   1b274:	000a8513          	mv	a0,s5
   1b278:	671080ef          	jal	ra,240e8 <__extenddftf2>
   1b27c:	0b012783          	lw	a5,176(sp)
   1b280:	0a010c93          	addi	s9,sp,160
   1b284:	09010913          	addi	s2,sp,144
   1b288:	08f12823          	sw	a5,144(sp)
   1b28c:	0b412783          	lw	a5,180(sp)
   1b290:	08010613          	addi	a2,sp,128
   1b294:	00090593          	mv	a1,s2
   1b298:	08f12a23          	sw	a5,148(sp)
   1b29c:	0b812783          	lw	a5,184(sp)
   1b2a0:	000c8513          	mv	a0,s9
   1b2a4:	04c12023          	sw	a2,64(sp)
   1b2a8:	08f12c23          	sw	a5,152(sp)
   1b2ac:	0bc12783          	lw	a5,188(sp)
   1b2b0:	08012023          	sw	zero,128(sp)
   1b2b4:	08012223          	sw	zero,132(sp)
   1b2b8:	08f12e23          	sw	a5,156(sp)
   1b2bc:	3ffc07b7          	lui	a5,0x3ffc0
   1b2c0:	08f12623          	sw	a5,140(sp)
   1b2c4:	08012423          	sw	zero,136(sp)
   1b2c8:	280060ef          	jal	ra,21548 <__multf3>
   1b2cc:	0a012803          	lw	a6,160(sp)
   1b2d0:	0a412e03          	lw	t3,164(sp)
   1b2d4:	0a812e83          	lw	t4,168(sp)
   1b2d8:	0ac12f03          	lw	t5,172(sp)
   1b2dc:	000c8593          	mv	a1,s9
   1b2e0:	000a8513          	mv	a0,s5
   1b2e4:	0b012823          	sw	a6,176(sp)
   1b2e8:	05012223          	sw	a6,68(sp)
   1b2ec:	0bc12a23          	sw	t3,180(sp)
   1b2f0:	03c12223          	sw	t3,36(sp)
   1b2f4:	0bd12c23          	sw	t4,184(sp)
   1b2f8:	03d12023          	sw	t4,32(sp)
   1b2fc:	0be12e23          	sw	t5,188(sp)
   1b300:	01e12e23          	sw	t5,28(sp)
   1b304:	0a012023          	sw	zero,160(sp)
   1b308:	0a012223          	sw	zero,164(sp)
   1b30c:	0a012423          	sw	zero,168(sp)
   1b310:	0a012623          	sw	zero,172(sp)
   1b314:	6e1050ef          	jal	ra,211f4 <__eqtf2>
   1b318:	01c12f03          	lw	t5,28(sp)
   1b31c:	02012e83          	lw	t4,32(sp)
   1b320:	02412e03          	lw	t3,36(sp)
   1b324:	04412803          	lw	a6,68(sp)
   1b328:	05012883          	lw	a7,80(sp)
   1b32c:	00051663          	bnez	a0,1b338 <_svfprintf_r+0x2860>
   1b330:	00100793          	li	a5,1
   1b334:	0cf12623          	sw	a5,204(sp)
   1b338:	000247b7          	lui	a5,0x24
   1b33c:	76478793          	addi	a5,a5,1892 # 24764 <__clzsi2+0x68>
   1b340:	02f12223          	sw	a5,36(sp)
   1b344:	ab5ff06f          	j	1adf8 <_svfprintf_r+0x2320>
   1b348:	00012823          	sw	zero,16(sp)
   1b34c:	00078a13          	mv	s4,a5
   1b350:	d15ff06f          	j	1b064 <_svfprintf_r+0x258c>
   1b354:	06700493          	li	s1,103
   1b358:	03c12603          	lw	a2,60(sp)
   1b35c:	0ff00693          	li	a3,255
   1b360:	00064783          	lbu	a5,0(a2)
   1b364:	18d78c63          	beq	a5,a3,1b4fc <_svfprintf_r+0x2a24>
   1b368:	01c12703          	lw	a4,28(sp)
   1b36c:	00000513          	li	a0,0
   1b370:	00000593          	li	a1,0
   1b374:	00e7de63          	bge	a5,a4,1b390 <_svfprintf_r+0x28b8>
   1b378:	40f70733          	sub	a4,a4,a5
   1b37c:	00164783          	lbu	a5,1(a2)
   1b380:	04078863          	beqz	a5,1b3d0 <_svfprintf_r+0x28f8>
   1b384:	00158593          	addi	a1,a1,1
   1b388:	00160613          	addi	a2,a2,1
   1b38c:	fed794e3          	bne	a5,a3,1b374 <_svfprintf_r+0x289c>
   1b390:	02c12e23          	sw	a2,60(sp)
   1b394:	00e12e23          	sw	a4,28(sp)
   1b398:	02b12223          	sw	a1,36(sp)
   1b39c:	02a12423          	sw	a0,40(sp)
   1b3a0:	02412783          	lw	a5,36(sp)
   1b3a4:	02812703          	lw	a4,40(sp)
   1b3a8:	04812583          	lw	a1,72(sp)
   1b3ac:	05112023          	sw	a7,64(sp)
   1b3b0:	00e78533          	add	a0,a5,a4
   1b3b4:	270090ef          	jal	ra,24624 <__mulsi3>
   1b3b8:	01950cb3          	add	s9,a0,s9
   1b3bc:	fffcca93          	not	s5,s9
   1b3c0:	41fada93          	srai	s5,s5,0x1f
   1b3c4:	04012883          	lw	a7,64(sp)
   1b3c8:	015cfab3          	and	s5,s9,s5
   1b3cc:	e1dfd06f          	j	191e8 <_svfprintf_r+0x710>
   1b3d0:	00064783          	lbu	a5,0(a2)
   1b3d4:	00150513          	addi	a0,a0,1
   1b3d8:	fb5ff06f          	j	1b38c <_svfprintf_r+0x28b4>
   1b3dc:	02c12783          	lw	a5,44(sp)
   1b3e0:	06600493          	li	s1,102
   1b3e4:	00f70cb3          	add	s9,a4,a5
   1b3e8:	01bc8cb3          	add	s9,s9,s11
   1b3ec:	849ff06f          	j	1ac34 <_svfprintf_r+0x215c>
   1b3f0:	02812783          	lw	a5,40(sp)
   1b3f4:	0017f793          	andi	a5,a5,1
   1b3f8:	00079463          	bnez	a5,1b400 <_svfprintf_r+0x2928>
   1b3fc:	dc9fd06f          	j	191c4 <_svfprintf_r+0x6ec>
   1b400:	dbdfd06f          	j	191bc <_svfprintf_r+0x6e4>
   1b404:	0a010c93          	addi	s9,sp,160
   1b408:	000c8593          	mv	a1,s9
   1b40c:	000a8513          	mv	a0,s5
   1b410:	05112223          	sw	a7,68(sp)
   1b414:	0bc12823          	sw	t3,176(sp)
   1b418:	05c12023          	sw	t3,64(sp)
   1b41c:	0bd12a23          	sw	t4,180(sp)
   1b420:	03d12223          	sw	t4,36(sp)
   1b424:	0be12c23          	sw	t5,184(sp)
   1b428:	03e12023          	sw	t5,32(sp)
   1b42c:	0a612e23          	sw	t1,188(sp)
   1b430:	00612e23          	sw	t1,28(sp)
   1b434:	0a012023          	sw	zero,160(sp)
   1b438:	0a012223          	sw	zero,164(sp)
   1b43c:	0a012423          	sw	zero,168(sp)
   1b440:	0a012623          	sw	zero,172(sp)
   1b444:	5b1050ef          	jal	ra,211f4 <__eqtf2>
   1b448:	01c12303          	lw	t1,28(sp)
   1b44c:	02012f03          	lw	t5,32(sp)
   1b450:	02412e83          	lw	t4,36(sp)
   1b454:	04012e03          	lw	t3,64(sp)
   1b458:	04412883          	lw	a7,68(sp)
   1b45c:	e8050e63          	beqz	a0,1aaf8 <_svfprintf_r+0x2020>
   1b460:	00100793          	li	a5,1
   1b464:	41b787b3          	sub	a5,a5,s11
   1b468:	0cf12623          	sw	a5,204(sp)
   1b46c:	00f90933          	add	s2,s2,a5
   1b470:	bb1fd06f          	j	19020 <_svfprintf_r+0x548>
   1b474:	00079a63          	bnez	a5,1b488 <_svfprintf_r+0x29b0>
   1b478:	00100a93          	li	s5,1
   1b47c:	06600493          	li	s1,102
   1b480:	00100c93          	li	s9,1
   1b484:	db0ff06f          	j	1aa34 <_svfprintf_r+0x1f5c>
   1b488:	02c12783          	lw	a5,44(sp)
   1b48c:	06600493          	li	s1,102
   1b490:	00178c93          	addi	s9,a5,1
   1b494:	01bc8cb3          	add	s9,s9,s11
   1b498:	fffcca93          	not	s5,s9
   1b49c:	41fada93          	srai	s5,s5,0x1f
   1b4a0:	015cfab3          	and	s5,s9,s5
   1b4a4:	d90ff06f          	j	1aa34 <_svfprintf_r+0x1f5c>
   1b4a8:	00088713          	mv	a4,a7
   1b4ac:	a74ff06f          	j	1a720 <_svfprintf_r+0x1c48>
   1b4b0:	01412783          	lw	a5,20(sp)
   1b4b4:	0007ad83          	lw	s11,0(a5)
   1b4b8:	00478793          	addi	a5,a5,4
   1b4bc:	000dd463          	bgez	s11,1b4c4 <_svfprintf_r+0x29ec>
   1b4c0:	fff00d93          	li	s11,-1
   1b4c4:	00144483          	lbu	s1,1(s0)
   1b4c8:	00f12a23          	sw	a5,20(sp)
   1b4cc:	00070413          	mv	s0,a4
   1b4d0:	f6cfd06f          	j	18c3c <_svfprintf_r+0x164>
   1b4d4:	00c00793          	li	a5,12
   1b4d8:	00fd2023          	sw	a5,0(s10)
   1b4dc:	fff00793          	li	a5,-1
   1b4e0:	00f12623          	sw	a5,12(sp)
   1b4e4:	911fd06f          	j	18df4 <_svfprintf_r+0x31c>
   1b4e8:	00cc5703          	lhu	a4,12(s8)
   1b4ec:	04076793          	ori	a5,a4,64
   1b4f0:	00078713          	mv	a4,a5
   1b4f4:	00fc1623          	sh	a5,12(s8)
   1b4f8:	8f1fd06f          	j	18de8 <_svfprintf_r+0x310>
   1b4fc:	02012423          	sw	zero,40(sp)
   1b500:	02012223          	sw	zero,36(sp)
   1b504:	e9dff06f          	j	1b3a0 <_svfprintf_r+0x28c8>
   1b508:	00200793          	li	a5,2
   1b50c:	02f12c23          	sw	a5,56(sp)
   1b510:	c95fd06f          	j	191a4 <_svfprintf_r+0x6cc>

0001b514 <__sprint_r.part.0>:
   1b514:	0645a783          	lw	a5,100(a1)
   1b518:	fd010113          	addi	sp,sp,-48
   1b51c:	01612823          	sw	s6,16(sp)
   1b520:	02112623          	sw	ra,44(sp)
   1b524:	02812423          	sw	s0,40(sp)
   1b528:	02912223          	sw	s1,36(sp)
   1b52c:	03212023          	sw	s2,32(sp)
   1b530:	01312e23          	sw	s3,28(sp)
   1b534:	01412c23          	sw	s4,24(sp)
   1b538:	01512a23          	sw	s5,20(sp)
   1b53c:	01712623          	sw	s7,12(sp)
   1b540:	01812423          	sw	s8,8(sp)
   1b544:	01279713          	slli	a4,a5,0x12
   1b548:	00060b13          	mv	s6,a2
   1b54c:	0a075863          	bgez	a4,1b5fc <__sprint_r.part.0+0xe8>
   1b550:	00862783          	lw	a5,8(a2)
   1b554:	00062b83          	lw	s7,0(a2)
   1b558:	00058913          	mv	s2,a1
   1b55c:	00050993          	mv	s3,a0
   1b560:	fff00a93          	li	s5,-1
   1b564:	08078863          	beqz	a5,1b5f4 <__sprint_r.part.0+0xe0>
   1b568:	004bac03          	lw	s8,4(s7)
   1b56c:	000ba403          	lw	s0,0(s7)
   1b570:	002c5a13          	srli	s4,s8,0x2
   1b574:	060a0663          	beqz	s4,1b5e0 <__sprint_r.part.0+0xcc>
   1b578:	00000493          	li	s1,0
   1b57c:	00c0006f          	j	1b588 <__sprint_r.part.0+0x74>
   1b580:	00440413          	addi	s0,s0,4
   1b584:	049a0c63          	beq	s4,s1,1b5dc <__sprint_r.part.0+0xc8>
   1b588:	00042583          	lw	a1,0(s0)
   1b58c:	00090613          	mv	a2,s2
   1b590:	00098513          	mv	a0,s3
   1b594:	00d010ef          	jal	ra,1cda0 <_fputwc_r>
   1b598:	00148493          	addi	s1,s1,1
   1b59c:	ff5512e3          	bne	a0,s5,1b580 <__sprint_r.part.0+0x6c>
   1b5a0:	fff00513          	li	a0,-1
   1b5a4:	02c12083          	lw	ra,44(sp)
   1b5a8:	02812403          	lw	s0,40(sp)
   1b5ac:	000b2423          	sw	zero,8(s6)
   1b5b0:	000b2223          	sw	zero,4(s6)
   1b5b4:	02412483          	lw	s1,36(sp)
   1b5b8:	02012903          	lw	s2,32(sp)
   1b5bc:	01c12983          	lw	s3,28(sp)
   1b5c0:	01812a03          	lw	s4,24(sp)
   1b5c4:	01412a83          	lw	s5,20(sp)
   1b5c8:	01012b03          	lw	s6,16(sp)
   1b5cc:	00c12b83          	lw	s7,12(sp)
   1b5d0:	00812c03          	lw	s8,8(sp)
   1b5d4:	03010113          	addi	sp,sp,48
   1b5d8:	00008067          	ret
   1b5dc:	008b2783          	lw	a5,8(s6)
   1b5e0:	ffcc7c13          	andi	s8,s8,-4
   1b5e4:	418787b3          	sub	a5,a5,s8
   1b5e8:	00fb2423          	sw	a5,8(s6)
   1b5ec:	008b8b93          	addi	s7,s7,8
   1b5f0:	f6079ce3          	bnez	a5,1b568 <__sprint_r.part.0+0x54>
   1b5f4:	00000513          	li	a0,0
   1b5f8:	fadff06f          	j	1b5a4 <__sprint_r.part.0+0x90>
   1b5fc:	0b1010ef          	jal	ra,1ceac <__sfvwrite_r>
   1b600:	fa5ff06f          	j	1b5a4 <__sprint_r.part.0+0x90>

0001b604 <__sprint_r>:
   1b604:	00862703          	lw	a4,8(a2)
   1b608:	00070463          	beqz	a4,1b610 <__sprint_r+0xc>
   1b60c:	f09ff06f          	j	1b514 <__sprint_r.part.0>
   1b610:	00062223          	sw	zero,4(a2)
   1b614:	00000513          	li	a0,0
   1b618:	00008067          	ret

0001b61c <_vfiprintf_r>:
   1b61c:	ed010113          	addi	sp,sp,-304
   1b620:	11312e23          	sw	s3,284(sp)
   1b624:	11412c23          	sw	s4,280(sp)
   1b628:	11712623          	sw	s7,268(sp)
   1b62c:	12112623          	sw	ra,300(sp)
   1b630:	12812423          	sw	s0,296(sp)
   1b634:	12912223          	sw	s1,292(sp)
   1b638:	13212023          	sw	s2,288(sp)
   1b63c:	11512a23          	sw	s5,276(sp)
   1b640:	11612823          	sw	s6,272(sp)
   1b644:	11812423          	sw	s8,264(sp)
   1b648:	11912223          	sw	s9,260(sp)
   1b64c:	11a12023          	sw	s10,256(sp)
   1b650:	0fb12e23          	sw	s11,252(sp)
   1b654:	00d12823          	sw	a3,16(sp)
   1b658:	00050a13          	mv	s4,a0
   1b65c:	00058993          	mv	s3,a1
   1b660:	00060b93          	mv	s7,a2
   1b664:	00050663          	beqz	a0,1b670 <_vfiprintf_r+0x54>
   1b668:	03852783          	lw	a5,56(a0)
   1b66c:	5e078e63          	beqz	a5,1bc68 <_vfiprintf_r+0x64c>
   1b670:	00c99703          	lh	a4,12(s3)
   1b674:	01071793          	slli	a5,a4,0x10
   1b678:	01271693          	slli	a3,a4,0x12
   1b67c:	0107d793          	srli	a5,a5,0x10
   1b680:	0206ca63          	bltz	a3,1b6b4 <_vfiprintf_r+0x98>
   1b684:	000027b7          	lui	a5,0x2
   1b688:	0649a683          	lw	a3,100(s3)
   1b68c:	00f767b3          	or	a5,a4,a5
   1b690:	01079793          	slli	a5,a5,0x10
   1b694:	ffffe737          	lui	a4,0xffffe
   1b698:	4107d793          	srai	a5,a5,0x10
   1b69c:	fff70713          	addi	a4,a4,-1 # ffffdfff <__BSS_END__+0xfffd70d3>
   1b6a0:	00e6f733          	and	a4,a3,a4
   1b6a4:	00f99623          	sh	a5,12(s3)
   1b6a8:	01079793          	slli	a5,a5,0x10
   1b6ac:	06e9a223          	sw	a4,100(s3)
   1b6b0:	0107d793          	srli	a5,a5,0x10
   1b6b4:	0087f713          	andi	a4,a5,8
   1b6b8:	40070063          	beqz	a4,1bab8 <_vfiprintf_r+0x49c>
   1b6bc:	0109a703          	lw	a4,16(s3)
   1b6c0:	3e070c63          	beqz	a4,1bab8 <_vfiprintf_r+0x49c>
   1b6c4:	01a7f793          	andi	a5,a5,26
   1b6c8:	00a00713          	li	a4,10
   1b6cc:	40e78663          	beq	a5,a4,1bad8 <_vfiprintf_r+0x4bc>
   1b6d0:	000257b7          	lui	a5,0x25
   1b6d4:	e5478793          	addi	a5,a5,-428 # 24e54 <zeroes.4469+0x10>
   1b6d8:	00025b37          	lui	s6,0x25
   1b6dc:	04c10493          	addi	s1,sp,76
   1b6e0:	00f12a23          	sw	a5,20(sp)
   1b6e4:	00025937          	lui	s2,0x25
   1b6e8:	fc0b0793          	addi	a5,s6,-64 # 24fc0 <blanks.4459>
   1b6ec:	000b8c13          	mv	s8,s7
   1b6f0:	04912023          	sw	s1,64(sp)
   1b6f4:	04012423          	sw	zero,72(sp)
   1b6f8:	04012223          	sw	zero,68(sp)
   1b6fc:	00012c23          	sw	zero,24(sp)
   1b700:	00012e23          	sw	zero,28(sp)
   1b704:	02012223          	sw	zero,36(sp)
   1b708:	02012023          	sw	zero,32(sp)
   1b70c:	00012623          	sw	zero,12(sp)
   1b710:	00f12423          	sw	a5,8(sp)
   1b714:	fd090913          	addi	s2,s2,-48 # 24fd0 <zeroes.4460>
   1b718:	00048b93          	mv	s7,s1
   1b71c:	000c4783          	lbu	a5,0(s8)
   1b720:	26078863          	beqz	a5,1b990 <_vfiprintf_r+0x374>
   1b724:	000c0413          	mv	s0,s8
   1b728:	02500713          	li	a4,37
   1b72c:	42e78e63          	beq	a5,a4,1bb68 <_vfiprintf_r+0x54c>
   1b730:	00144783          	lbu	a5,1(s0)
   1b734:	00140413          	addi	s0,s0,1
   1b738:	fe079ae3          	bnez	a5,1b72c <_vfiprintf_r+0x110>
   1b73c:	41840cb3          	sub	s9,s0,s8
   1b740:	25840863          	beq	s0,s8,1b990 <_vfiprintf_r+0x374>
   1b744:	04812703          	lw	a4,72(sp)
   1b748:	04412783          	lw	a5,68(sp)
   1b74c:	018ba023          	sw	s8,0(s7)
   1b750:	00ec8733          	add	a4,s9,a4
   1b754:	00178793          	addi	a5,a5,1
   1b758:	019ba223          	sw	s9,4(s7)
   1b75c:	04e12423          	sw	a4,72(sp)
   1b760:	04f12223          	sw	a5,68(sp)
   1b764:	00700693          	li	a3,7
   1b768:	008b8b93          	addi	s7,s7,8
   1b76c:	02f6d063          	bge	a3,a5,1b78c <_vfiprintf_r+0x170>
   1b770:	3a070ae3          	beqz	a4,1c324 <_vfiprintf_r+0xd08>
   1b774:	04010613          	addi	a2,sp,64
   1b778:	00098593          	mv	a1,s3
   1b77c:	000a0513          	mv	a0,s4
   1b780:	d95ff0ef          	jal	ra,1b514 <__sprint_r.part.0>
   1b784:	20051a63          	bnez	a0,1b998 <_vfiprintf_r+0x37c>
   1b788:	00048b93          	mv	s7,s1
   1b78c:	00c12703          	lw	a4,12(sp)
   1b790:	00044783          	lbu	a5,0(s0)
   1b794:	01970733          	add	a4,a4,s9
   1b798:	00e12623          	sw	a4,12(sp)
   1b79c:	1e078a63          	beqz	a5,1b990 <_vfiprintf_r+0x374>
   1b7a0:	00144703          	lbu	a4,1(s0)
   1b7a4:	00140c13          	addi	s8,s0,1
   1b7a8:	02010da3          	sb	zero,59(sp)
   1b7ac:	fff00a93          	li	s5,-1
   1b7b0:	00012223          	sw	zero,4(sp)
   1b7b4:	00000b13          	li	s6,0
   1b7b8:	05a00c93          	li	s9,90
   1b7bc:	00900d13          	li	s10,9
   1b7c0:	02a00613          	li	a2,42
   1b7c4:	001c0c13          	addi	s8,s8,1
   1b7c8:	fe070793          	addi	a5,a4,-32
   1b7cc:	04fce863          	bltu	s9,a5,1b81c <_vfiprintf_r+0x200>
   1b7d0:	01412683          	lw	a3,20(sp)
   1b7d4:	00279793          	slli	a5,a5,0x2
   1b7d8:	00d787b3          	add	a5,a5,a3
   1b7dc:	0007a783          	lw	a5,0(a5)
   1b7e0:	00078067          	jr	a5
   1b7e4:	00012223          	sw	zero,4(sp)
   1b7e8:	fd070793          	addi	a5,a4,-48
   1b7ec:	00412583          	lw	a1,4(sp)
   1b7f0:	000c4703          	lbu	a4,0(s8)
   1b7f4:	001c0c13          	addi	s8,s8,1
   1b7f8:	00259693          	slli	a3,a1,0x2
   1b7fc:	00b686b3          	add	a3,a3,a1
   1b800:	00169693          	slli	a3,a3,0x1
   1b804:	00d787b3          	add	a5,a5,a3
   1b808:	00f12223          	sw	a5,4(sp)
   1b80c:	fd070793          	addi	a5,a4,-48
   1b810:	fcfd7ee3          	bgeu	s10,a5,1b7ec <_vfiprintf_r+0x1d0>
   1b814:	fe070793          	addi	a5,a4,-32
   1b818:	fafcfce3          	bgeu	s9,a5,1b7d0 <_vfiprintf_r+0x1b4>
   1b81c:	16070a63          	beqz	a4,1b990 <_vfiprintf_r+0x374>
   1b820:	08e10623          	sb	a4,140(sp)
   1b824:	02010da3          	sb	zero,59(sp)
   1b828:	00100c93          	li	s9,1
   1b82c:	00100d13          	li	s10,1
   1b830:	08c10413          	addi	s0,sp,140
   1b834:	00000a93          	li	s5,0
   1b838:	002b7f93          	andi	t6,s6,2
   1b83c:	000f8463          	beqz	t6,1b844 <_vfiprintf_r+0x228>
   1b840:	002c8c93          	addi	s9,s9,2
   1b844:	04412703          	lw	a4,68(sp)
   1b848:	084b7f13          	andi	t5,s6,132
   1b84c:	04812783          	lw	a5,72(sp)
   1b850:	00170693          	addi	a3,a4,1
   1b854:	00068613          	mv	a2,a3
   1b858:	000f1863          	bnez	t5,1b868 <_vfiprintf_r+0x24c>
   1b85c:	00412583          	lw	a1,4(sp)
   1b860:	41958db3          	sub	s11,a1,s9
   1b864:	09b042e3          	bgtz	s11,1c0e8 <_vfiprintf_r+0xacc>
   1b868:	03b14583          	lbu	a1,59(sp)
   1b86c:	008b8693          	addi	a3,s7,8
   1b870:	02058c63          	beqz	a1,1b8a8 <_vfiprintf_r+0x28c>
   1b874:	03b10713          	addi	a4,sp,59
   1b878:	00178793          	addi	a5,a5,1
   1b87c:	00eba023          	sw	a4,0(s7)
   1b880:	00100713          	li	a4,1
   1b884:	00eba223          	sw	a4,4(s7)
   1b888:	04f12423          	sw	a5,72(sp)
   1b88c:	04c12223          	sw	a2,68(sp)
   1b890:	00700713          	li	a4,7
   1b894:	7ec74063          	blt	a4,a2,1c074 <_vfiprintf_r+0xa58>
   1b898:	00060713          	mv	a4,a2
   1b89c:	00068b93          	mv	s7,a3
   1b8a0:	00160613          	addi	a2,a2,1
   1b8a4:	00868693          	addi	a3,a3,8
   1b8a8:	040f8e63          	beqz	t6,1b904 <_vfiprintf_r+0x2e8>
   1b8ac:	03c10713          	addi	a4,sp,60
   1b8b0:	00278793          	addi	a5,a5,2
   1b8b4:	00eba023          	sw	a4,0(s7)
   1b8b8:	00200713          	li	a4,2
   1b8bc:	00eba223          	sw	a4,4(s7)
   1b8c0:	04f12423          	sw	a5,72(sp)
   1b8c4:	04c12223          	sw	a2,68(sp)
   1b8c8:	00700713          	li	a4,7
   1b8cc:	00c750e3          	bge	a4,a2,1c0cc <_vfiprintf_r+0xab0>
   1b8d0:	2a0784e3          	beqz	a5,1c378 <_vfiprintf_r+0xd5c>
   1b8d4:	04010613          	addi	a2,sp,64
   1b8d8:	00098593          	mv	a1,s3
   1b8dc:	000a0513          	mv	a0,s4
   1b8e0:	03e12423          	sw	t5,40(sp)
   1b8e4:	c31ff0ef          	jal	ra,1b514 <__sprint_r.part.0>
   1b8e8:	0a051863          	bnez	a0,1b998 <_vfiprintf_r+0x37c>
   1b8ec:	04412703          	lw	a4,68(sp)
   1b8f0:	04812783          	lw	a5,72(sp)
   1b8f4:	02812f03          	lw	t5,40(sp)
   1b8f8:	05410693          	addi	a3,sp,84
   1b8fc:	00170613          	addi	a2,a4,1
   1b900:	00048b93          	mv	s7,s1
   1b904:	08000593          	li	a1,128
   1b908:	5abf0663          	beq	t5,a1,1beb4 <_vfiprintf_r+0x898>
   1b90c:	41aa8ab3          	sub	s5,s5,s10
   1b910:	69504263          	bgtz	s5,1bf94 <_vfiprintf_r+0x978>
   1b914:	00fd07b3          	add	a5,s10,a5
   1b918:	008ba023          	sw	s0,0(s7)
   1b91c:	01aba223          	sw	s10,4(s7)
   1b920:	04f12423          	sw	a5,72(sp)
   1b924:	04c12223          	sw	a2,68(sp)
   1b928:	00700713          	li	a4,7
   1b92c:	02c75263          	bge	a4,a2,1b950 <_vfiprintf_r+0x334>
   1b930:	0a078ee3          	beqz	a5,1c1ec <_vfiprintf_r+0xbd0>
   1b934:	04010613          	addi	a2,sp,64
   1b938:	00098593          	mv	a1,s3
   1b93c:	000a0513          	mv	a0,s4
   1b940:	bd5ff0ef          	jal	ra,1b514 <__sprint_r.part.0>
   1b944:	04051a63          	bnez	a0,1b998 <_vfiprintf_r+0x37c>
   1b948:	04812783          	lw	a5,72(sp)
   1b94c:	00048693          	mv	a3,s1
   1b950:	004b7313          	andi	t1,s6,4
   1b954:	00030863          	beqz	t1,1b964 <_vfiprintf_r+0x348>
   1b958:	00412703          	lw	a4,4(sp)
   1b95c:	41970bb3          	sub	s7,a4,s9
   1b960:	0b7044e3          	bgtz	s7,1c208 <_vfiprintf_r+0xbec>
   1b964:	00412403          	lw	s0,4(sp)
   1b968:	01945463          	bge	s0,s9,1b970 <_vfiprintf_r+0x354>
   1b96c:	000c8413          	mv	s0,s9
   1b970:	00c12703          	lw	a4,12(sp)
   1b974:	00870733          	add	a4,a4,s0
   1b978:	00e12623          	sw	a4,12(sp)
   1b97c:	6c079863          	bnez	a5,1c04c <_vfiprintf_r+0xa30>
   1b980:	000c4783          	lbu	a5,0(s8)
   1b984:	04012223          	sw	zero,68(sp)
   1b988:	00048b93          	mv	s7,s1
   1b98c:	d8079ce3          	bnez	a5,1b724 <_vfiprintf_r+0x108>
   1b990:	04812783          	lw	a5,72(sp)
   1b994:	64079ae3          	bnez	a5,1c7e8 <_vfiprintf_r+0x11cc>
   1b998:	00c9d783          	lhu	a5,12(s3)
   1b99c:	0407f793          	andi	a5,a5,64
   1b9a0:	680792e3          	bnez	a5,1c824 <_vfiprintf_r+0x1208>
   1b9a4:	12c12083          	lw	ra,300(sp)
   1b9a8:	12812403          	lw	s0,296(sp)
   1b9ac:	00c12503          	lw	a0,12(sp)
   1b9b0:	12412483          	lw	s1,292(sp)
   1b9b4:	12012903          	lw	s2,288(sp)
   1b9b8:	11c12983          	lw	s3,284(sp)
   1b9bc:	11812a03          	lw	s4,280(sp)
   1b9c0:	11412a83          	lw	s5,276(sp)
   1b9c4:	11012b03          	lw	s6,272(sp)
   1b9c8:	10c12b83          	lw	s7,268(sp)
   1b9cc:	10812c03          	lw	s8,264(sp)
   1b9d0:	10412c83          	lw	s9,260(sp)
   1b9d4:	10012d03          	lw	s10,256(sp)
   1b9d8:	0fc12d83          	lw	s11,252(sp)
   1b9dc:	13010113          	addi	sp,sp,304
   1b9e0:	00008067          	ret
   1b9e4:	000a0513          	mv	a0,s4
   1b9e8:	83cfb0ef          	jal	ra,16a24 <_localeconv_r>
   1b9ec:	00452783          	lw	a5,4(a0)
   1b9f0:	00078513          	mv	a0,a5
   1b9f4:	02f12023          	sw	a5,32(sp)
   1b9f8:	fadfc0ef          	jal	ra,189a4 <strlen>
   1b9fc:	00050793          	mv	a5,a0
   1ba00:	000a0513          	mv	a0,s4
   1ba04:	00078413          	mv	s0,a5
   1ba08:	02f12223          	sw	a5,36(sp)
   1ba0c:	818fb0ef          	jal	ra,16a24 <_localeconv_r>
   1ba10:	00852783          	lw	a5,8(a0)
   1ba14:	02a00613          	li	a2,42
   1ba18:	00f12e23          	sw	a5,28(sp)
   1ba1c:	2a0418e3          	bnez	s0,1c4cc <_vfiprintf_r+0xeb0>
   1ba20:	000c4703          	lbu	a4,0(s8)
   1ba24:	da1ff06f          	j	1b7c4 <_vfiprintf_r+0x1a8>
   1ba28:	000c4703          	lbu	a4,0(s8)
   1ba2c:	020b6b13          	ori	s6,s6,32
   1ba30:	d95ff06f          	j	1b7c4 <_vfiprintf_r+0x1a8>
   1ba34:	010b6b13          	ori	s6,s6,16
   1ba38:	020b7793          	andi	a5,s6,32
   1ba3c:	16078463          	beqz	a5,1bba4 <_vfiprintf_r+0x588>
   1ba40:	01012783          	lw	a5,16(sp)
   1ba44:	00778793          	addi	a5,a5,7
   1ba48:	ff87f793          	andi	a5,a5,-8
   1ba4c:	0047a703          	lw	a4,4(a5)
   1ba50:	0007ad03          	lw	s10,0(a5)
   1ba54:	00878793          	addi	a5,a5,8
   1ba58:	00f12823          	sw	a5,16(sp)
   1ba5c:	00070c93          	mv	s9,a4
   1ba60:	16074a63          	bltz	a4,1bbd4 <_vfiprintf_r+0x5b8>
   1ba64:	fff00713          	li	a4,-1
   1ba68:	000b0d93          	mv	s11,s6
   1ba6c:	00ea8863          	beq	s5,a4,1ba7c <_vfiprintf_r+0x460>
   1ba70:	019d6733          	or	a4,s10,s9
   1ba74:	f7fb7d93          	andi	s11,s6,-129
   1ba78:	0a070ce3          	beqz	a4,1c330 <_vfiprintf_r+0xd14>
   1ba7c:	160c96e3          	bnez	s9,1c3e8 <_vfiprintf_r+0xdcc>
   1ba80:	00900713          	li	a4,9
   1ba84:	17a762e3          	bltu	a4,s10,1c3e8 <_vfiprintf_r+0xdcc>
   1ba88:	030d0793          	addi	a5,s10,48
   1ba8c:	0ef107a3          	sb	a5,239(sp)
   1ba90:	000d8b13          	mv	s6,s11
   1ba94:	00100d13          	li	s10,1
   1ba98:	0ef10413          	addi	s0,sp,239
   1ba9c:	000a8c93          	mv	s9,s5
   1baa0:	01aad463          	bge	s5,s10,1baa8 <_vfiprintf_r+0x48c>
   1baa4:	000d0c93          	mv	s9,s10
   1baa8:	03b14783          	lbu	a5,59(sp)
   1baac:	00f037b3          	snez	a5,a5
   1bab0:	00fc8cb3          	add	s9,s9,a5
   1bab4:	d85ff06f          	j	1b838 <_vfiprintf_r+0x21c>
   1bab8:	00098593          	mv	a1,s3
   1babc:	000a0513          	mv	a0,s4
   1bac0:	ce8f70ef          	jal	ra,12fa8 <__swsetup_r>
   1bac4:	560510e3          	bnez	a0,1c824 <_vfiprintf_r+0x1208>
   1bac8:	00c9d783          	lhu	a5,12(s3)
   1bacc:	00a00713          	li	a4,10
   1bad0:	01a7f793          	andi	a5,a5,26
   1bad4:	bee79ee3          	bne	a5,a4,1b6d0 <_vfiprintf_r+0xb4>
   1bad8:	00e99783          	lh	a5,14(s3)
   1badc:	be07cae3          	bltz	a5,1b6d0 <_vfiprintf_r+0xb4>
   1bae0:	01012683          	lw	a3,16(sp)
   1bae4:	000b8613          	mv	a2,s7
   1bae8:	00098593          	mv	a1,s3
   1baec:	000a0513          	mv	a0,s4
   1baf0:	589000ef          	jal	ra,1c878 <__sbprintf>
   1baf4:	00a12623          	sw	a0,12(sp)
   1baf8:	eadff06f          	j	1b9a4 <_vfiprintf_r+0x388>
   1bafc:	010b6b13          	ori	s6,s6,16
   1bb00:	020b7793          	andi	a5,s6,32
   1bb04:	06078a63          	beqz	a5,1bb78 <_vfiprintf_r+0x55c>
   1bb08:	01012783          	lw	a5,16(sp)
   1bb0c:	00778793          	addi	a5,a5,7
   1bb10:	ff87f793          	andi	a5,a5,-8
   1bb14:	0007ad03          	lw	s10,0(a5)
   1bb18:	0047ac83          	lw	s9,4(a5)
   1bb1c:	00878793          	addi	a5,a5,8
   1bb20:	00f12823          	sw	a5,16(sp)
   1bb24:	bffb7d93          	andi	s11,s6,-1025
   1bb28:	00000713          	li	a4,0
   1bb2c:	02010da3          	sb	zero,59(sp)
   1bb30:	fff00693          	li	a3,-1
   1bb34:	0cda8463          	beq	s5,a3,1bbfc <_vfiprintf_r+0x5e0>
   1bb38:	019d66b3          	or	a3,s10,s9
   1bb3c:	f7fdfb13          	andi	s6,s11,-129
   1bb40:	5a069063          	bnez	a3,1c0e0 <_vfiprintf_r+0xac4>
   1bb44:	300a9c63          	bnez	s5,1be5c <_vfiprintf_r+0x840>
   1bb48:	7e071863          	bnez	a4,1c338 <_vfiprintf_r+0xd1c>
   1bb4c:	001dfd13          	andi	s10,s11,1
   1bb50:	0f010413          	addi	s0,sp,240
   1bb54:	f40d04e3          	beqz	s10,1ba9c <_vfiprintf_r+0x480>
   1bb58:	03000793          	li	a5,48
   1bb5c:	0ef107a3          	sb	a5,239(sp)
   1bb60:	0ef10413          	addi	s0,sp,239
   1bb64:	f39ff06f          	j	1ba9c <_vfiprintf_r+0x480>
   1bb68:	41840cb3          	sub	s9,s0,s8
   1bb6c:	bd841ce3          	bne	s0,s8,1b744 <_vfiprintf_r+0x128>
   1bb70:	00044783          	lbu	a5,0(s0)
   1bb74:	c29ff06f          	j	1b79c <_vfiprintf_r+0x180>
   1bb78:	01012683          	lw	a3,16(sp)
   1bb7c:	010b7793          	andi	a5,s6,16
   1bb80:	00468713          	addi	a4,a3,4
   1bb84:	16079ce3          	bnez	a5,1c4fc <_vfiprintf_r+0xee0>
   1bb88:	040b7793          	andi	a5,s6,64
   1bb8c:	380788e3          	beqz	a5,1c71c <_vfiprintf_r+0x1100>
   1bb90:	01012783          	lw	a5,16(sp)
   1bb94:	00000c93          	li	s9,0
   1bb98:	00e12823          	sw	a4,16(sp)
   1bb9c:	0007dd03          	lhu	s10,0(a5)
   1bba0:	f85ff06f          	j	1bb24 <_vfiprintf_r+0x508>
   1bba4:	01012683          	lw	a3,16(sp)
   1bba8:	010b7793          	andi	a5,s6,16
   1bbac:	00468713          	addi	a4,a3,4
   1bbb0:	100794e3          	bnez	a5,1c4b8 <_vfiprintf_r+0xe9c>
   1bbb4:	040b7793          	andi	a5,s6,64
   1bbb8:	320782e3          	beqz	a5,1c6dc <_vfiprintf_r+0x10c0>
   1bbbc:	01012783          	lw	a5,16(sp)
   1bbc0:	00e12823          	sw	a4,16(sp)
   1bbc4:	00079d03          	lh	s10,0(a5)
   1bbc8:	41fd5c93          	srai	s9,s10,0x1f
   1bbcc:	000c8713          	mv	a4,s9
   1bbd0:	e8075ae3          	bgez	a4,1ba64 <_vfiprintf_r+0x448>
   1bbd4:	01a03733          	snez	a4,s10
   1bbd8:	41900eb3          	neg	t4,s9
   1bbdc:	40ee8cb3          	sub	s9,t4,a4
   1bbe0:	02d00713          	li	a4,45
   1bbe4:	02e10da3          	sb	a4,59(sp)
   1bbe8:	fff00693          	li	a3,-1
   1bbec:	41a00d33          	neg	s10,s10
   1bbf0:	000b0d93          	mv	s11,s6
   1bbf4:	00100713          	li	a4,1
   1bbf8:	f4da90e3          	bne	s5,a3,1bb38 <_vfiprintf_r+0x51c>
   1bbfc:	00100693          	li	a3,1
   1bc00:	e6d70ee3          	beq	a4,a3,1ba7c <_vfiprintf_r+0x460>
   1bc04:	00200693          	li	a3,2
   1bc08:	26d70463          	beq	a4,a3,1be70 <_vfiprintf_r+0x854>
   1bc0c:	0f010413          	addi	s0,sp,240
   1bc10:	01dc9793          	slli	a5,s9,0x1d
   1bc14:	007d7713          	andi	a4,s10,7
   1bc18:	003d5d13          	srli	s10,s10,0x3
   1bc1c:	03070713          	addi	a4,a4,48
   1bc20:	01a7ed33          	or	s10,a5,s10
   1bc24:	003cdc93          	srli	s9,s9,0x3
   1bc28:	fee40fa3          	sb	a4,-1(s0)
   1bc2c:	019d67b3          	or	a5,s10,s9
   1bc30:	00040613          	mv	a2,s0
   1bc34:	fff40413          	addi	s0,s0,-1
   1bc38:	fc079ce3          	bnez	a5,1bc10 <_vfiprintf_r+0x5f4>
   1bc3c:	001df793          	andi	a5,s11,1
   1bc40:	26078263          	beqz	a5,1bea4 <_vfiprintf_r+0x888>
   1bc44:	03000793          	li	a5,48
   1bc48:	24f70e63          	beq	a4,a5,1bea4 <_vfiprintf_r+0x888>
   1bc4c:	ffe60613          	addi	a2,a2,-2
   1bc50:	fef40fa3          	sb	a5,-1(s0)
   1bc54:	0f010793          	addi	a5,sp,240
   1bc58:	40c78d33          	sub	s10,a5,a2
   1bc5c:	000d8b13          	mv	s6,s11
   1bc60:	00060413          	mv	s0,a2
   1bc64:	e39ff06f          	j	1ba9c <_vfiprintf_r+0x480>
   1bc68:	bd5f70ef          	jal	ra,1383c <__sinit>
   1bc6c:	a05ff06f          	j	1b670 <_vfiprintf_r+0x54>
   1bc70:	01012783          	lw	a5,16(sp)
   1bc74:	02010da3          	sb	zero,59(sp)
   1bc78:	0007a403          	lw	s0,0(a5)
   1bc7c:	00478d93          	addi	s11,a5,4
   1bc80:	220400e3          	beqz	s0,1c6a0 <_vfiprintf_r+0x1084>
   1bc84:	fff00793          	li	a5,-1
   1bc88:	12fa88e3          	beq	s5,a5,1c5b8 <_vfiprintf_r+0xf9c>
   1bc8c:	000a8613          	mv	a2,s5
   1bc90:	00000593          	li	a1,0
   1bc94:	00040513          	mv	a0,s0
   1bc98:	f24fb0ef          	jal	ra,173bc <memchr>
   1bc9c:	360500e3          	beqz	a0,1c7fc <_vfiprintf_r+0x11e0>
   1bca0:	40850d33          	sub	s10,a0,s0
   1bca4:	01b12823          	sw	s11,16(sp)
   1bca8:	00000a93          	li	s5,0
   1bcac:	df1ff06f          	j	1ba9c <_vfiprintf_r+0x480>
   1bcb0:	01012703          	lw	a4,16(sp)
   1bcb4:	02010da3          	sb	zero,59(sp)
   1bcb8:	00100c93          	li	s9,1
   1bcbc:	00072783          	lw	a5,0(a4)
   1bcc0:	00470713          	addi	a4,a4,4
   1bcc4:	00e12823          	sw	a4,16(sp)
   1bcc8:	08f10623          	sb	a5,140(sp)
   1bccc:	00100d13          	li	s10,1
   1bcd0:	08c10413          	addi	s0,sp,140
   1bcd4:	b61ff06f          	j	1b834 <_vfiprintf_r+0x218>
   1bcd8:	01012783          	lw	a5,16(sp)
   1bcdc:	ffff8737          	lui	a4,0xffff8
   1bce0:	83074713          	xori	a4,a4,-2000
   1bce4:	0007ad03          	lw	s10,0(a5)
   1bce8:	00478793          	addi	a5,a5,4
   1bcec:	00f12823          	sw	a5,16(sp)
   1bcf0:	000247b7          	lui	a5,0x24
   1bcf4:	76478793          	addi	a5,a5,1892 # 24764 <__clzsi2+0x68>
   1bcf8:	02e11e23          	sh	a4,60(sp)
   1bcfc:	00000c93          	li	s9,0
   1bd00:	002b6d93          	ori	s11,s6,2
   1bd04:	00f12c23          	sw	a5,24(sp)
   1bd08:	00200713          	li	a4,2
   1bd0c:	e21ff06f          	j	1bb2c <_vfiprintf_r+0x510>
   1bd10:	000c4703          	lbu	a4,0(s8)
   1bd14:	06c00793          	li	a5,108
   1bd18:	16f706e3          	beq	a4,a5,1c684 <_vfiprintf_r+0x1068>
   1bd1c:	010b6b13          	ori	s6,s6,16
   1bd20:	aa5ff06f          	j	1b7c4 <_vfiprintf_r+0x1a8>
   1bd24:	000c4703          	lbu	a4,0(s8)
   1bd28:	06800793          	li	a5,104
   1bd2c:	14f704e3          	beq	a4,a5,1c674 <_vfiprintf_r+0x1058>
   1bd30:	040b6b13          	ori	s6,s6,64
   1bd34:	a91ff06f          	j	1b7c4 <_vfiprintf_r+0x1a8>
   1bd38:	010b6d93          	ori	s11,s6,16
   1bd3c:	020df793          	andi	a5,s11,32
   1bd40:	60078463          	beqz	a5,1c348 <_vfiprintf_r+0xd2c>
   1bd44:	01012783          	lw	a5,16(sp)
   1bd48:	00100713          	li	a4,1
   1bd4c:	00778793          	addi	a5,a5,7
   1bd50:	ff87f793          	andi	a5,a5,-8
   1bd54:	0007ad03          	lw	s10,0(a5)
   1bd58:	0047ac83          	lw	s9,4(a5)
   1bd5c:	00878793          	addi	a5,a5,8
   1bd60:	00f12823          	sw	a5,16(sp)
   1bd64:	dc9ff06f          	j	1bb2c <_vfiprintf_r+0x510>
   1bd68:	000c4703          	lbu	a4,0(s8)
   1bd6c:	080b6b13          	ori	s6,s6,128
   1bd70:	a55ff06f          	j	1b7c4 <_vfiprintf_r+0x1a8>
   1bd74:	01012683          	lw	a3,16(sp)
   1bd78:	000c4703          	lbu	a4,0(s8)
   1bd7c:	0006a783          	lw	a5,0(a3)
   1bd80:	00468693          	addi	a3,a3,4
   1bd84:	00d12823          	sw	a3,16(sp)
   1bd88:	00f12223          	sw	a5,4(sp)
   1bd8c:	a207dce3          	bgez	a5,1b7c4 <_vfiprintf_r+0x1a8>
   1bd90:	40f007b3          	neg	a5,a5
   1bd94:	00f12223          	sw	a5,4(sp)
   1bd98:	004b6b13          	ori	s6,s6,4
   1bd9c:	a29ff06f          	j	1b7c4 <_vfiprintf_r+0x1a8>
   1bda0:	000c4703          	lbu	a4,0(s8)
   1bda4:	001b6b13          	ori	s6,s6,1
   1bda8:	a1dff06f          	j	1b7c4 <_vfiprintf_r+0x1a8>
   1bdac:	03b14783          	lbu	a5,59(sp)
   1bdb0:	000c4703          	lbu	a4,0(s8)
   1bdb4:	a00798e3          	bnez	a5,1b7c4 <_vfiprintf_r+0x1a8>
   1bdb8:	02000793          	li	a5,32
   1bdbc:	02f10da3          	sb	a5,59(sp)
   1bdc0:	a05ff06f          	j	1b7c4 <_vfiprintf_r+0x1a8>
   1bdc4:	000c4703          	lbu	a4,0(s8)
   1bdc8:	004b6b13          	ori	s6,s6,4
   1bdcc:	9f9ff06f          	j	1b7c4 <_vfiprintf_r+0x1a8>
   1bdd0:	02b00793          	li	a5,43
   1bdd4:	000c4703          	lbu	a4,0(s8)
   1bdd8:	02f10da3          	sb	a5,59(sp)
   1bddc:	9e9ff06f          	j	1b7c4 <_vfiprintf_r+0x1a8>
   1bde0:	000c4703          	lbu	a4,0(s8)
   1bde4:	001c0693          	addi	a3,s8,1
   1bde8:	24c70ae3          	beq	a4,a2,1c83c <_vfiprintf_r+0x1220>
   1bdec:	fd070793          	addi	a5,a4,-48 # ffff7fd0 <__BSS_END__+0xfffd10a4>
   1bdf0:	00068c13          	mv	s8,a3
   1bdf4:	00000a93          	li	s5,0
   1bdf8:	9cfd68e3          	bltu	s10,a5,1b7c8 <_vfiprintf_r+0x1ac>
   1bdfc:	000c4703          	lbu	a4,0(s8)
   1be00:	002a9693          	slli	a3,s5,0x2
   1be04:	01568ab3          	add	s5,a3,s5
   1be08:	001a9a93          	slli	s5,s5,0x1
   1be0c:	00fa8ab3          	add	s5,s5,a5
   1be10:	fd070793          	addi	a5,a4,-48
   1be14:	001c0c13          	addi	s8,s8,1
   1be18:	fefd72e3          	bgeu	s10,a5,1bdfc <_vfiprintf_r+0x7e0>
   1be1c:	9adff06f          	j	1b7c8 <_vfiprintf_r+0x1ac>
   1be20:	01012683          	lw	a3,16(sp)
   1be24:	020b7793          	andi	a5,s6,32
   1be28:	0006a703          	lw	a4,0(a3)
   1be2c:	00468693          	addi	a3,a3,4
   1be30:	00d12823          	sw	a3,16(sp)
   1be34:	6a079a63          	bnez	a5,1c4e8 <_vfiprintf_r+0xecc>
   1be38:	010b7793          	andi	a5,s6,16
   1be3c:	04079ce3          	bnez	a5,1c694 <_vfiprintf_r+0x1078>
   1be40:	040b7793          	andi	a5,s6,64
   1be44:	140790e3          	bnez	a5,1c784 <_vfiprintf_r+0x1168>
   1be48:	200b7313          	andi	t1,s6,512
   1be4c:	040304e3          	beqz	t1,1c694 <_vfiprintf_r+0x1078>
   1be50:	00c12783          	lw	a5,12(sp)
   1be54:	00f70023          	sb	a5,0(a4)
   1be58:	8c5ff06f          	j	1b71c <_vfiprintf_r+0x100>
   1be5c:	00100693          	li	a3,1
   1be60:	1ad70ee3          	beq	a4,a3,1c81c <_vfiprintf_r+0x1200>
   1be64:	00200693          	li	a3,2
   1be68:	000b0d93          	mv	s11,s6
   1be6c:	dad710e3          	bne	a4,a3,1bc0c <_vfiprintf_r+0x5f0>
   1be70:	01812683          	lw	a3,24(sp)
   1be74:	0f010413          	addi	s0,sp,240
   1be78:	00fd7793          	andi	a5,s10,15
   1be7c:	00f687b3          	add	a5,a3,a5
   1be80:	0007c703          	lbu	a4,0(a5)
   1be84:	004d5d13          	srli	s10,s10,0x4
   1be88:	01cc9793          	slli	a5,s9,0x1c
   1be8c:	01a7ed33          	or	s10,a5,s10
   1be90:	004cdc93          	srli	s9,s9,0x4
   1be94:	fee40fa3          	sb	a4,-1(s0)
   1be98:	019d67b3          	or	a5,s10,s9
   1be9c:	fff40413          	addi	s0,s0,-1
   1bea0:	fc079ce3          	bnez	a5,1be78 <_vfiprintf_r+0x85c>
   1bea4:	0f010793          	addi	a5,sp,240
   1bea8:	40878d33          	sub	s10,a5,s0
   1beac:	000d8b13          	mv	s6,s11
   1beb0:	bedff06f          	j	1ba9c <_vfiprintf_r+0x480>
   1beb4:	00412583          	lw	a1,4(sp)
   1beb8:	41958db3          	sub	s11,a1,s9
   1bebc:	a5b058e3          	blez	s11,1b90c <_vfiprintf_r+0x2f0>
   1bec0:	01000593          	li	a1,16
   1bec4:	17b5d6e3          	bge	a1,s11,1c830 <_vfiprintf_r+0x1214>
   1bec8:	01000e93          	li	t4,16
   1becc:	00700f13          	li	t5,7
   1bed0:	0180006f          	j	1bee8 <_vfiprintf_r+0x8cc>
   1bed4:	00270613          	addi	a2,a4,2
   1bed8:	008b8b93          	addi	s7,s7,8
   1bedc:	00068713          	mv	a4,a3
   1bee0:	ff0d8d93          	addi	s11,s11,-16
   1bee4:	05bedc63          	bge	t4,s11,1bf3c <_vfiprintf_r+0x920>
   1bee8:	01078793          	addi	a5,a5,16
   1beec:	00170693          	addi	a3,a4,1
   1bef0:	012ba023          	sw	s2,0(s7)
   1bef4:	01dba223          	sw	t4,4(s7)
   1bef8:	04f12423          	sw	a5,72(sp)
   1befc:	04d12223          	sw	a3,68(sp)
   1bf00:	fcdf5ae3          	bge	t5,a3,1bed4 <_vfiprintf_r+0x8b8>
   1bf04:	16078063          	beqz	a5,1c064 <_vfiprintf_r+0xa48>
   1bf08:	04010613          	addi	a2,sp,64
   1bf0c:	00098593          	mv	a1,s3
   1bf10:	000a0513          	mv	a0,s4
   1bf14:	e00ff0ef          	jal	ra,1b514 <__sprint_r.part.0>
   1bf18:	a80510e3          	bnez	a0,1b998 <_vfiprintf_r+0x37c>
   1bf1c:	04412703          	lw	a4,68(sp)
   1bf20:	01000e93          	li	t4,16
   1bf24:	ff0d8d93          	addi	s11,s11,-16
   1bf28:	04812783          	lw	a5,72(sp)
   1bf2c:	00048b93          	mv	s7,s1
   1bf30:	00170613          	addi	a2,a4,1
   1bf34:	00700f13          	li	t5,7
   1bf38:	fbbec8e3          	blt	t4,s11,1bee8 <_vfiprintf_r+0x8cc>
   1bf3c:	00060593          	mv	a1,a2
   1bf40:	008b8513          	addi	a0,s7,8
   1bf44:	01b787b3          	add	a5,a5,s11
   1bf48:	012ba023          	sw	s2,0(s7)
   1bf4c:	01bba223          	sw	s11,4(s7)
   1bf50:	04f12423          	sw	a5,72(sp)
   1bf54:	04b12223          	sw	a1,68(sp)
   1bf58:	00700713          	li	a4,7
   1bf5c:	52b75a63          	bge	a4,a1,1c490 <_vfiprintf_r+0xe74>
   1bf60:	7e078663          	beqz	a5,1c74c <_vfiprintf_r+0x1130>
   1bf64:	04010613          	addi	a2,sp,64
   1bf68:	00098593          	mv	a1,s3
   1bf6c:	000a0513          	mv	a0,s4
   1bf70:	da4ff0ef          	jal	ra,1b514 <__sprint_r.part.0>
   1bf74:	a20512e3          	bnez	a0,1b998 <_vfiprintf_r+0x37c>
   1bf78:	04412703          	lw	a4,68(sp)
   1bf7c:	41aa8ab3          	sub	s5,s5,s10
   1bf80:	04812783          	lw	a5,72(sp)
   1bf84:	05410693          	addi	a3,sp,84
   1bf88:	00170613          	addi	a2,a4,1
   1bf8c:	00048b93          	mv	s7,s1
   1bf90:	995052e3          	blez	s5,1b914 <_vfiprintf_r+0x2f8>
   1bf94:	01000593          	li	a1,16
   1bf98:	7b55d063          	bge	a1,s5,1c738 <_vfiprintf_r+0x111c>
   1bf9c:	01000893          	li	a7,16
   1bfa0:	00700d93          	li	s11,7
   1bfa4:	0180006f          	j	1bfbc <_vfiprintf_r+0x9a0>
   1bfa8:	00270613          	addi	a2,a4,2
   1bfac:	008b8b93          	addi	s7,s7,8
   1bfb0:	00068713          	mv	a4,a3
   1bfb4:	ff0a8a93          	addi	s5,s5,-16
   1bfb8:	0558da63          	bge	a7,s5,1c00c <_vfiprintf_r+0x9f0>
   1bfbc:	01078793          	addi	a5,a5,16
   1bfc0:	00170693          	addi	a3,a4,1
   1bfc4:	012ba023          	sw	s2,0(s7)
   1bfc8:	011ba223          	sw	a7,4(s7)
   1bfcc:	04f12423          	sw	a5,72(sp)
   1bfd0:	04d12223          	sw	a3,68(sp)
   1bfd4:	fcdddae3          	bge	s11,a3,1bfa8 <_vfiprintf_r+0x98c>
   1bfd8:	06078263          	beqz	a5,1c03c <_vfiprintf_r+0xa20>
   1bfdc:	04010613          	addi	a2,sp,64
   1bfe0:	00098593          	mv	a1,s3
   1bfe4:	000a0513          	mv	a0,s4
   1bfe8:	d2cff0ef          	jal	ra,1b514 <__sprint_r.part.0>
   1bfec:	9a0516e3          	bnez	a0,1b998 <_vfiprintf_r+0x37c>
   1bff0:	04412703          	lw	a4,68(sp)
   1bff4:	01000893          	li	a7,16
   1bff8:	ff0a8a93          	addi	s5,s5,-16
   1bffc:	04812783          	lw	a5,72(sp)
   1c000:	00048b93          	mv	s7,s1
   1c004:	00170613          	addi	a2,a4,1
   1c008:	fb58cae3          	blt	a7,s5,1bfbc <_vfiprintf_r+0x9a0>
   1c00c:	008b8593          	addi	a1,s7,8
   1c010:	015787b3          	add	a5,a5,s5
   1c014:	012ba023          	sw	s2,0(s7)
   1c018:	015ba223          	sw	s5,4(s7)
   1c01c:	04f12423          	sw	a5,72(sp)
   1c020:	04c12223          	sw	a2,68(sp)
   1c024:	00700713          	li	a4,7
   1c028:	2cc74663          	blt	a4,a2,1c2f4 <_vfiprintf_r+0xcd8>
   1c02c:	00160613          	addi	a2,a2,1
   1c030:	00858693          	addi	a3,a1,8
   1c034:	00058b93          	mv	s7,a1
   1c038:	8ddff06f          	j	1b914 <_vfiprintf_r+0x2f8>
   1c03c:	00100613          	li	a2,1
   1c040:	00000713          	li	a4,0
   1c044:	00048b93          	mv	s7,s1
   1c048:	f6dff06f          	j	1bfb4 <_vfiprintf_r+0x998>
   1c04c:	04010613          	addi	a2,sp,64
   1c050:	00098593          	mv	a1,s3
   1c054:	000a0513          	mv	a0,s4
   1c058:	cbcff0ef          	jal	ra,1b514 <__sprint_r.part.0>
   1c05c:	920502e3          	beqz	a0,1b980 <_vfiprintf_r+0x364>
   1c060:	939ff06f          	j	1b998 <_vfiprintf_r+0x37c>
   1c064:	00100613          	li	a2,1
   1c068:	00000713          	li	a4,0
   1c06c:	00048b93          	mv	s7,s1
   1c070:	e71ff06f          	j	1bee0 <_vfiprintf_r+0x8c4>
   1c074:	30078c63          	beqz	a5,1c38c <_vfiprintf_r+0xd70>
   1c078:	04010613          	addi	a2,sp,64
   1c07c:	00098593          	mv	a1,s3
   1c080:	000a0513          	mv	a0,s4
   1c084:	03e12623          	sw	t5,44(sp)
   1c088:	03f12423          	sw	t6,40(sp)
   1c08c:	c88ff0ef          	jal	ra,1b514 <__sprint_r.part.0>
   1c090:	900514e3          	bnez	a0,1b998 <_vfiprintf_r+0x37c>
   1c094:	04412703          	lw	a4,68(sp)
   1c098:	04812783          	lw	a5,72(sp)
   1c09c:	02c12f03          	lw	t5,44(sp)
   1c0a0:	02812f83          	lw	t6,40(sp)
   1c0a4:	05410693          	addi	a3,sp,84
   1c0a8:	00170613          	addi	a2,a4,1
   1c0ac:	00048b93          	mv	s7,s1
   1c0b0:	ff8ff06f          	j	1b8a8 <_vfiprintf_r+0x28c>
   1c0b4:	03c10793          	addi	a5,sp,60
   1c0b8:	04f12623          	sw	a5,76(sp)
   1c0bc:	00200793          	li	a5,2
   1c0c0:	04f12823          	sw	a5,80(sp)
   1c0c4:	00100613          	li	a2,1
   1c0c8:	05410693          	addi	a3,sp,84
   1c0cc:	00060713          	mv	a4,a2
   1c0d0:	00068b93          	mv	s7,a3
   1c0d4:	00170613          	addi	a2,a4,1
   1c0d8:	008b8693          	addi	a3,s7,8
   1c0dc:	829ff06f          	j	1b904 <_vfiprintf_r+0x2e8>
   1c0e0:	000b0d93          	mv	s11,s6
   1c0e4:	b19ff06f          	j	1bbfc <_vfiprintf_r+0x5e0>
   1c0e8:	01000613          	li	a2,16
   1c0ec:	73b65063          	bge	a2,s11,1c80c <_vfiprintf_r+0x11f0>
   1c0f0:	000b8613          	mv	a2,s7
   1c0f4:	01000e93          	li	t4,16
   1c0f8:	00040b93          	mv	s7,s0
   1c0fc:	00700293          	li	t0,7
   1c100:	00098413          	mv	s0,s3
   1c104:	03f12423          	sw	t6,40(sp)
   1c108:	000d8993          	mv	s3,s11
   1c10c:	000c0d93          	mv	s11,s8
   1c110:	000a8c13          	mv	s8,s5
   1c114:	000f0a93          	mv	s5,t5
   1c118:	01c0006f          	j	1c134 <_vfiprintf_r+0xb18>
   1c11c:	00270513          	addi	a0,a4,2
   1c120:	00860613          	addi	a2,a2,8
   1c124:	00068713          	mv	a4,a3
   1c128:	ff098993          	addi	s3,s3,-16
   1c12c:	053ede63          	bge	t4,s3,1c188 <_vfiprintf_r+0xb6c>
   1c130:	00170693          	addi	a3,a4,1
   1c134:	00812583          	lw	a1,8(sp)
   1c138:	01078793          	addi	a5,a5,16
   1c13c:	01d62223          	sw	t4,4(a2)
   1c140:	00b62023          	sw	a1,0(a2)
   1c144:	04f12423          	sw	a5,72(sp)
   1c148:	04d12223          	sw	a3,68(sp)
   1c14c:	fcd2d8e3          	bge	t0,a3,1c11c <_vfiprintf_r+0xb00>
   1c150:	08078663          	beqz	a5,1c1dc <_vfiprintf_r+0xbc0>
   1c154:	04010613          	addi	a2,sp,64
   1c158:	00040593          	mv	a1,s0
   1c15c:	000a0513          	mv	a0,s4
   1c160:	bb4ff0ef          	jal	ra,1b514 <__sprint_r.part.0>
   1c164:	4c051663          	bnez	a0,1c630 <_vfiprintf_r+0x1014>
   1c168:	04412703          	lw	a4,68(sp)
   1c16c:	01000e93          	li	t4,16
   1c170:	ff098993          	addi	s3,s3,-16
   1c174:	04812783          	lw	a5,72(sp)
   1c178:	00048613          	mv	a2,s1
   1c17c:	00170513          	addi	a0,a4,1
   1c180:	00700293          	li	t0,7
   1c184:	fb3ec6e3          	blt	t4,s3,1c130 <_vfiprintf_r+0xb14>
   1c188:	02812f83          	lw	t6,40(sp)
   1c18c:	000a8f13          	mv	t5,s5
   1c190:	00050593          	mv	a1,a0
   1c194:	000c0a93          	mv	s5,s8
   1c198:	000d8c13          	mv	s8,s11
   1c19c:	00098d93          	mv	s11,s3
   1c1a0:	00040993          	mv	s3,s0
   1c1a4:	000b8413          	mv	s0,s7
   1c1a8:	00060b93          	mv	s7,a2
   1c1ac:	00812703          	lw	a4,8(sp)
   1c1b0:	01b787b3          	add	a5,a5,s11
   1c1b4:	01bba223          	sw	s11,4(s7)
   1c1b8:	00eba023          	sw	a4,0(s7)
   1c1bc:	04f12423          	sw	a5,72(sp)
   1c1c0:	04b12223          	sw	a1,68(sp)
   1c1c4:	00700713          	li	a4,7
   1c1c8:	1eb74263          	blt	a4,a1,1c3ac <_vfiprintf_r+0xd90>
   1c1cc:	008b8b93          	addi	s7,s7,8
   1c1d0:	00158613          	addi	a2,a1,1
   1c1d4:	00058713          	mv	a4,a1
   1c1d8:	e90ff06f          	j	1b868 <_vfiprintf_r+0x24c>
   1c1dc:	00000713          	li	a4,0
   1c1e0:	00100513          	li	a0,1
   1c1e4:	00048613          	mv	a2,s1
   1c1e8:	f41ff06f          	j	1c128 <_vfiprintf_r+0xb0c>
   1c1ec:	04012223          	sw	zero,68(sp)
   1c1f0:	004b7313          	andi	t1,s6,4
   1c1f4:	0e030263          	beqz	t1,1c2d8 <_vfiprintf_r+0xcbc>
   1c1f8:	00412703          	lw	a4,4(sp)
   1c1fc:	41970bb3          	sub	s7,a4,s9
   1c200:	0d705c63          	blez	s7,1c2d8 <_vfiprintf_r+0xcbc>
   1c204:	00048693          	mv	a3,s1
   1c208:	01000713          	li	a4,16
   1c20c:	04412603          	lw	a2,68(sp)
   1c210:	61775263          	bge	a4,s7,1c814 <_vfiprintf_r+0x11f8>
   1c214:	01000d13          	li	s10,16
   1c218:	00700d93          	li	s11,7
   1c21c:	0180006f          	j	1c234 <_vfiprintf_r+0xc18>
   1c220:	00260513          	addi	a0,a2,2
   1c224:	00868693          	addi	a3,a3,8
   1c228:	00070613          	mv	a2,a4
   1c22c:	ff0b8b93          	addi	s7,s7,-16
   1c230:	057d5a63          	bge	s10,s7,1c284 <_vfiprintf_r+0xc68>
   1c234:	00812583          	lw	a1,8(sp)
   1c238:	01078793          	addi	a5,a5,16
   1c23c:	00160713          	addi	a4,a2,1
   1c240:	00b6a023          	sw	a1,0(a3)
   1c244:	01a6a223          	sw	s10,4(a3)
   1c248:	04f12423          	sw	a5,72(sp)
   1c24c:	04e12223          	sw	a4,68(sp)
   1c250:	fcedd8e3          	bge	s11,a4,1c220 <_vfiprintf_r+0xc04>
   1c254:	06078a63          	beqz	a5,1c2c8 <_vfiprintf_r+0xcac>
   1c258:	04010613          	addi	a2,sp,64
   1c25c:	00098593          	mv	a1,s3
   1c260:	000a0513          	mv	a0,s4
   1c264:	ab0ff0ef          	jal	ra,1b514 <__sprint_r.part.0>
   1c268:	f2051863          	bnez	a0,1b998 <_vfiprintf_r+0x37c>
   1c26c:	04412603          	lw	a2,68(sp)
   1c270:	ff0b8b93          	addi	s7,s7,-16
   1c274:	04812783          	lw	a5,72(sp)
   1c278:	00048693          	mv	a3,s1
   1c27c:	00160513          	addi	a0,a2,1
   1c280:	fb7d4ae3          	blt	s10,s7,1c234 <_vfiprintf_r+0xc18>
   1c284:	00050593          	mv	a1,a0
   1c288:	00812703          	lw	a4,8(sp)
   1c28c:	017787b3          	add	a5,a5,s7
   1c290:	0176a223          	sw	s7,4(a3)
   1c294:	00e6a023          	sw	a4,0(a3)
   1c298:	04f12423          	sw	a5,72(sp)
   1c29c:	04b12223          	sw	a1,68(sp)
   1c2a0:	00700713          	li	a4,7
   1c2a4:	ecb75063          	bge	a4,a1,1b964 <_vfiprintf_r+0x348>
   1c2a8:	02078863          	beqz	a5,1c2d8 <_vfiprintf_r+0xcbc>
   1c2ac:	04010613          	addi	a2,sp,64
   1c2b0:	00098593          	mv	a1,s3
   1c2b4:	000a0513          	mv	a0,s4
   1c2b8:	a5cff0ef          	jal	ra,1b514 <__sprint_r.part.0>
   1c2bc:	ec051e63          	bnez	a0,1b998 <_vfiprintf_r+0x37c>
   1c2c0:	04812783          	lw	a5,72(sp)
   1c2c4:	ea0ff06f          	j	1b964 <_vfiprintf_r+0x348>
   1c2c8:	00100513          	li	a0,1
   1c2cc:	00000613          	li	a2,0
   1c2d0:	00048693          	mv	a3,s1
   1c2d4:	f59ff06f          	j	1c22c <_vfiprintf_r+0xc10>
   1c2d8:	00412403          	lw	s0,4(sp)
   1c2dc:	01945463          	bge	s0,s9,1c2e4 <_vfiprintf_r+0xcc8>
   1c2e0:	000c8413          	mv	s0,s9
   1c2e4:	00c12783          	lw	a5,12(sp)
   1c2e8:	008787b3          	add	a5,a5,s0
   1c2ec:	00f12623          	sw	a5,12(sp)
   1c2f0:	e90ff06f          	j	1b980 <_vfiprintf_r+0x364>
   1c2f4:	34078263          	beqz	a5,1c638 <_vfiprintf_r+0x101c>
   1c2f8:	04010613          	addi	a2,sp,64
   1c2fc:	00098593          	mv	a1,s3
   1c300:	000a0513          	mv	a0,s4
   1c304:	a10ff0ef          	jal	ra,1b514 <__sprint_r.part.0>
   1c308:	e8051863          	bnez	a0,1b998 <_vfiprintf_r+0x37c>
   1c30c:	04412603          	lw	a2,68(sp)
   1c310:	04812783          	lw	a5,72(sp)
   1c314:	05410693          	addi	a3,sp,84
   1c318:	00160613          	addi	a2,a2,1
   1c31c:	00048b93          	mv	s7,s1
   1c320:	df4ff06f          	j	1b914 <_vfiprintf_r+0x2f8>
   1c324:	04012223          	sw	zero,68(sp)
   1c328:	00048b93          	mv	s7,s1
   1c32c:	c60ff06f          	j	1b78c <_vfiprintf_r+0x170>
   1c330:	f40a9c63          	bnez	s5,1ba88 <_vfiprintf_r+0x46c>
   1c334:	000d8b13          	mv	s6,s11
   1c338:	00000a93          	li	s5,0
   1c33c:	00000d13          	li	s10,0
   1c340:	0f010413          	addi	s0,sp,240
   1c344:	f58ff06f          	j	1ba9c <_vfiprintf_r+0x480>
   1c348:	01012683          	lw	a3,16(sp)
   1c34c:	010df793          	andi	a5,s11,16
   1c350:	00468713          	addi	a4,a3,4
   1c354:	14079863          	bnez	a5,1c4a4 <_vfiprintf_r+0xe88>
   1c358:	040df793          	andi	a5,s11,64
   1c35c:	3a078063          	beqz	a5,1c6fc <_vfiprintf_r+0x10e0>
   1c360:	01012783          	lw	a5,16(sp)
   1c364:	00000c93          	li	s9,0
   1c368:	00e12823          	sw	a4,16(sp)
   1c36c:	0007dd03          	lhu	s10,0(a5)
   1c370:	00100713          	li	a4,1
   1c374:	fb8ff06f          	j	1bb2c <_vfiprintf_r+0x510>
   1c378:	05410693          	addi	a3,sp,84
   1c37c:	00100613          	li	a2,1
   1c380:	00000713          	li	a4,0
   1c384:	00048b93          	mv	s7,s1
   1c388:	d7cff06f          	j	1b904 <_vfiprintf_r+0x2e8>
   1c38c:	180f8063          	beqz	t6,1c50c <_vfiprintf_r+0xef0>
   1c390:	03c10793          	addi	a5,sp,60
   1c394:	04f12623          	sw	a5,76(sp)
   1c398:	00200793          	li	a5,2
   1c39c:	04f12823          	sw	a5,80(sp)
   1c3a0:	00100713          	li	a4,1
   1c3a4:	05410b93          	addi	s7,sp,84
   1c3a8:	d2dff06f          	j	1c0d4 <_vfiprintf_r+0xab8>
   1c3ac:	22078263          	beqz	a5,1c5d0 <_vfiprintf_r+0xfb4>
   1c3b0:	04010613          	addi	a2,sp,64
   1c3b4:	00098593          	mv	a1,s3
   1c3b8:	000a0513          	mv	a0,s4
   1c3bc:	03e12623          	sw	t5,44(sp)
   1c3c0:	03f12423          	sw	t6,40(sp)
   1c3c4:	950ff0ef          	jal	ra,1b514 <__sprint_r.part.0>
   1c3c8:	dc051863          	bnez	a0,1b998 <_vfiprintf_r+0x37c>
   1c3cc:	04412703          	lw	a4,68(sp)
   1c3d0:	04812783          	lw	a5,72(sp)
   1c3d4:	02c12f03          	lw	t5,44(sp)
   1c3d8:	02812f83          	lw	t6,40(sp)
   1c3dc:	00048b93          	mv	s7,s1
   1c3e0:	00170613          	addi	a2,a4,1
   1c3e4:	c84ff06f          	j	1b868 <_vfiprintf_r+0x24c>
   1c3e8:	400df793          	andi	a5,s11,1024
   1c3ec:	03412423          	sw	s4,40(sp)
   1c3f0:	03312623          	sw	s3,44(sp)
   1c3f4:	000c8a13          	mv	s4,s9
   1c3f8:	000d0993          	mv	s3,s10
   1c3fc:	00000b13          	li	s6,0
   1c400:	01c12d03          	lw	s10,28(sp)
   1c404:	0f010413          	addi	s0,sp,240
   1c408:	00078c93          	mv	s9,a5
   1c40c:	0240006f          	j	1c430 <_vfiprintf_r+0xe14>
   1c410:	00a00613          	li	a2,10
   1c414:	00000693          	li	a3,0
   1c418:	00098513          	mv	a0,s3
   1c41c:	000a0593          	mv	a1,s4
   1c420:	4b4030ef          	jal	ra,1f8d4 <__udivdi3>
   1c424:	300a0e63          	beqz	s4,1c740 <_vfiprintf_r+0x1124>
   1c428:	00050993          	mv	s3,a0
   1c42c:	00058a13          	mv	s4,a1
   1c430:	00a00613          	li	a2,10
   1c434:	00000693          	li	a3,0
   1c438:	00098513          	mv	a0,s3
   1c43c:	000a0593          	mv	a1,s4
   1c440:	26d030ef          	jal	ra,1feac <__umoddi3>
   1c444:	03050513          	addi	a0,a0,48
   1c448:	fea40fa3          	sb	a0,-1(s0)
   1c44c:	001b0b13          	addi	s6,s6,1
   1c450:	fff40413          	addi	s0,s0,-1
   1c454:	fa0c8ee3          	beqz	s9,1c410 <_vfiprintf_r+0xdf4>
   1c458:	000d4683          	lbu	a3,0(s10)
   1c45c:	fb669ae3          	bne	a3,s6,1c410 <_vfiprintf_r+0xdf4>
   1c460:	0ff00793          	li	a5,255
   1c464:	fafb06e3          	beq	s6,a5,1c410 <_vfiprintf_r+0xdf4>
   1c468:	180a1463          	bnez	s4,1c5f0 <_vfiprintf_r+0xfd4>
   1c46c:	00900793          	li	a5,9
   1c470:	1937e063          	bltu	a5,s3,1c5f0 <_vfiprintf_r+0xfd4>
   1c474:	0f010793          	addi	a5,sp,240
   1c478:	01a12e23          	sw	s10,28(sp)
   1c47c:	02812a03          	lw	s4,40(sp)
   1c480:	02c12983          	lw	s3,44(sp)
   1c484:	40878d33          	sub	s10,a5,s0
   1c488:	000d8b13          	mv	s6,s11
   1c48c:	e10ff06f          	j	1ba9c <_vfiprintf_r+0x480>
   1c490:	00158613          	addi	a2,a1,1
   1c494:	00850693          	addi	a3,a0,8
   1c498:	00058713          	mv	a4,a1
   1c49c:	00050b93          	mv	s7,a0
   1c4a0:	c6cff06f          	j	1b90c <_vfiprintf_r+0x2f0>
   1c4a4:	00e12823          	sw	a4,16(sp)
   1c4a8:	0006ad03          	lw	s10,0(a3)
   1c4ac:	00000c93          	li	s9,0
   1c4b0:	00100713          	li	a4,1
   1c4b4:	e78ff06f          	j	1bb2c <_vfiprintf_r+0x510>
   1c4b8:	0006ad03          	lw	s10,0(a3)
   1c4bc:	00e12823          	sw	a4,16(sp)
   1c4c0:	41fd5c93          	srai	s9,s10,0x1f
   1c4c4:	000c8713          	mv	a4,s9
   1c4c8:	d98ff06f          	j	1ba60 <_vfiprintf_r+0x444>
   1c4cc:	01c12783          	lw	a5,28(sp)
   1c4d0:	000c4703          	lbu	a4,0(s8)
   1c4d4:	ae078863          	beqz	a5,1b7c4 <_vfiprintf_r+0x1a8>
   1c4d8:	0007c783          	lbu	a5,0(a5)
   1c4dc:	ae078463          	beqz	a5,1b7c4 <_vfiprintf_r+0x1a8>
   1c4e0:	400b6b13          	ori	s6,s6,1024
   1c4e4:	ae0ff06f          	j	1b7c4 <_vfiprintf_r+0x1a8>
   1c4e8:	00c12683          	lw	a3,12(sp)
   1c4ec:	41f6d793          	srai	a5,a3,0x1f
   1c4f0:	00d72023          	sw	a3,0(a4)
   1c4f4:	00f72223          	sw	a5,4(a4)
   1c4f8:	a24ff06f          	j	1b71c <_vfiprintf_r+0x100>
   1c4fc:	0006ad03          	lw	s10,0(a3)
   1c500:	00000c93          	li	s9,0
   1c504:	00e12823          	sw	a4,16(sp)
   1c508:	e1cff06f          	j	1bb24 <_vfiprintf_r+0x508>
   1c50c:	00000713          	li	a4,0
   1c510:	05410693          	addi	a3,sp,84
   1c514:	00100613          	li	a2,1
   1c518:	00048b93          	mv	s7,s1
   1c51c:	be8ff06f          	j	1b904 <_vfiprintf_r+0x2e8>
   1c520:	000b0d93          	mv	s11,s6
   1c524:	819ff06f          	j	1bd3c <_vfiprintf_r+0x720>
   1c528:	000247b7          	lui	a5,0x24
   1c52c:	77878793          	addi	a5,a5,1912 # 24778 <__clzsi2+0x7c>
   1c530:	00f12c23          	sw	a5,24(sp)
   1c534:	020b7793          	andi	a5,s6,32
   1c538:	06078063          	beqz	a5,1c598 <_vfiprintf_r+0xf7c>
   1c53c:	01012783          	lw	a5,16(sp)
   1c540:	00778793          	addi	a5,a5,7
   1c544:	ff87f793          	andi	a5,a5,-8
   1c548:	0007ad03          	lw	s10,0(a5)
   1c54c:	0047ac83          	lw	s9,4(a5)
   1c550:	00878793          	addi	a5,a5,8
   1c554:	00f12823          	sw	a5,16(sp)
   1c558:	001b7693          	andi	a3,s6,1
   1c55c:	00068e63          	beqz	a3,1c578 <_vfiprintf_r+0xf5c>
   1c560:	019d66b3          	or	a3,s10,s9
   1c564:	00068a63          	beqz	a3,1c578 <_vfiprintf_r+0xf5c>
   1c568:	03000693          	li	a3,48
   1c56c:	02d10e23          	sb	a3,60(sp)
   1c570:	02e10ea3          	sb	a4,61(sp)
   1c574:	002b6b13          	ori	s6,s6,2
   1c578:	bffb7d93          	andi	s11,s6,-1025
   1c57c:	00200713          	li	a4,2
   1c580:	dacff06f          	j	1bb2c <_vfiprintf_r+0x510>
   1c584:	000247b7          	lui	a5,0x24
   1c588:	76478793          	addi	a5,a5,1892 # 24764 <__clzsi2+0x68>
   1c58c:	00f12c23          	sw	a5,24(sp)
   1c590:	020b7793          	andi	a5,s6,32
   1c594:	fa0794e3          	bnez	a5,1c53c <_vfiprintf_r+0xf20>
   1c598:	01012603          	lw	a2,16(sp)
   1c59c:	010b7793          	andi	a5,s6,16
   1c5a0:	00460693          	addi	a3,a2,4
   1c5a4:	0a078a63          	beqz	a5,1c658 <_vfiprintf_r+0x103c>
   1c5a8:	00062d03          	lw	s10,0(a2)
   1c5ac:	00000c93          	li	s9,0
   1c5b0:	00d12823          	sw	a3,16(sp)
   1c5b4:	fa5ff06f          	j	1c558 <_vfiprintf_r+0xf3c>
   1c5b8:	00040513          	mv	a0,s0
   1c5bc:	be8fc0ef          	jal	ra,189a4 <strlen>
   1c5c0:	00050d13          	mv	s10,a0
   1c5c4:	01b12823          	sw	s11,16(sp)
   1c5c8:	00000a93          	li	s5,0
   1c5cc:	cd0ff06f          	j	1ba9c <_vfiprintf_r+0x480>
   1c5d0:	03b14703          	lbu	a4,59(sp)
   1c5d4:	18071a63          	bnez	a4,1c768 <_vfiprintf_r+0x114c>
   1c5d8:	ac0f9ee3          	bnez	t6,1c0b4 <_vfiprintf_r+0xa98>
   1c5dc:	00000713          	li	a4,0
   1c5e0:	00100613          	li	a2,1
   1c5e4:	05410693          	addi	a3,sp,84
   1c5e8:	00048b93          	mv	s7,s1
   1c5ec:	b18ff06f          	j	1b904 <_vfiprintf_r+0x2e8>
   1c5f0:	02412783          	lw	a5,36(sp)
   1c5f4:	02012583          	lw	a1,32(sp)
   1c5f8:	00000b13          	li	s6,0
   1c5fc:	40f40433          	sub	s0,s0,a5
   1c600:	00078613          	mv	a2,a5
   1c604:	00040513          	mv	a0,s0
   1c608:	c28fc0ef          	jal	ra,18a30 <strncpy>
   1c60c:	001d4583          	lbu	a1,1(s10)
   1c610:	00a00613          	li	a2,10
   1c614:	00000693          	li	a3,0
   1c618:	00b03733          	snez	a4,a1
   1c61c:	00098513          	mv	a0,s3
   1c620:	000a0593          	mv	a1,s4
   1c624:	00ed0d33          	add	s10,s10,a4
   1c628:	2ac030ef          	jal	ra,1f8d4 <__udivdi3>
   1c62c:	dfdff06f          	j	1c428 <_vfiprintf_r+0xe0c>
   1c630:	00040993          	mv	s3,s0
   1c634:	b64ff06f          	j	1b998 <_vfiprintf_r+0x37c>
   1c638:	00100713          	li	a4,1
   1c63c:	000d0793          	mv	a5,s10
   1c640:	04812623          	sw	s0,76(sp)
   1c644:	05a12823          	sw	s10,80(sp)
   1c648:	05a12423          	sw	s10,72(sp)
   1c64c:	04e12223          	sw	a4,68(sp)
   1c650:	05410693          	addi	a3,sp,84
   1c654:	afcff06f          	j	1b950 <_vfiprintf_r+0x334>
   1c658:	040b7793          	andi	a5,s6,64
   1c65c:	06078263          	beqz	a5,1c6c0 <_vfiprintf_r+0x10a4>
   1c660:	01012783          	lw	a5,16(sp)
   1c664:	00000c93          	li	s9,0
   1c668:	00d12823          	sw	a3,16(sp)
   1c66c:	0007dd03          	lhu	s10,0(a5)
   1c670:	ee9ff06f          	j	1c558 <_vfiprintf_r+0xf3c>
   1c674:	001c4703          	lbu	a4,1(s8)
   1c678:	200b6b13          	ori	s6,s6,512
   1c67c:	001c0c13          	addi	s8,s8,1
   1c680:	944ff06f          	j	1b7c4 <_vfiprintf_r+0x1a8>
   1c684:	001c4703          	lbu	a4,1(s8)
   1c688:	020b6b13          	ori	s6,s6,32
   1c68c:	001c0c13          	addi	s8,s8,1
   1c690:	934ff06f          	j	1b7c4 <_vfiprintf_r+0x1a8>
   1c694:	00c12783          	lw	a5,12(sp)
   1c698:	00f72023          	sw	a5,0(a4)
   1c69c:	880ff06f          	j	1b71c <_vfiprintf_r+0x100>
   1c6a0:	00600793          	li	a5,6
   1c6a4:	000a8d13          	mv	s10,s5
   1c6a8:	0b57ec63          	bltu	a5,s5,1c760 <_vfiprintf_r+0x1144>
   1c6ac:	00024e37          	lui	t3,0x24
   1c6b0:	000d0c93          	mv	s9,s10
   1c6b4:	01b12823          	sw	s11,16(sp)
   1c6b8:	78ce0413          	addi	s0,t3,1932 # 2478c <__clzsi2+0x90>
   1c6bc:	978ff06f          	j	1b834 <_vfiprintf_r+0x218>
   1c6c0:	200b7793          	andi	a5,s6,512
   1c6c4:	10078863          	beqz	a5,1c7d4 <_vfiprintf_r+0x11b8>
   1c6c8:	01012783          	lw	a5,16(sp)
   1c6cc:	00000c93          	li	s9,0
   1c6d0:	00d12823          	sw	a3,16(sp)
   1c6d4:	0007cd03          	lbu	s10,0(a5)
   1c6d8:	e81ff06f          	j	1c558 <_vfiprintf_r+0xf3c>
   1c6dc:	200b7793          	andi	a5,s6,512
   1c6e0:	0c078e63          	beqz	a5,1c7bc <_vfiprintf_r+0x11a0>
   1c6e4:	01012783          	lw	a5,16(sp)
   1c6e8:	00e12823          	sw	a4,16(sp)
   1c6ec:	00078d03          	lb	s10,0(a5)
   1c6f0:	41fd5c93          	srai	s9,s10,0x1f
   1c6f4:	000c8713          	mv	a4,s9
   1c6f8:	b68ff06f          	j	1ba60 <_vfiprintf_r+0x444>
   1c6fc:	200df793          	andi	a5,s11,512
   1c700:	0a078263          	beqz	a5,1c7a4 <_vfiprintf_r+0x1188>
   1c704:	01012783          	lw	a5,16(sp)
   1c708:	00000c93          	li	s9,0
   1c70c:	00e12823          	sw	a4,16(sp)
   1c710:	0007cd03          	lbu	s10,0(a5)
   1c714:	00100713          	li	a4,1
   1c718:	c14ff06f          	j	1bb2c <_vfiprintf_r+0x510>
   1c71c:	200b7793          	andi	a5,s6,512
   1c720:	06078863          	beqz	a5,1c790 <_vfiprintf_r+0x1174>
   1c724:	01012783          	lw	a5,16(sp)
   1c728:	00000c93          	li	s9,0
   1c72c:	00e12823          	sw	a4,16(sp)
   1c730:	0007cd03          	lbu	s10,0(a5)
   1c734:	bf0ff06f          	j	1bb24 <_vfiprintf_r+0x508>
   1c738:	00068593          	mv	a1,a3
   1c73c:	8d5ff06f          	j	1c010 <_vfiprintf_r+0x9f4>
   1c740:	00900793          	li	a5,9
   1c744:	cf37e2e3          	bltu	a5,s3,1c428 <_vfiprintf_r+0xe0c>
   1c748:	d2dff06f          	j	1c474 <_vfiprintf_r+0xe58>
   1c74c:	05410693          	addi	a3,sp,84
   1c750:	00100613          	li	a2,1
   1c754:	00000713          	li	a4,0
   1c758:	00048b93          	mv	s7,s1
   1c75c:	9b0ff06f          	j	1b90c <_vfiprintf_r+0x2f0>
   1c760:	00600d13          	li	s10,6
   1c764:	f49ff06f          	j	1c6ac <_vfiprintf_r+0x1090>
   1c768:	03b10793          	addi	a5,sp,59
   1c76c:	04f12623          	sw	a5,76(sp)
   1c770:	00100793          	li	a5,1
   1c774:	04f12823          	sw	a5,80(sp)
   1c778:	00100613          	li	a2,1
   1c77c:	05410693          	addi	a3,sp,84
   1c780:	918ff06f          	j	1b898 <_vfiprintf_r+0x27c>
   1c784:	00c12783          	lw	a5,12(sp)
   1c788:	00f71023          	sh	a5,0(a4)
   1c78c:	f91fe06f          	j	1b71c <_vfiprintf_r+0x100>
   1c790:	01012783          	lw	a5,16(sp)
   1c794:	00000c93          	li	s9,0
   1c798:	00e12823          	sw	a4,16(sp)
   1c79c:	0007ad03          	lw	s10,0(a5)
   1c7a0:	b84ff06f          	j	1bb24 <_vfiprintf_r+0x508>
   1c7a4:	01012783          	lw	a5,16(sp)
   1c7a8:	00000c93          	li	s9,0
   1c7ac:	00e12823          	sw	a4,16(sp)
   1c7b0:	0007ad03          	lw	s10,0(a5)
   1c7b4:	00100713          	li	a4,1
   1c7b8:	b74ff06f          	j	1bb2c <_vfiprintf_r+0x510>
   1c7bc:	01012783          	lw	a5,16(sp)
   1c7c0:	00e12823          	sw	a4,16(sp)
   1c7c4:	0007ad03          	lw	s10,0(a5)
   1c7c8:	41fd5c93          	srai	s9,s10,0x1f
   1c7cc:	000c8713          	mv	a4,s9
   1c7d0:	a90ff06f          	j	1ba60 <_vfiprintf_r+0x444>
   1c7d4:	01012783          	lw	a5,16(sp)
   1c7d8:	00000c93          	li	s9,0
   1c7dc:	00d12823          	sw	a3,16(sp)
   1c7e0:	0007ad03          	lw	s10,0(a5)
   1c7e4:	d75ff06f          	j	1c558 <_vfiprintf_r+0xf3c>
   1c7e8:	04010613          	addi	a2,sp,64
   1c7ec:	00098593          	mv	a1,s3
   1c7f0:	000a0513          	mv	a0,s4
   1c7f4:	d21fe0ef          	jal	ra,1b514 <__sprint_r.part.0>
   1c7f8:	9a0ff06f          	j	1b998 <_vfiprintf_r+0x37c>
   1c7fc:	000a8d13          	mv	s10,s5
   1c800:	01b12823          	sw	s11,16(sp)
   1c804:	00000a93          	li	s5,0
   1c808:	a94ff06f          	j	1ba9c <_vfiprintf_r+0x480>
   1c80c:	00068593          	mv	a1,a3
   1c810:	99dff06f          	j	1c1ac <_vfiprintf_r+0xb90>
   1c814:	00160593          	addi	a1,a2,1
   1c818:	a71ff06f          	j	1c288 <_vfiprintf_r+0xc6c>
   1c81c:	000b0d93          	mv	s11,s6
   1c820:	a68ff06f          	j	1ba88 <_vfiprintf_r+0x46c>
   1c824:	fff00793          	li	a5,-1
   1c828:	00f12623          	sw	a5,12(sp)
   1c82c:	978ff06f          	j	1b9a4 <_vfiprintf_r+0x388>
   1c830:	00068513          	mv	a0,a3
   1c834:	00060593          	mv	a1,a2
   1c838:	f0cff06f          	j	1bf44 <_vfiprintf_r+0x928>
   1c83c:	01012783          	lw	a5,16(sp)
   1c840:	0007aa83          	lw	s5,0(a5)
   1c844:	00478793          	addi	a5,a5,4
   1c848:	000ad463          	bgez	s5,1c850 <_vfiprintf_r+0x1234>
   1c84c:	fff00a93          	li	s5,-1
   1c850:	001c4703          	lbu	a4,1(s8)
   1c854:	00f12823          	sw	a5,16(sp)
   1c858:	00068c13          	mv	s8,a3
   1c85c:	f69fe06f          	j	1b7c4 <_vfiprintf_r+0x1a8>

0001c860 <vfiprintf>:
   1c860:	00050793          	mv	a5,a0
   1c864:	1cc1a503          	lw	a0,460(gp) # 26ec4 <_impure_ptr>
   1c868:	00060693          	mv	a3,a2
   1c86c:	00058613          	mv	a2,a1
   1c870:	00078593          	mv	a1,a5
   1c874:	da9fe06f          	j	1b61c <_vfiprintf_r>

0001c878 <__sbprintf>:
   1c878:	00c5d783          	lhu	a5,12(a1)
   1c87c:	0645ae03          	lw	t3,100(a1)
   1c880:	00e5d303          	lhu	t1,14(a1)
   1c884:	01c5a883          	lw	a7,28(a1)
   1c888:	0245a803          	lw	a6,36(a1)
   1c88c:	b8010113          	addi	sp,sp,-1152
   1c890:	ffd7f793          	andi	a5,a5,-3
   1c894:	40000713          	li	a4,1024
   1c898:	46812c23          	sw	s0,1144(sp)
   1c89c:	00f11a23          	sh	a5,20(sp)
   1c8a0:	00058413          	mv	s0,a1
   1c8a4:	07010793          	addi	a5,sp,112
   1c8a8:	00810593          	addi	a1,sp,8
   1c8ac:	46912a23          	sw	s1,1140(sp)
   1c8b0:	47212823          	sw	s2,1136(sp)
   1c8b4:	46112e23          	sw	ra,1148(sp)
   1c8b8:	00050913          	mv	s2,a0
   1c8bc:	07c12623          	sw	t3,108(sp)
   1c8c0:	00611b23          	sh	t1,22(sp)
   1c8c4:	03112223          	sw	a7,36(sp)
   1c8c8:	03012623          	sw	a6,44(sp)
   1c8cc:	00f12423          	sw	a5,8(sp)
   1c8d0:	00f12c23          	sw	a5,24(sp)
   1c8d4:	00e12823          	sw	a4,16(sp)
   1c8d8:	00e12e23          	sw	a4,28(sp)
   1c8dc:	02012023          	sw	zero,32(sp)
   1c8e0:	d3dfe0ef          	jal	ra,1b61c <_vfiprintf_r>
   1c8e4:	00050493          	mv	s1,a0
   1c8e8:	02055c63          	bgez	a0,1c920 <__sbprintf+0xa8>
   1c8ec:	01415783          	lhu	a5,20(sp)
   1c8f0:	0407f793          	andi	a5,a5,64
   1c8f4:	00078863          	beqz	a5,1c904 <__sbprintf+0x8c>
   1c8f8:	00c45783          	lhu	a5,12(s0)
   1c8fc:	0407e793          	ori	a5,a5,64
   1c900:	00f41623          	sh	a5,12(s0)
   1c904:	47c12083          	lw	ra,1148(sp)
   1c908:	47812403          	lw	s0,1144(sp)
   1c90c:	47012903          	lw	s2,1136(sp)
   1c910:	00048513          	mv	a0,s1
   1c914:	47412483          	lw	s1,1140(sp)
   1c918:	48010113          	addi	sp,sp,1152
   1c91c:	00008067          	ret
   1c920:	00810593          	addi	a1,sp,8
   1c924:	00090513          	mv	a0,s2
   1c928:	b6df60ef          	jal	ra,13494 <_fflush_r>
   1c92c:	fc0500e3          	beqz	a0,1c8ec <__sbprintf+0x74>
   1c930:	fff00493          	li	s1,-1
   1c934:	fb9ff06f          	j	1c8ec <__sbprintf+0x74>

0001c938 <_write_r>:
   1c938:	ff010113          	addi	sp,sp,-16
   1c93c:	00058713          	mv	a4,a1
   1c940:	00812423          	sw	s0,8(sp)
   1c944:	00912223          	sw	s1,4(sp)
   1c948:	00060593          	mv	a1,a2
   1c94c:	00050413          	mv	s0,a0
   1c950:	00068613          	mv	a2,a3
   1c954:	00070513          	mv	a0,a4
   1c958:	00112623          	sw	ra,12(sp)
   1c95c:	2201a823          	sw	zero,560(gp) # 26f28 <errno>
   1c960:	679020ef          	jal	ra,1f7d8 <_write>
   1c964:	fff00793          	li	a5,-1
   1c968:	00f50c63          	beq	a0,a5,1c980 <_write_r+0x48>
   1c96c:	00c12083          	lw	ra,12(sp)
   1c970:	00812403          	lw	s0,8(sp)
   1c974:	00412483          	lw	s1,4(sp)
   1c978:	01010113          	addi	sp,sp,16
   1c97c:	00008067          	ret
   1c980:	2301a783          	lw	a5,560(gp) # 26f28 <errno>
   1c984:	fe0784e3          	beqz	a5,1c96c <_write_r+0x34>
   1c988:	00c12083          	lw	ra,12(sp)
   1c98c:	00f42023          	sw	a5,0(s0)
   1c990:	00812403          	lw	s0,8(sp)
   1c994:	00412483          	lw	s1,4(sp)
   1c998:	01010113          	addi	sp,sp,16
   1c99c:	00008067          	ret

0001c9a0 <__register_exitproc>:
   1c9a0:	1b81a703          	lw	a4,440(gp) # 26eb0 <_global_impure_ptr>
   1c9a4:	14872783          	lw	a5,328(a4)
   1c9a8:	04078c63          	beqz	a5,1ca00 <__register_exitproc+0x60>
   1c9ac:	0047a703          	lw	a4,4(a5)
   1c9b0:	01f00813          	li	a6,31
   1c9b4:	06e84e63          	blt	a6,a4,1ca30 <__register_exitproc+0x90>
   1c9b8:	00271813          	slli	a6,a4,0x2
   1c9bc:	02050663          	beqz	a0,1c9e8 <__register_exitproc+0x48>
   1c9c0:	01078333          	add	t1,a5,a6
   1c9c4:	08c32423          	sw	a2,136(t1)
   1c9c8:	1887a883          	lw	a7,392(a5)
   1c9cc:	00100613          	li	a2,1
   1c9d0:	00e61633          	sll	a2,a2,a4
   1c9d4:	00c8e8b3          	or	a7,a7,a2
   1c9d8:	1917a423          	sw	a7,392(a5)
   1c9dc:	10d32423          	sw	a3,264(t1)
   1c9e0:	00200693          	li	a3,2
   1c9e4:	02d50463          	beq	a0,a3,1ca0c <__register_exitproc+0x6c>
   1c9e8:	00170713          	addi	a4,a4,1
   1c9ec:	00e7a223          	sw	a4,4(a5)
   1c9f0:	010787b3          	add	a5,a5,a6
   1c9f4:	00b7a423          	sw	a1,8(a5)
   1c9f8:	00000513          	li	a0,0
   1c9fc:	00008067          	ret
   1ca00:	14c70793          	addi	a5,a4,332
   1ca04:	14f72423          	sw	a5,328(a4)
   1ca08:	fa5ff06f          	j	1c9ac <__register_exitproc+0xc>
   1ca0c:	18c7a683          	lw	a3,396(a5)
   1ca10:	00170713          	addi	a4,a4,1
   1ca14:	00e7a223          	sw	a4,4(a5)
   1ca18:	00c6e633          	or	a2,a3,a2
   1ca1c:	18c7a623          	sw	a2,396(a5)
   1ca20:	010787b3          	add	a5,a5,a6
   1ca24:	00b7a423          	sw	a1,8(a5)
   1ca28:	00000513          	li	a0,0
   1ca2c:	00008067          	ret
   1ca30:	fff00513          	li	a0,-1
   1ca34:	00008067          	ret

0001ca38 <_calloc_r>:
   1ca38:	ff010113          	addi	sp,sp,-16
   1ca3c:	00812423          	sw	s0,8(sp)
   1ca40:	00050413          	mv	s0,a0
   1ca44:	00058513          	mv	a0,a1
   1ca48:	00060593          	mv	a1,a2
   1ca4c:	00112623          	sw	ra,12(sp)
   1ca50:	3d5070ef          	jal	ra,24624 <__mulsi3>
   1ca54:	00050593          	mv	a1,a0
   1ca58:	00040513          	mv	a0,s0
   1ca5c:	9c8fa0ef          	jal	ra,16c24 <_malloc_r>
   1ca60:	00050413          	mv	s0,a0
   1ca64:	02050863          	beqz	a0,1ca94 <_calloc_r+0x5c>
   1ca68:	ffc52603          	lw	a2,-4(a0)
   1ca6c:	02400713          	li	a4,36
   1ca70:	ffc67613          	andi	a2,a2,-4
   1ca74:	ffc60613          	addi	a2,a2,-4
   1ca78:	06c76063          	bltu	a4,a2,1cad8 <_calloc_r+0xa0>
   1ca7c:	01300693          	li	a3,19
   1ca80:	00050793          	mv	a5,a0
   1ca84:	02c6e263          	bltu	a3,a2,1caa8 <_calloc_r+0x70>
   1ca88:	0007a023          	sw	zero,0(a5)
   1ca8c:	0007a223          	sw	zero,4(a5)
   1ca90:	0007a423          	sw	zero,8(a5)
   1ca94:	00c12083          	lw	ra,12(sp)
   1ca98:	00040513          	mv	a0,s0
   1ca9c:	00812403          	lw	s0,8(sp)
   1caa0:	01010113          	addi	sp,sp,16
   1caa4:	00008067          	ret
   1caa8:	00052023          	sw	zero,0(a0)
   1caac:	00052223          	sw	zero,4(a0)
   1cab0:	01b00793          	li	a5,27
   1cab4:	04c7f063          	bgeu	a5,a2,1caf4 <_calloc_r+0xbc>
   1cab8:	00052423          	sw	zero,8(a0)
   1cabc:	00052623          	sw	zero,12(a0)
   1cac0:	01050793          	addi	a5,a0,16
   1cac4:	fce612e3          	bne	a2,a4,1ca88 <_calloc_r+0x50>
   1cac8:	00052823          	sw	zero,16(a0)
   1cacc:	01850793          	addi	a5,a0,24
   1cad0:	00052a23          	sw	zero,20(a0)
   1cad4:	fb5ff06f          	j	1ca88 <_calloc_r+0x50>
   1cad8:	00000593          	li	a1,0
   1cadc:	fd4f30ef          	jal	ra,102b0 <memset>
   1cae0:	00c12083          	lw	ra,12(sp)
   1cae4:	00040513          	mv	a0,s0
   1cae8:	00812403          	lw	s0,8(sp)
   1caec:	01010113          	addi	sp,sp,16
   1caf0:	00008067          	ret
   1caf4:	00850793          	addi	a5,a0,8
   1caf8:	f91ff06f          	j	1ca88 <_calloc_r+0x50>

0001cafc <_close_r>:
   1cafc:	ff010113          	addi	sp,sp,-16
   1cb00:	00812423          	sw	s0,8(sp)
   1cb04:	00912223          	sw	s1,4(sp)
   1cb08:	00050413          	mv	s0,a0
   1cb0c:	00058513          	mv	a0,a1
   1cb10:	00112623          	sw	ra,12(sp)
   1cb14:	2201a823          	sw	zero,560(gp) # 26f28 <errno>
   1cb18:	239020ef          	jal	ra,1f550 <_close>
   1cb1c:	fff00793          	li	a5,-1
   1cb20:	00f50c63          	beq	a0,a5,1cb38 <_close_r+0x3c>
   1cb24:	00c12083          	lw	ra,12(sp)
   1cb28:	00812403          	lw	s0,8(sp)
   1cb2c:	00412483          	lw	s1,4(sp)
   1cb30:	01010113          	addi	sp,sp,16
   1cb34:	00008067          	ret
   1cb38:	2301a783          	lw	a5,560(gp) # 26f28 <errno>
   1cb3c:	fe0784e3          	beqz	a5,1cb24 <_close_r+0x28>
   1cb40:	00c12083          	lw	ra,12(sp)
   1cb44:	00f42023          	sw	a5,0(s0)
   1cb48:	00812403          	lw	s0,8(sp)
   1cb4c:	00412483          	lw	s1,4(sp)
   1cb50:	01010113          	addi	sp,sp,16
   1cb54:	00008067          	ret

0001cb58 <_fclose_r>:
   1cb58:	ff010113          	addi	sp,sp,-16
   1cb5c:	00112623          	sw	ra,12(sp)
   1cb60:	00812423          	sw	s0,8(sp)
   1cb64:	00912223          	sw	s1,4(sp)
   1cb68:	01212023          	sw	s2,0(sp)
   1cb6c:	02058063          	beqz	a1,1cb8c <_fclose_r+0x34>
   1cb70:	00058413          	mv	s0,a1
   1cb74:	00050493          	mv	s1,a0
   1cb78:	00050663          	beqz	a0,1cb84 <_fclose_r+0x2c>
   1cb7c:	03852783          	lw	a5,56(a0)
   1cb80:	0a078c63          	beqz	a5,1cc38 <_fclose_r+0xe0>
   1cb84:	00c41783          	lh	a5,12(s0)
   1cb88:	02079263          	bnez	a5,1cbac <_fclose_r+0x54>
   1cb8c:	00c12083          	lw	ra,12(sp)
   1cb90:	00812403          	lw	s0,8(sp)
   1cb94:	00000913          	li	s2,0
   1cb98:	00412483          	lw	s1,4(sp)
   1cb9c:	00090513          	mv	a0,s2
   1cba0:	00012903          	lw	s2,0(sp)
   1cba4:	01010113          	addi	sp,sp,16
   1cba8:	00008067          	ret
   1cbac:	00040593          	mv	a1,s0
   1cbb0:	00048513          	mv	a0,s1
   1cbb4:	e84f60ef          	jal	ra,13238 <__sflush_r>
   1cbb8:	02c42783          	lw	a5,44(s0)
   1cbbc:	00050913          	mv	s2,a0
   1cbc0:	00078a63          	beqz	a5,1cbd4 <_fclose_r+0x7c>
   1cbc4:	01c42583          	lw	a1,28(s0)
   1cbc8:	00048513          	mv	a0,s1
   1cbcc:	000780e7          	jalr	a5
   1cbd0:	06054c63          	bltz	a0,1cc48 <_fclose_r+0xf0>
   1cbd4:	00c45783          	lhu	a5,12(s0)
   1cbd8:	0807f793          	andi	a5,a5,128
   1cbdc:	06079e63          	bnez	a5,1cc58 <_fclose_r+0x100>
   1cbe0:	03042583          	lw	a1,48(s0)
   1cbe4:	00058c63          	beqz	a1,1cbfc <_fclose_r+0xa4>
   1cbe8:	04040793          	addi	a5,s0,64
   1cbec:	00f58663          	beq	a1,a5,1cbf8 <_fclose_r+0xa0>
   1cbf0:	00048513          	mv	a0,s1
   1cbf4:	e15f60ef          	jal	ra,13a08 <_free_r>
   1cbf8:	02042823          	sw	zero,48(s0)
   1cbfc:	04442583          	lw	a1,68(s0)
   1cc00:	00058863          	beqz	a1,1cc10 <_fclose_r+0xb8>
   1cc04:	00048513          	mv	a0,s1
   1cc08:	e01f60ef          	jal	ra,13a08 <_free_r>
   1cc0c:	04042223          	sw	zero,68(s0)
   1cc10:	c3df60ef          	jal	ra,1384c <__sfp_lock_acquire>
   1cc14:	00041623          	sh	zero,12(s0)
   1cc18:	c39f60ef          	jal	ra,13850 <__sfp_lock_release>
   1cc1c:	00c12083          	lw	ra,12(sp)
   1cc20:	00812403          	lw	s0,8(sp)
   1cc24:	00412483          	lw	s1,4(sp)
   1cc28:	00090513          	mv	a0,s2
   1cc2c:	00012903          	lw	s2,0(sp)
   1cc30:	01010113          	addi	sp,sp,16
   1cc34:	00008067          	ret
   1cc38:	c05f60ef          	jal	ra,1383c <__sinit>
   1cc3c:	00c41783          	lh	a5,12(s0)
   1cc40:	f40786e3          	beqz	a5,1cb8c <_fclose_r+0x34>
   1cc44:	f69ff06f          	j	1cbac <_fclose_r+0x54>
   1cc48:	00c45783          	lhu	a5,12(s0)
   1cc4c:	fff00913          	li	s2,-1
   1cc50:	0807f793          	andi	a5,a5,128
   1cc54:	f80786e3          	beqz	a5,1cbe0 <_fclose_r+0x88>
   1cc58:	01042583          	lw	a1,16(s0)
   1cc5c:	00048513          	mv	a0,s1
   1cc60:	da9f60ef          	jal	ra,13a08 <_free_r>
   1cc64:	f7dff06f          	j	1cbe0 <_fclose_r+0x88>

0001cc68 <fclose>:
   1cc68:	00050593          	mv	a1,a0
   1cc6c:	1cc1a503          	lw	a0,460(gp) # 26ec4 <_impure_ptr>
   1cc70:	ee9ff06f          	j	1cb58 <_fclose_r>

0001cc74 <__fputwc>:
   1cc74:	fd010113          	addi	sp,sp,-48
   1cc78:	02812423          	sw	s0,40(sp)
   1cc7c:	01312e23          	sw	s3,28(sp)
   1cc80:	01612823          	sw	s6,16(sp)
   1cc84:	02112623          	sw	ra,44(sp)
   1cc88:	02912223          	sw	s1,36(sp)
   1cc8c:	03212023          	sw	s2,32(sp)
   1cc90:	01412c23          	sw	s4,24(sp)
   1cc94:	01512a23          	sw	s5,20(sp)
   1cc98:	00050b13          	mv	s6,a0
   1cc9c:	00058993          	mv	s3,a1
   1cca0:	00060413          	mv	s0,a2
   1cca4:	794000ef          	jal	ra,1d438 <__locale_mb_cur_max>
   1cca8:	00100793          	li	a5,1
   1ccac:	02f51063          	bne	a0,a5,1cccc <__fputwc+0x58>
   1ccb0:	fff98793          	addi	a5,s3,-1
   1ccb4:	0fe00713          	li	a4,254
   1ccb8:	00f76a63          	bltu	a4,a5,1cccc <__fputwc+0x58>
   1ccbc:	0ff9f713          	andi	a4,s3,255
   1ccc0:	00e10623          	sb	a4,12(sp)
   1ccc4:	00100913          	li	s2,1
   1ccc8:	02c0006f          	j	1ccf4 <__fputwc+0x80>
   1cccc:	05c40693          	addi	a3,s0,92
   1ccd0:	00098613          	mv	a2,s3
   1ccd4:	00c10593          	addi	a1,sp,12
   1ccd8:	000b0513          	mv	a0,s6
   1ccdc:	73c020ef          	jal	ra,1f418 <_wcrtomb_r>
   1cce0:	fff00793          	li	a5,-1
   1cce4:	00050913          	mv	s2,a0
   1cce8:	0af50463          	beq	a0,a5,1cd90 <__fputwc+0x11c>
   1ccec:	08050e63          	beqz	a0,1cd88 <__fputwc+0x114>
   1ccf0:	00c14703          	lbu	a4,12(sp)
   1ccf4:	00000493          	li	s1,0
   1ccf8:	fff00a13          	li	s4,-1
   1ccfc:	00a00a93          	li	s5,10
   1cd00:	0280006f          	j	1cd28 <__fputwc+0xb4>
   1cd04:	00042783          	lw	a5,0(s0)
   1cd08:	00178693          	addi	a3,a5,1
   1cd0c:	00d42023          	sw	a3,0(s0)
   1cd10:	00e78023          	sb	a4,0(a5)
   1cd14:	00148493          	addi	s1,s1,1
   1cd18:	00c10793          	addi	a5,sp,12
   1cd1c:	009787b3          	add	a5,a5,s1
   1cd20:	0724f463          	bgeu	s1,s2,1cd88 <__fputwc+0x114>
   1cd24:	0007c703          	lbu	a4,0(a5)
   1cd28:	00842783          	lw	a5,8(s0)
   1cd2c:	fff78793          	addi	a5,a5,-1
   1cd30:	00f42423          	sw	a5,8(s0)
   1cd34:	fc07d8e3          	bgez	a5,1cd04 <__fputwc+0x90>
   1cd38:	01842683          	lw	a3,24(s0)
   1cd3c:	00070593          	mv	a1,a4
   1cd40:	00040613          	mv	a2,s0
   1cd44:	000b0513          	mv	a0,s6
   1cd48:	00d7c463          	blt	a5,a3,1cd50 <__fputwc+0xdc>
   1cd4c:	fb571ce3          	bne	a4,s5,1cd04 <__fputwc+0x90>
   1cd50:	530020ef          	jal	ra,1f280 <__swbuf_r>
   1cd54:	fd4510e3          	bne	a0,s4,1cd14 <__fputwc+0xa0>
   1cd58:	fff00913          	li	s2,-1
   1cd5c:	02c12083          	lw	ra,44(sp)
   1cd60:	02812403          	lw	s0,40(sp)
   1cd64:	02412483          	lw	s1,36(sp)
   1cd68:	01c12983          	lw	s3,28(sp)
   1cd6c:	01812a03          	lw	s4,24(sp)
   1cd70:	01412a83          	lw	s5,20(sp)
   1cd74:	01012b03          	lw	s6,16(sp)
   1cd78:	00090513          	mv	a0,s2
   1cd7c:	02012903          	lw	s2,32(sp)
   1cd80:	03010113          	addi	sp,sp,48
   1cd84:	00008067          	ret
   1cd88:	00098913          	mv	s2,s3
   1cd8c:	fd1ff06f          	j	1cd5c <__fputwc+0xe8>
   1cd90:	00c45783          	lhu	a5,12(s0)
   1cd94:	0407e793          	ori	a5,a5,64
   1cd98:	00f41623          	sh	a5,12(s0)
   1cd9c:	fc1ff06f          	j	1cd5c <__fputwc+0xe8>

0001cda0 <_fputwc_r>:
   1cda0:	00c61783          	lh	a5,12(a2)
   1cda4:	01279713          	slli	a4,a5,0x12
   1cda8:	02074063          	bltz	a4,1cdc8 <_fputwc_r+0x28>
   1cdac:	06462703          	lw	a4,100(a2)
   1cdb0:	000026b7          	lui	a3,0x2
   1cdb4:	00d7e7b3          	or	a5,a5,a3
   1cdb8:	000026b7          	lui	a3,0x2
   1cdbc:	00d76733          	or	a4,a4,a3
   1cdc0:	00f61623          	sh	a5,12(a2)
   1cdc4:	06e62223          	sw	a4,100(a2)
   1cdc8:	eadff06f          	j	1cc74 <__fputwc>

0001cdcc <fputwc>:
   1cdcc:	fe010113          	addi	sp,sp,-32
   1cdd0:	00812c23          	sw	s0,24(sp)
   1cdd4:	1cc1a403          	lw	s0,460(gp) # 26ec4 <_impure_ptr>
   1cdd8:	00112e23          	sw	ra,28(sp)
   1cddc:	00058613          	mv	a2,a1
   1cde0:	00050593          	mv	a1,a0
   1cde4:	00040663          	beqz	s0,1cdf0 <fputwc+0x24>
   1cde8:	03842783          	lw	a5,56(s0)
   1cdec:	04078063          	beqz	a5,1ce2c <fputwc+0x60>
   1cdf0:	00c61783          	lh	a5,12(a2)
   1cdf4:	01279713          	slli	a4,a5,0x12
   1cdf8:	02074063          	bltz	a4,1ce18 <fputwc+0x4c>
   1cdfc:	06462703          	lw	a4,100(a2)
   1ce00:	000026b7          	lui	a3,0x2
   1ce04:	00d7e7b3          	or	a5,a5,a3
   1ce08:	000026b7          	lui	a3,0x2
   1ce0c:	00d76733          	or	a4,a4,a3
   1ce10:	00f61623          	sh	a5,12(a2)
   1ce14:	06e62223          	sw	a4,100(a2)
   1ce18:	00040513          	mv	a0,s0
   1ce1c:	01812403          	lw	s0,24(sp)
   1ce20:	01c12083          	lw	ra,28(sp)
   1ce24:	02010113          	addi	sp,sp,32
   1ce28:	e4dff06f          	j	1cc74 <__fputwc>
   1ce2c:	00a12423          	sw	a0,8(sp)
   1ce30:	00040513          	mv	a0,s0
   1ce34:	00c12623          	sw	a2,12(sp)
   1ce38:	a05f60ef          	jal	ra,1383c <__sinit>
   1ce3c:	00c12603          	lw	a2,12(sp)
   1ce40:	00812583          	lw	a1,8(sp)
   1ce44:	fadff06f          	j	1cdf0 <fputwc+0x24>

0001ce48 <_fstat_r>:
   1ce48:	ff010113          	addi	sp,sp,-16
   1ce4c:	00058713          	mv	a4,a1
   1ce50:	00812423          	sw	s0,8(sp)
   1ce54:	00912223          	sw	s1,4(sp)
   1ce58:	00050413          	mv	s0,a0
   1ce5c:	00060593          	mv	a1,a2
   1ce60:	00070513          	mv	a0,a4
   1ce64:	00112623          	sw	ra,12(sp)
   1ce68:	2201a823          	sw	zero,560(gp) # 26f28 <errno>
   1ce6c:	780020ef          	jal	ra,1f5ec <_fstat>
   1ce70:	fff00793          	li	a5,-1
   1ce74:	00f50c63          	beq	a0,a5,1ce8c <_fstat_r+0x44>
   1ce78:	00c12083          	lw	ra,12(sp)
   1ce7c:	00812403          	lw	s0,8(sp)
   1ce80:	00412483          	lw	s1,4(sp)
   1ce84:	01010113          	addi	sp,sp,16
   1ce88:	00008067          	ret
   1ce8c:	2301a783          	lw	a5,560(gp) # 26f28 <errno>
   1ce90:	fe0784e3          	beqz	a5,1ce78 <_fstat_r+0x30>
   1ce94:	00c12083          	lw	ra,12(sp)
   1ce98:	00f42023          	sw	a5,0(s0)
   1ce9c:	00812403          	lw	s0,8(sp)
   1cea0:	00412483          	lw	s1,4(sp)
   1cea4:	01010113          	addi	sp,sp,16
   1cea8:	00008067          	ret

0001ceac <__sfvwrite_r>:
   1ceac:	00862783          	lw	a5,8(a2)
   1ceb0:	32078e63          	beqz	a5,1d1ec <__sfvwrite_r+0x340>
   1ceb4:	00c5d783          	lhu	a5,12(a1)
   1ceb8:	fd010113          	addi	sp,sp,-48
   1cebc:	02812423          	sw	s0,40(sp)
   1cec0:	01412c23          	sw	s4,24(sp)
   1cec4:	01512a23          	sw	s5,20(sp)
   1cec8:	02112623          	sw	ra,44(sp)
   1cecc:	02912223          	sw	s1,36(sp)
   1ced0:	03212023          	sw	s2,32(sp)
   1ced4:	01312e23          	sw	s3,28(sp)
   1ced8:	01612823          	sw	s6,16(sp)
   1cedc:	01712623          	sw	s7,12(sp)
   1cee0:	01812423          	sw	s8,8(sp)
   1cee4:	01912223          	sw	s9,4(sp)
   1cee8:	01a12023          	sw	s10,0(sp)
   1ceec:	0087f713          	andi	a4,a5,8
   1cef0:	00060a13          	mv	s4,a2
   1cef4:	00050a93          	mv	s5,a0
   1cef8:	00058413          	mv	s0,a1
   1cefc:	08070663          	beqz	a4,1cf88 <__sfvwrite_r+0xdc>
   1cf00:	0105a703          	lw	a4,16(a1)
   1cf04:	08070263          	beqz	a4,1cf88 <__sfvwrite_r+0xdc>
   1cf08:	0027f713          	andi	a4,a5,2
   1cf0c:	000a2483          	lw	s1,0(s4)
   1cf10:	08070c63          	beqz	a4,1cfa8 <__sfvwrite_r+0xfc>
   1cf14:	02442783          	lw	a5,36(s0)
   1cf18:	01c42583          	lw	a1,28(s0)
   1cf1c:	80000b37          	lui	s6,0x80000
   1cf20:	00000993          	li	s3,0
   1cf24:	00000913          	li	s2,0
   1cf28:	c00b4b13          	xori	s6,s6,-1024
   1cf2c:	00098613          	mv	a2,s3
   1cf30:	000a8513          	mv	a0,s5
   1cf34:	04090263          	beqz	s2,1cf78 <__sfvwrite_r+0xcc>
   1cf38:	00090693          	mv	a3,s2
   1cf3c:	012b7463          	bgeu	s6,s2,1cf44 <__sfvwrite_r+0x98>
   1cf40:	000b0693          	mv	a3,s6
   1cf44:	000780e7          	jalr	a5
   1cf48:	28a05863          	blez	a0,1d1d8 <__sfvwrite_r+0x32c>
   1cf4c:	008a2783          	lw	a5,8(s4)
   1cf50:	00a989b3          	add	s3,s3,a0
   1cf54:	40a90933          	sub	s2,s2,a0
   1cf58:	40a78533          	sub	a0,a5,a0
   1cf5c:	00aa2423          	sw	a0,8(s4)
   1cf60:	20050a63          	beqz	a0,1d174 <__sfvwrite_r+0x2c8>
   1cf64:	02442783          	lw	a5,36(s0)
   1cf68:	01c42583          	lw	a1,28(s0)
   1cf6c:	00098613          	mv	a2,s3
   1cf70:	000a8513          	mv	a0,s5
   1cf74:	fc0912e3          	bnez	s2,1cf38 <__sfvwrite_r+0x8c>
   1cf78:	0004a983          	lw	s3,0(s1)
   1cf7c:	0044a903          	lw	s2,4(s1)
   1cf80:	00848493          	addi	s1,s1,8
   1cf84:	fa9ff06f          	j	1cf2c <__sfvwrite_r+0x80>
   1cf88:	00040593          	mv	a1,s0
   1cf8c:	000a8513          	mv	a0,s5
   1cf90:	818f60ef          	jal	ra,12fa8 <__swsetup_r>
   1cf94:	3c051263          	bnez	a0,1d358 <__sfvwrite_r+0x4ac>
   1cf98:	00c45783          	lhu	a5,12(s0)
   1cf9c:	000a2483          	lw	s1,0(s4)
   1cfa0:	0027f713          	andi	a4,a5,2
   1cfa4:	f60718e3          	bnez	a4,1cf14 <__sfvwrite_r+0x68>
   1cfa8:	0017f713          	andi	a4,a5,1
   1cfac:	24071463          	bnez	a4,1d1f4 <__sfvwrite_r+0x348>
   1cfb0:	00842c83          	lw	s9,8(s0)
   1cfb4:	00042503          	lw	a0,0(s0)
   1cfb8:	80000b37          	lui	s6,0x80000
   1cfbc:	ffeb4b93          	xori	s7,s6,-2
   1cfc0:	00000c13          	li	s8,0
   1cfc4:	00000913          	li	s2,0
   1cfc8:	fffb4b13          	not	s6,s6
   1cfcc:	0e090e63          	beqz	s2,1d0c8 <__sfvwrite_r+0x21c>
   1cfd0:	2007f713          	andi	a4,a5,512
   1cfd4:	24070c63          	beqz	a4,1d22c <__sfvwrite_r+0x380>
   1cfd8:	000c8d13          	mv	s10,s9
   1cfdc:	2f996863          	bltu	s2,s9,1d2cc <__sfvwrite_r+0x420>
   1cfe0:	4807f713          	andi	a4,a5,1152
   1cfe4:	08070a63          	beqz	a4,1d078 <__sfvwrite_r+0x1cc>
   1cfe8:	01442983          	lw	s3,20(s0)
   1cfec:	01042583          	lw	a1,16(s0)
   1cff0:	00190713          	addi	a4,s2,1
   1cff4:	00199693          	slli	a3,s3,0x1
   1cff8:	013686b3          	add	a3,a3,s3
   1cffc:	01f6d993          	srli	s3,a3,0x1f
   1d000:	40b50d33          	sub	s10,a0,a1
   1d004:	00d989b3          	add	s3,s3,a3
   1d008:	4019d993          	srai	s3,s3,0x1
   1d00c:	01a70733          	add	a4,a4,s10
   1d010:	00098613          	mv	a2,s3
   1d014:	00e9f663          	bgeu	s3,a4,1d020 <__sfvwrite_r+0x174>
   1d018:	00070993          	mv	s3,a4
   1d01c:	00070613          	mv	a2,a4
   1d020:	4007f793          	andi	a5,a5,1024
   1d024:	2e078a63          	beqz	a5,1d318 <__sfvwrite_r+0x46c>
   1d028:	00060593          	mv	a1,a2
   1d02c:	000a8513          	mv	a0,s5
   1d030:	bf5f90ef          	jal	ra,16c24 <_malloc_r>
   1d034:	00050c93          	mv	s9,a0
   1d038:	30050863          	beqz	a0,1d348 <__sfvwrite_r+0x49c>
   1d03c:	01042583          	lw	a1,16(s0)
   1d040:	000d0613          	mv	a2,s10
   1d044:	4e8000ef          	jal	ra,1d52c <memcpy>
   1d048:	00c45783          	lhu	a5,12(s0)
   1d04c:	b7f7f793          	andi	a5,a5,-1153
   1d050:	0807e793          	ori	a5,a5,128
   1d054:	00f41623          	sh	a5,12(s0)
   1d058:	01ac8533          	add	a0,s9,s10
   1d05c:	41a987b3          	sub	a5,s3,s10
   1d060:	01942823          	sw	s9,16(s0)
   1d064:	00a42023          	sw	a0,0(s0)
   1d068:	01342a23          	sw	s3,20(s0)
   1d06c:	00090c93          	mv	s9,s2
   1d070:	00f42423          	sw	a5,8(s0)
   1d074:	00090d13          	mv	s10,s2
   1d078:	000d0613          	mv	a2,s10
   1d07c:	000c0593          	mv	a1,s8
   1d080:	5c8000ef          	jal	ra,1d648 <memmove>
   1d084:	00842703          	lw	a4,8(s0)
   1d088:	00042783          	lw	a5,0(s0)
   1d08c:	00090993          	mv	s3,s2
   1d090:	41970cb3          	sub	s9,a4,s9
   1d094:	01a787b3          	add	a5,a5,s10
   1d098:	01942423          	sw	s9,8(s0)
   1d09c:	00f42023          	sw	a5,0(s0)
   1d0a0:	00000913          	li	s2,0
   1d0a4:	008a2603          	lw	a2,8(s4)
   1d0a8:	013c0c33          	add	s8,s8,s3
   1d0ac:	413609b3          	sub	s3,a2,s3
   1d0b0:	013a2423          	sw	s3,8(s4)
   1d0b4:	0c098063          	beqz	s3,1d174 <__sfvwrite_r+0x2c8>
   1d0b8:	00842c83          	lw	s9,8(s0)
   1d0bc:	00042503          	lw	a0,0(s0)
   1d0c0:	00c45783          	lhu	a5,12(s0)
   1d0c4:	f00916e3          	bnez	s2,1cfd0 <__sfvwrite_r+0x124>
   1d0c8:	0004ac03          	lw	s8,0(s1)
   1d0cc:	0044a903          	lw	s2,4(s1)
   1d0d0:	00848493          	addi	s1,s1,8
   1d0d4:	ef9ff06f          	j	1cfcc <__sfvwrite_r+0x120>
   1d0d8:	0044a983          	lw	s3,4(s1)
   1d0dc:	0004ac03          	lw	s8,0(s1)
   1d0e0:	00848493          	addi	s1,s1,8
   1d0e4:	fe098ae3          	beqz	s3,1d0d8 <__sfvwrite_r+0x22c>
   1d0e8:	00098613          	mv	a2,s3
   1d0ec:	00a00593          	li	a1,10
   1d0f0:	000c0513          	mv	a0,s8
   1d0f4:	ac8fa0ef          	jal	ra,173bc <memchr>
   1d0f8:	12050463          	beqz	a0,1d220 <__sfvwrite_r+0x374>
   1d0fc:	00150513          	addi	a0,a0,1
   1d100:	41850b33          	sub	s6,a0,s8
   1d104:	000b0793          	mv	a5,s6
   1d108:	00098b93          	mv	s7,s3
   1d10c:	0137f463          	bgeu	a5,s3,1d114 <__sfvwrite_r+0x268>
   1d110:	00078b93          	mv	s7,a5
   1d114:	00042503          	lw	a0,0(s0)
   1d118:	01042783          	lw	a5,16(s0)
   1d11c:	01442683          	lw	a3,20(s0)
   1d120:	00a7f863          	bgeu	a5,a0,1d130 <__sfvwrite_r+0x284>
   1d124:	00842903          	lw	s2,8(s0)
   1d128:	01268933          	add	s2,a3,s2
   1d12c:	09794263          	blt	s2,s7,1d1b0 <__sfvwrite_r+0x304>
   1d130:	1adbce63          	blt	s7,a3,1d2ec <__sfvwrite_r+0x440>
   1d134:	02442783          	lw	a5,36(s0)
   1d138:	01c42583          	lw	a1,28(s0)
   1d13c:	000c0613          	mv	a2,s8
   1d140:	000a8513          	mv	a0,s5
   1d144:	000780e7          	jalr	a5
   1d148:	00050913          	mv	s2,a0
   1d14c:	08a05663          	blez	a0,1d1d8 <__sfvwrite_r+0x32c>
   1d150:	412b0b33          	sub	s6,s6,s2
   1d154:	00100513          	li	a0,1
   1d158:	180b0063          	beqz	s6,1d2d8 <__sfvwrite_r+0x42c>
   1d15c:	008a2603          	lw	a2,8(s4)
   1d160:	012c0c33          	add	s8,s8,s2
   1d164:	412989b3          	sub	s3,s3,s2
   1d168:	41260933          	sub	s2,a2,s2
   1d16c:	012a2423          	sw	s2,8(s4)
   1d170:	08091a63          	bnez	s2,1d204 <__sfvwrite_r+0x358>
   1d174:	00000513          	li	a0,0
   1d178:	02c12083          	lw	ra,44(sp)
   1d17c:	02812403          	lw	s0,40(sp)
   1d180:	02412483          	lw	s1,36(sp)
   1d184:	02012903          	lw	s2,32(sp)
   1d188:	01c12983          	lw	s3,28(sp)
   1d18c:	01812a03          	lw	s4,24(sp)
   1d190:	01412a83          	lw	s5,20(sp)
   1d194:	01012b03          	lw	s6,16(sp)
   1d198:	00c12b83          	lw	s7,12(sp)
   1d19c:	00812c03          	lw	s8,8(sp)
   1d1a0:	00412c83          	lw	s9,4(sp)
   1d1a4:	00012d03          	lw	s10,0(sp)
   1d1a8:	03010113          	addi	sp,sp,48
   1d1ac:	00008067          	ret
   1d1b0:	000c0593          	mv	a1,s8
   1d1b4:	00090613          	mv	a2,s2
   1d1b8:	490000ef          	jal	ra,1d648 <memmove>
   1d1bc:	00042783          	lw	a5,0(s0)
   1d1c0:	00040593          	mv	a1,s0
   1d1c4:	000a8513          	mv	a0,s5
   1d1c8:	012787b3          	add	a5,a5,s2
   1d1cc:	00f42023          	sw	a5,0(s0)
   1d1d0:	ac4f60ef          	jal	ra,13494 <_fflush_r>
   1d1d4:	f6050ee3          	beqz	a0,1d150 <__sfvwrite_r+0x2a4>
   1d1d8:	00c41783          	lh	a5,12(s0)
   1d1dc:	0407e793          	ori	a5,a5,64
   1d1e0:	00f41623          	sh	a5,12(s0)
   1d1e4:	fff00513          	li	a0,-1
   1d1e8:	f91ff06f          	j	1d178 <__sfvwrite_r+0x2cc>
   1d1ec:	00000513          	li	a0,0
   1d1f0:	00008067          	ret
   1d1f4:	00000b13          	li	s6,0
   1d1f8:	00000513          	li	a0,0
   1d1fc:	00000c13          	li	s8,0
   1d200:	00000993          	li	s3,0
   1d204:	ec098ae3          	beqz	s3,1d0d8 <__sfvwrite_r+0x22c>
   1d208:	ee051ee3          	bnez	a0,1d104 <__sfvwrite_r+0x258>
   1d20c:	00098613          	mv	a2,s3
   1d210:	00a00593          	li	a1,10
   1d214:	000c0513          	mv	a0,s8
   1d218:	9a4fa0ef          	jal	ra,173bc <memchr>
   1d21c:	ee0510e3          	bnez	a0,1d0fc <__sfvwrite_r+0x250>
   1d220:	00198793          	addi	a5,s3,1
   1d224:	00078b13          	mv	s6,a5
   1d228:	ee1ff06f          	j	1d108 <__sfvwrite_r+0x25c>
   1d22c:	01042783          	lw	a5,16(s0)
   1d230:	04a7e863          	bltu	a5,a0,1d280 <__sfvwrite_r+0x3d4>
   1d234:	01442983          	lw	s3,20(s0)
   1d238:	05396463          	bltu	s2,s3,1d280 <__sfvwrite_r+0x3d4>
   1d23c:	00090513          	mv	a0,s2
   1d240:	012bf463          	bgeu	s7,s2,1d248 <__sfvwrite_r+0x39c>
   1d244:	000b0513          	mv	a0,s6
   1d248:	00098593          	mv	a1,s3
   1d24c:	3fc070ef          	jal	ra,24648 <__divsi3>
   1d250:	00098593          	mv	a1,s3
   1d254:	3d0070ef          	jal	ra,24624 <__mulsi3>
   1d258:	02442783          	lw	a5,36(s0)
   1d25c:	01c42583          	lw	a1,28(s0)
   1d260:	00050693          	mv	a3,a0
   1d264:	000c0613          	mv	a2,s8
   1d268:	000a8513          	mv	a0,s5
   1d26c:	000780e7          	jalr	a5
   1d270:	00050993          	mv	s3,a0
   1d274:	f6a052e3          	blez	a0,1d1d8 <__sfvwrite_r+0x32c>
   1d278:	41390933          	sub	s2,s2,s3
   1d27c:	e29ff06f          	j	1d0a4 <__sfvwrite_r+0x1f8>
   1d280:	000c8993          	mv	s3,s9
   1d284:	01997463          	bgeu	s2,s9,1d28c <__sfvwrite_r+0x3e0>
   1d288:	00090993          	mv	s3,s2
   1d28c:	00098613          	mv	a2,s3
   1d290:	000c0593          	mv	a1,s8
   1d294:	3b4000ef          	jal	ra,1d648 <memmove>
   1d298:	00842783          	lw	a5,8(s0)
   1d29c:	00042703          	lw	a4,0(s0)
   1d2a0:	413787b3          	sub	a5,a5,s3
   1d2a4:	01370733          	add	a4,a4,s3
   1d2a8:	00f42423          	sw	a5,8(s0)
   1d2ac:	00e42023          	sw	a4,0(s0)
   1d2b0:	fc0794e3          	bnez	a5,1d278 <__sfvwrite_r+0x3cc>
   1d2b4:	00040593          	mv	a1,s0
   1d2b8:	000a8513          	mv	a0,s5
   1d2bc:	9d8f60ef          	jal	ra,13494 <_fflush_r>
   1d2c0:	f0051ce3          	bnez	a0,1d1d8 <__sfvwrite_r+0x32c>
   1d2c4:	41390933          	sub	s2,s2,s3
   1d2c8:	dddff06f          	j	1d0a4 <__sfvwrite_r+0x1f8>
   1d2cc:	00090c93          	mv	s9,s2
   1d2d0:	00090d13          	mv	s10,s2
   1d2d4:	da5ff06f          	j	1d078 <__sfvwrite_r+0x1cc>
   1d2d8:	00040593          	mv	a1,s0
   1d2dc:	000a8513          	mv	a0,s5
   1d2e0:	9b4f60ef          	jal	ra,13494 <_fflush_r>
   1d2e4:	e6050ce3          	beqz	a0,1d15c <__sfvwrite_r+0x2b0>
   1d2e8:	ef1ff06f          	j	1d1d8 <__sfvwrite_r+0x32c>
   1d2ec:	000b8613          	mv	a2,s7
   1d2f0:	000c0593          	mv	a1,s8
   1d2f4:	354000ef          	jal	ra,1d648 <memmove>
   1d2f8:	00842783          	lw	a5,8(s0)
   1d2fc:	00042603          	lw	a2,0(s0)
   1d300:	000b8913          	mv	s2,s7
   1d304:	417787b3          	sub	a5,a5,s7
   1d308:	01760633          	add	a2,a2,s7
   1d30c:	00f42423          	sw	a5,8(s0)
   1d310:	00c42023          	sw	a2,0(s0)
   1d314:	e3dff06f          	j	1d150 <__sfvwrite_r+0x2a4>
   1d318:	000a8513          	mv	a0,s5
   1d31c:	4b4000ef          	jal	ra,1d7d0 <_realloc_r>
   1d320:	00050c93          	mv	s9,a0
   1d324:	d2051ae3          	bnez	a0,1d058 <__sfvwrite_r+0x1ac>
   1d328:	01042583          	lw	a1,16(s0)
   1d32c:	000a8513          	mv	a0,s5
   1d330:	ed8f60ef          	jal	ra,13a08 <_free_r>
   1d334:	00c41783          	lh	a5,12(s0)
   1d338:	00c00713          	li	a4,12
   1d33c:	00eaa023          	sw	a4,0(s5)
   1d340:	f7f7f793          	andi	a5,a5,-129
   1d344:	e99ff06f          	j	1d1dc <__sfvwrite_r+0x330>
   1d348:	00c00713          	li	a4,12
   1d34c:	00c41783          	lh	a5,12(s0)
   1d350:	00eaa023          	sw	a4,0(s5)
   1d354:	e89ff06f          	j	1d1dc <__sfvwrite_r+0x330>
   1d358:	fff00513          	li	a0,-1
   1d35c:	e1dff06f          	j	1d178 <__sfvwrite_r+0x2cc>

0001d360 <_isatty_r>:
   1d360:	ff010113          	addi	sp,sp,-16
   1d364:	00812423          	sw	s0,8(sp)
   1d368:	00912223          	sw	s1,4(sp)
   1d36c:	00050413          	mv	s0,a0
   1d370:	00058513          	mv	a0,a1
   1d374:	00112623          	sw	ra,12(sp)
   1d378:	2201a823          	sw	zero,560(gp) # 26f28 <errno>
   1d37c:	2e0020ef          	jal	ra,1f65c <_isatty>
   1d380:	fff00793          	li	a5,-1
   1d384:	00f50c63          	beq	a0,a5,1d39c <_isatty_r+0x3c>
   1d388:	00c12083          	lw	ra,12(sp)
   1d38c:	00812403          	lw	s0,8(sp)
   1d390:	00412483          	lw	s1,4(sp)
   1d394:	01010113          	addi	sp,sp,16
   1d398:	00008067          	ret
   1d39c:	2301a783          	lw	a5,560(gp) # 26f28 <errno>
   1d3a0:	fe0784e3          	beqz	a5,1d388 <_isatty_r+0x28>
   1d3a4:	00c12083          	lw	ra,12(sp)
   1d3a8:	00f42023          	sw	a5,0(s0)
   1d3ac:	00812403          	lw	s0,8(sp)
   1d3b0:	00412483          	lw	s1,4(sp)
   1d3b4:	01010113          	addi	sp,sp,16
   1d3b8:	00008067          	ret

0001d3bc <_setlocale_r>:
   1d3bc:	ff010113          	addi	sp,sp,-16
   1d3c0:	00112623          	sw	ra,12(sp)
   1d3c4:	00812423          	sw	s0,8(sp)
   1d3c8:	00912223          	sw	s1,4(sp)
   1d3cc:	02060c63          	beqz	a2,1d404 <_setlocale_r+0x48>
   1d3d0:	000255b7          	lui	a1,0x25
   1d3d4:	fe458593          	addi	a1,a1,-28 # 24fe4 <zeroes.4460+0x14>
   1d3d8:	00060513          	mv	a0,a2
   1d3dc:	00060413          	mv	s0,a2
   1d3e0:	2ad000ef          	jal	ra,1de8c <strcmp>
   1d3e4:	000254b7          	lui	s1,0x25
   1d3e8:	02051263          	bnez	a0,1d40c <_setlocale_r+0x50>
   1d3ec:	fe048513          	addi	a0,s1,-32 # 24fe0 <zeroes.4460+0x10>
   1d3f0:	00c12083          	lw	ra,12(sp)
   1d3f4:	00812403          	lw	s0,8(sp)
   1d3f8:	00412483          	lw	s1,4(sp)
   1d3fc:	01010113          	addi	sp,sp,16
   1d400:	00008067          	ret
   1d404:	000254b7          	lui	s1,0x25
   1d408:	fe5ff06f          	j	1d3ec <_setlocale_r+0x30>
   1d40c:	fe048593          	addi	a1,s1,-32 # 24fe0 <zeroes.4460+0x10>
   1d410:	00040513          	mv	a0,s0
   1d414:	279000ef          	jal	ra,1de8c <strcmp>
   1d418:	fc050ae3          	beqz	a0,1d3ec <_setlocale_r+0x30>
   1d41c:	000245b7          	lui	a1,0x24
   1d420:	78858593          	addi	a1,a1,1928 # 24788 <__clzsi2+0x8c>
   1d424:	00040513          	mv	a0,s0
   1d428:	265000ef          	jal	ra,1de8c <strcmp>
   1d42c:	fc0500e3          	beqz	a0,1d3ec <_setlocale_r+0x30>
   1d430:	00000513          	li	a0,0
   1d434:	fbdff06f          	j	1d3f0 <_setlocale_r+0x34>

0001d438 <__locale_mb_cur_max>:
   1d438:	1581c503          	lbu	a0,344(gp) # 26e50 <__global_locale+0x128>
   1d43c:	00008067          	ret

0001d440 <setlocale>:
   1d440:	00050793          	mv	a5,a0
   1d444:	1cc1a503          	lw	a0,460(gp) # 26ec4 <_impure_ptr>
   1d448:	00058613          	mv	a2,a1
   1d44c:	00078593          	mv	a1,a5
   1d450:	f6dff06f          	j	1d3bc <_setlocale_r>

0001d454 <_lseek_r>:
   1d454:	ff010113          	addi	sp,sp,-16
   1d458:	00058713          	mv	a4,a1
   1d45c:	00812423          	sw	s0,8(sp)
   1d460:	00912223          	sw	s1,4(sp)
   1d464:	00060593          	mv	a1,a2
   1d468:	00050413          	mv	s0,a0
   1d46c:	00068613          	mv	a2,a3
   1d470:	00070513          	mv	a0,a4
   1d474:	00112623          	sw	ra,12(sp)
   1d478:	2201a823          	sw	zero,560(gp) # 26f28 <errno>
   1d47c:	220020ef          	jal	ra,1f69c <_lseek>
   1d480:	fff00793          	li	a5,-1
   1d484:	00f50c63          	beq	a0,a5,1d49c <_lseek_r+0x48>
   1d488:	00c12083          	lw	ra,12(sp)
   1d48c:	00812403          	lw	s0,8(sp)
   1d490:	00412483          	lw	s1,4(sp)
   1d494:	01010113          	addi	sp,sp,16
   1d498:	00008067          	ret
   1d49c:	2301a783          	lw	a5,560(gp) # 26f28 <errno>
   1d4a0:	fe0784e3          	beqz	a5,1d488 <_lseek_r+0x34>
   1d4a4:	00c12083          	lw	ra,12(sp)
   1d4a8:	00f42023          	sw	a5,0(s0)
   1d4ac:	00812403          	lw	s0,8(sp)
   1d4b0:	00412483          	lw	s1,4(sp)
   1d4b4:	01010113          	addi	sp,sp,16
   1d4b8:	00008067          	ret

0001d4bc <_mbtowc_r>:
   1d4bc:	1141a303          	lw	t1,276(gp) # 26e0c <__global_locale+0xe4>
   1d4c0:	00030067          	jr	t1

0001d4c4 <__ascii_mbtowc>:
   1d4c4:	02058063          	beqz	a1,1d4e4 <__ascii_mbtowc+0x20>
   1d4c8:	04060263          	beqz	a2,1d50c <__ascii_mbtowc+0x48>
   1d4cc:	04068863          	beqz	a3,1d51c <__ascii_mbtowc+0x58>
   1d4d0:	00064783          	lbu	a5,0(a2)
   1d4d4:	00f5a023          	sw	a5,0(a1)
   1d4d8:	00064503          	lbu	a0,0(a2)
   1d4dc:	00a03533          	snez	a0,a0
   1d4e0:	00008067          	ret
   1d4e4:	ff010113          	addi	sp,sp,-16
   1d4e8:	00c10593          	addi	a1,sp,12
   1d4ec:	02060463          	beqz	a2,1d514 <__ascii_mbtowc+0x50>
   1d4f0:	02068a63          	beqz	a3,1d524 <__ascii_mbtowc+0x60>
   1d4f4:	00064783          	lbu	a5,0(a2)
   1d4f8:	00f5a023          	sw	a5,0(a1)
   1d4fc:	00064503          	lbu	a0,0(a2)
   1d500:	00a03533          	snez	a0,a0
   1d504:	01010113          	addi	sp,sp,16
   1d508:	00008067          	ret
   1d50c:	00000513          	li	a0,0
   1d510:	00008067          	ret
   1d514:	00000513          	li	a0,0
   1d518:	fedff06f          	j	1d504 <__ascii_mbtowc+0x40>
   1d51c:	ffe00513          	li	a0,-2
   1d520:	00008067          	ret
   1d524:	ffe00513          	li	a0,-2
   1d528:	fddff06f          	j	1d504 <__ascii_mbtowc+0x40>

0001d52c <memcpy>:
   1d52c:	00a5c7b3          	xor	a5,a1,a0
   1d530:	0037f793          	andi	a5,a5,3
   1d534:	00c508b3          	add	a7,a0,a2
   1d538:	06079263          	bnez	a5,1d59c <memcpy+0x70>
   1d53c:	00300793          	li	a5,3
   1d540:	04c7fe63          	bgeu	a5,a2,1d59c <memcpy+0x70>
   1d544:	00357793          	andi	a5,a0,3
   1d548:	00050713          	mv	a4,a0
   1d54c:	06079863          	bnez	a5,1d5bc <memcpy+0x90>
   1d550:	ffc8f613          	andi	a2,a7,-4
   1d554:	fe060793          	addi	a5,a2,-32
   1d558:	08f76c63          	bltu	a4,a5,1d5f0 <memcpy+0xc4>
   1d55c:	02c77c63          	bgeu	a4,a2,1d594 <memcpy+0x68>
   1d560:	00058693          	mv	a3,a1
   1d564:	00070793          	mv	a5,a4
   1d568:	0006a803          	lw	a6,0(a3) # 2000 <register_fini-0xe074>
   1d56c:	00478793          	addi	a5,a5,4
   1d570:	00468693          	addi	a3,a3,4
   1d574:	ff07ae23          	sw	a6,-4(a5)
   1d578:	fec7e8e3          	bltu	a5,a2,1d568 <memcpy+0x3c>
   1d57c:	fff60793          	addi	a5,a2,-1
   1d580:	40e787b3          	sub	a5,a5,a4
   1d584:	ffc7f793          	andi	a5,a5,-4
   1d588:	00478793          	addi	a5,a5,4
   1d58c:	00f70733          	add	a4,a4,a5
   1d590:	00f585b3          	add	a1,a1,a5
   1d594:	01176863          	bltu	a4,a7,1d5a4 <memcpy+0x78>
   1d598:	00008067          	ret
   1d59c:	00050713          	mv	a4,a0
   1d5a0:	ff157ce3          	bgeu	a0,a7,1d598 <memcpy+0x6c>
   1d5a4:	0005c783          	lbu	a5,0(a1)
   1d5a8:	00170713          	addi	a4,a4,1
   1d5ac:	00158593          	addi	a1,a1,1
   1d5b0:	fef70fa3          	sb	a5,-1(a4)
   1d5b4:	ff1768e3          	bltu	a4,a7,1d5a4 <memcpy+0x78>
   1d5b8:	00008067          	ret
   1d5bc:	0005c683          	lbu	a3,0(a1)
   1d5c0:	00170713          	addi	a4,a4,1
   1d5c4:	00377793          	andi	a5,a4,3
   1d5c8:	fed70fa3          	sb	a3,-1(a4)
   1d5cc:	00158593          	addi	a1,a1,1
   1d5d0:	f80780e3          	beqz	a5,1d550 <memcpy+0x24>
   1d5d4:	0005c683          	lbu	a3,0(a1)
   1d5d8:	00170713          	addi	a4,a4,1
   1d5dc:	00377793          	andi	a5,a4,3
   1d5e0:	fed70fa3          	sb	a3,-1(a4)
   1d5e4:	00158593          	addi	a1,a1,1
   1d5e8:	fc079ae3          	bnez	a5,1d5bc <memcpy+0x90>
   1d5ec:	f65ff06f          	j	1d550 <memcpy+0x24>
   1d5f0:	0045a683          	lw	a3,4(a1)
   1d5f4:	0005a283          	lw	t0,0(a1)
   1d5f8:	0085af83          	lw	t6,8(a1)
   1d5fc:	00c5af03          	lw	t5,12(a1)
   1d600:	0105ae83          	lw	t4,16(a1)
   1d604:	0145ae03          	lw	t3,20(a1)
   1d608:	0185a303          	lw	t1,24(a1)
   1d60c:	01c5a803          	lw	a6,28(a1)
   1d610:	00d72223          	sw	a3,4(a4)
   1d614:	0205a683          	lw	a3,32(a1)
   1d618:	00572023          	sw	t0,0(a4)
   1d61c:	01f72423          	sw	t6,8(a4)
   1d620:	01e72623          	sw	t5,12(a4)
   1d624:	01d72823          	sw	t4,16(a4)
   1d628:	01c72a23          	sw	t3,20(a4)
   1d62c:	00672c23          	sw	t1,24(a4)
   1d630:	01072e23          	sw	a6,28(a4)
   1d634:	02d72023          	sw	a3,32(a4)
   1d638:	02470713          	addi	a4,a4,36
   1d63c:	02458593          	addi	a1,a1,36
   1d640:	faf768e3          	bltu	a4,a5,1d5f0 <memcpy+0xc4>
   1d644:	f19ff06f          	j	1d55c <memcpy+0x30>

0001d648 <memmove>:
   1d648:	02a5f663          	bgeu	a1,a0,1d674 <memmove+0x2c>
   1d64c:	00c587b3          	add	a5,a1,a2
   1d650:	02f57263          	bgeu	a0,a5,1d674 <memmove+0x2c>
   1d654:	00c50733          	add	a4,a0,a2
   1d658:	0e060a63          	beqz	a2,1d74c <memmove+0x104>
   1d65c:	fff7c683          	lbu	a3,-1(a5)
   1d660:	fff78793          	addi	a5,a5,-1
   1d664:	fff70713          	addi	a4,a4,-1
   1d668:	00d70023          	sb	a3,0(a4)
   1d66c:	fef598e3          	bne	a1,a5,1d65c <memmove+0x14>
   1d670:	00008067          	ret
   1d674:	00f00793          	li	a5,15
   1d678:	02c7e863          	bltu	a5,a2,1d6a8 <memmove+0x60>
   1d67c:	00050793          	mv	a5,a0
   1d680:	fff60693          	addi	a3,a2,-1
   1d684:	0c060c63          	beqz	a2,1d75c <memmove+0x114>
   1d688:	00168693          	addi	a3,a3,1
   1d68c:	00d786b3          	add	a3,a5,a3
   1d690:	0005c703          	lbu	a4,0(a1)
   1d694:	00178793          	addi	a5,a5,1
   1d698:	00158593          	addi	a1,a1,1
   1d69c:	fee78fa3          	sb	a4,-1(a5)
   1d6a0:	fed798e3          	bne	a5,a3,1d690 <memmove+0x48>
   1d6a4:	00008067          	ret
   1d6a8:	00a5e7b3          	or	a5,a1,a0
   1d6ac:	0037f793          	andi	a5,a5,3
   1d6b0:	0a079063          	bnez	a5,1d750 <memmove+0x108>
   1d6b4:	ff060893          	addi	a7,a2,-16
   1d6b8:	ff08f893          	andi	a7,a7,-16
   1d6bc:	01088893          	addi	a7,a7,16
   1d6c0:	01150833          	add	a6,a0,a7
   1d6c4:	00058713          	mv	a4,a1
   1d6c8:	00050793          	mv	a5,a0
   1d6cc:	00072683          	lw	a3,0(a4)
   1d6d0:	01070713          	addi	a4,a4,16
   1d6d4:	01078793          	addi	a5,a5,16
   1d6d8:	fed7a823          	sw	a3,-16(a5)
   1d6dc:	ff472683          	lw	a3,-12(a4)
   1d6e0:	fed7aa23          	sw	a3,-12(a5)
   1d6e4:	ff872683          	lw	a3,-8(a4)
   1d6e8:	fed7ac23          	sw	a3,-8(a5)
   1d6ec:	ffc72683          	lw	a3,-4(a4)
   1d6f0:	fed7ae23          	sw	a3,-4(a5)
   1d6f4:	fcf81ce3          	bne	a6,a5,1d6cc <memmove+0x84>
   1d6f8:	00c67713          	andi	a4,a2,12
   1d6fc:	011585b3          	add	a1,a1,a7
   1d700:	00f67813          	andi	a6,a2,15
   1d704:	04070e63          	beqz	a4,1d760 <memmove+0x118>
   1d708:	00058713          	mv	a4,a1
   1d70c:	00078893          	mv	a7,a5
   1d710:	00300e13          	li	t3,3
   1d714:	00072303          	lw	t1,0(a4)
   1d718:	00470713          	addi	a4,a4,4
   1d71c:	40e806b3          	sub	a3,a6,a4
   1d720:	0068a023          	sw	t1,0(a7)
   1d724:	00d586b3          	add	a3,a1,a3
   1d728:	00488893          	addi	a7,a7,4
   1d72c:	fede64e3          	bltu	t3,a3,1d714 <memmove+0xcc>
   1d730:	ffc80713          	addi	a4,a6,-4
   1d734:	ffc77713          	andi	a4,a4,-4
   1d738:	00470713          	addi	a4,a4,4
   1d73c:	00367613          	andi	a2,a2,3
   1d740:	00e787b3          	add	a5,a5,a4
   1d744:	00e585b3          	add	a1,a1,a4
   1d748:	f39ff06f          	j	1d680 <memmove+0x38>
   1d74c:	00008067          	ret
   1d750:	fff60693          	addi	a3,a2,-1
   1d754:	00050793          	mv	a5,a0
   1d758:	f31ff06f          	j	1d688 <memmove+0x40>
   1d75c:	00008067          	ret
   1d760:	00080613          	mv	a2,a6
   1d764:	f1dff06f          	j	1d680 <memmove+0x38>

0001d768 <_read_r>:
   1d768:	ff010113          	addi	sp,sp,-16
   1d76c:	00058713          	mv	a4,a1
   1d770:	00812423          	sw	s0,8(sp)
   1d774:	00912223          	sw	s1,4(sp)
   1d778:	00060593          	mv	a1,a2
   1d77c:	00050413          	mv	s0,a0
   1d780:	00068613          	mv	a2,a3
   1d784:	00070513          	mv	a0,a4
   1d788:	00112623          	sw	ra,12(sp)
   1d78c:	2201a823          	sw	zero,560(gp) # 26f28 <errno>
   1d790:	75d010ef          	jal	ra,1f6ec <_read>
   1d794:	fff00793          	li	a5,-1
   1d798:	00f50c63          	beq	a0,a5,1d7b0 <_read_r+0x48>
   1d79c:	00c12083          	lw	ra,12(sp)
   1d7a0:	00812403          	lw	s0,8(sp)
   1d7a4:	00412483          	lw	s1,4(sp)
   1d7a8:	01010113          	addi	sp,sp,16
   1d7ac:	00008067          	ret
   1d7b0:	2301a783          	lw	a5,560(gp) # 26f28 <errno>
   1d7b4:	fe0784e3          	beqz	a5,1d79c <_read_r+0x34>
   1d7b8:	00c12083          	lw	ra,12(sp)
   1d7bc:	00f42023          	sw	a5,0(s0)
   1d7c0:	00812403          	lw	s0,8(sp)
   1d7c4:	00412483          	lw	s1,4(sp)
   1d7c8:	01010113          	addi	sp,sp,16
   1d7cc:	00008067          	ret

0001d7d0 <_realloc_r>:
   1d7d0:	fd010113          	addi	sp,sp,-48
   1d7d4:	03212023          	sw	s2,32(sp)
   1d7d8:	02112623          	sw	ra,44(sp)
   1d7dc:	02812423          	sw	s0,40(sp)
   1d7e0:	02912223          	sw	s1,36(sp)
   1d7e4:	01312e23          	sw	s3,28(sp)
   1d7e8:	01412c23          	sw	s4,24(sp)
   1d7ec:	01512a23          	sw	s5,20(sp)
   1d7f0:	01612823          	sw	s6,16(sp)
   1d7f4:	01712623          	sw	s7,12(sp)
   1d7f8:	01812423          	sw	s8,8(sp)
   1d7fc:	00060913          	mv	s2,a2
   1d800:	22058263          	beqz	a1,1da24 <_realloc_r+0x254>
   1d804:	00058413          	mv	s0,a1
   1d808:	00050993          	mv	s3,a0
   1d80c:	c85f90ef          	jal	ra,17490 <__malloc_lock>
   1d810:	00b90493          	addi	s1,s2,11
   1d814:	01600793          	li	a5,22
   1d818:	0e97fc63          	bgeu	a5,s1,1d910 <_realloc_r+0x140>
   1d81c:	ff84f493          	andi	s1,s1,-8
   1d820:	00048713          	mv	a4,s1
   1d824:	0e04cc63          	bltz	s1,1d91c <_realloc_r+0x14c>
   1d828:	0f24ea63          	bltu	s1,s2,1d91c <_realloc_r+0x14c>
   1d82c:	ffc42783          	lw	a5,-4(s0)
   1d830:	ff840a93          	addi	s5,s0,-8
   1d834:	ffc7fa13          	andi	s4,a5,-4
   1d838:	014a8b33          	add	s6,s5,s4
   1d83c:	18ea5a63          	bge	s4,a4,1d9d0 <_realloc_r+0x200>
   1d840:	c2818b93          	addi	s7,gp,-984 # 26920 <__malloc_av_>
   1d844:	008ba603          	lw	a2,8(s7)
   1d848:	004b2683          	lw	a3,4(s6) # 80000004 <__BSS_END__+0x7ffd90d8>
   1d84c:	23660e63          	beq	a2,s6,1da88 <_realloc_r+0x2b8>
   1d850:	ffe6f613          	andi	a2,a3,-2
   1d854:	00cb0633          	add	a2,s6,a2
   1d858:	00462603          	lw	a2,4(a2)
   1d85c:	00167613          	andi	a2,a2,1
   1d860:	1a061463          	bnez	a2,1da08 <_realloc_r+0x238>
   1d864:	ffc6f693          	andi	a3,a3,-4
   1d868:	00da0633          	add	a2,s4,a3
   1d86c:	32e65e63          	bge	a2,a4,1dba8 <_realloc_r+0x3d8>
   1d870:	0017f793          	andi	a5,a5,1
   1d874:	02079463          	bnez	a5,1d89c <_realloc_r+0xcc>
   1d878:	ff842c03          	lw	s8,-8(s0)
   1d87c:	418a8c33          	sub	s8,s5,s8
   1d880:	004c2783          	lw	a5,4(s8)
   1d884:	ffc7f793          	andi	a5,a5,-4
   1d888:	00d786b3          	add	a3,a5,a3
   1d88c:	01468bb3          	add	s7,a3,s4
   1d890:	34ebda63          	bge	s7,a4,1dbe4 <_realloc_r+0x414>
   1d894:	00fa0bb3          	add	s7,s4,a5
   1d898:	0cebd263          	bge	s7,a4,1d95c <_realloc_r+0x18c>
   1d89c:	00090593          	mv	a1,s2
   1d8a0:	00098513          	mv	a0,s3
   1d8a4:	b80f90ef          	jal	ra,16c24 <_malloc_r>
   1d8a8:	00050913          	mv	s2,a0
   1d8ac:	04050c63          	beqz	a0,1d904 <_realloc_r+0x134>
   1d8b0:	ffc42783          	lw	a5,-4(s0)
   1d8b4:	ff850713          	addi	a4,a0,-8
   1d8b8:	ffe7f793          	andi	a5,a5,-2
   1d8bc:	00fa87b3          	add	a5,s5,a5
   1d8c0:	30e78263          	beq	a5,a4,1dbc4 <_realloc_r+0x3f4>
   1d8c4:	ffca0613          	addi	a2,s4,-4
   1d8c8:	02400793          	li	a5,36
   1d8cc:	30c7e663          	bltu	a5,a2,1dbd8 <_realloc_r+0x408>
   1d8d0:	01300713          	li	a4,19
   1d8d4:	00042683          	lw	a3,0(s0)
   1d8d8:	26c76c63          	bltu	a4,a2,1db50 <_realloc_r+0x380>
   1d8dc:	00050793          	mv	a5,a0
   1d8e0:	00040713          	mv	a4,s0
   1d8e4:	00d7a023          	sw	a3,0(a5)
   1d8e8:	00472683          	lw	a3,4(a4)
   1d8ec:	00d7a223          	sw	a3,4(a5)
   1d8f0:	00872703          	lw	a4,8(a4)
   1d8f4:	00e7a423          	sw	a4,8(a5)
   1d8f8:	00040593          	mv	a1,s0
   1d8fc:	00098513          	mv	a0,s3
   1d900:	908f60ef          	jal	ra,13a08 <_free_r>
   1d904:	00098513          	mv	a0,s3
   1d908:	b8df90ef          	jal	ra,17494 <__malloc_unlock>
   1d90c:	01c0006f          	j	1d928 <_realloc_r+0x158>
   1d910:	01000493          	li	s1,16
   1d914:	01000713          	li	a4,16
   1d918:	f124fae3          	bgeu	s1,s2,1d82c <_realloc_r+0x5c>
   1d91c:	00c00793          	li	a5,12
   1d920:	00f9a023          	sw	a5,0(s3)
   1d924:	00000913          	li	s2,0
   1d928:	02c12083          	lw	ra,44(sp)
   1d92c:	02812403          	lw	s0,40(sp)
   1d930:	02412483          	lw	s1,36(sp)
   1d934:	01c12983          	lw	s3,28(sp)
   1d938:	01812a03          	lw	s4,24(sp)
   1d93c:	01412a83          	lw	s5,20(sp)
   1d940:	01012b03          	lw	s6,16(sp)
   1d944:	00c12b83          	lw	s7,12(sp)
   1d948:	00812c03          	lw	s8,8(sp)
   1d94c:	00090513          	mv	a0,s2
   1d950:	02012903          	lw	s2,32(sp)
   1d954:	03010113          	addi	sp,sp,48
   1d958:	00008067          	ret
   1d95c:	00cc2783          	lw	a5,12(s8)
   1d960:	008c2703          	lw	a4,8(s8)
   1d964:	ffca0613          	addi	a2,s4,-4
   1d968:	02400693          	li	a3,36
   1d96c:	00f72623          	sw	a5,12(a4)
   1d970:	00e7a423          	sw	a4,8(a5)
   1d974:	008c0913          	addi	s2,s8,8
   1d978:	017c0b33          	add	s6,s8,s7
   1d97c:	2ec6e463          	bltu	a3,a2,1dc64 <_realloc_r+0x494>
   1d980:	01300593          	li	a1,19
   1d984:	00042703          	lw	a4,0(s0)
   1d988:	00090793          	mv	a5,s2
   1d98c:	02c5f263          	bgeu	a1,a2,1d9b0 <_realloc_r+0x1e0>
   1d990:	00ec2423          	sw	a4,8(s8)
   1d994:	00442703          	lw	a4,4(s0)
   1d998:	01b00793          	li	a5,27
   1d99c:	00ec2623          	sw	a4,12(s8)
   1d9a0:	30c7e263          	bltu	a5,a2,1dca4 <_realloc_r+0x4d4>
   1d9a4:	00842703          	lw	a4,8(s0)
   1d9a8:	010c0793          	addi	a5,s8,16
   1d9ac:	00840413          	addi	s0,s0,8
   1d9b0:	00e7a023          	sw	a4,0(a5)
   1d9b4:	00442703          	lw	a4,4(s0)
   1d9b8:	000b8a13          	mv	s4,s7
   1d9bc:	000c0a93          	mv	s5,s8
   1d9c0:	00e7a223          	sw	a4,4(a5)
   1d9c4:	00842703          	lw	a4,8(s0)
   1d9c8:	00090413          	mv	s0,s2
   1d9cc:	00e7a423          	sw	a4,8(a5)
   1d9d0:	004aa783          	lw	a5,4(s5)
   1d9d4:	409a0733          	sub	a4,s4,s1
   1d9d8:	00f00693          	li	a3,15
   1d9dc:	0017f793          	andi	a5,a5,1
   1d9e0:	06e6ec63          	bltu	a3,a4,1da58 <_realloc_r+0x288>
   1d9e4:	00fa67b3          	or	a5,s4,a5
   1d9e8:	00faa223          	sw	a5,4(s5)
   1d9ec:	004b2783          	lw	a5,4(s6)
   1d9f0:	0017e793          	ori	a5,a5,1
   1d9f4:	00fb2223          	sw	a5,4(s6)
   1d9f8:	00098513          	mv	a0,s3
   1d9fc:	a99f90ef          	jal	ra,17494 <__malloc_unlock>
   1da00:	00040913          	mv	s2,s0
   1da04:	f25ff06f          	j	1d928 <_realloc_r+0x158>
   1da08:	0017f793          	andi	a5,a5,1
   1da0c:	e80798e3          	bnez	a5,1d89c <_realloc_r+0xcc>
   1da10:	ff842c03          	lw	s8,-8(s0)
   1da14:	418a8c33          	sub	s8,s5,s8
   1da18:	004c2783          	lw	a5,4(s8)
   1da1c:	ffc7f793          	andi	a5,a5,-4
   1da20:	e75ff06f          	j	1d894 <_realloc_r+0xc4>
   1da24:	02812403          	lw	s0,40(sp)
   1da28:	02c12083          	lw	ra,44(sp)
   1da2c:	02412483          	lw	s1,36(sp)
   1da30:	02012903          	lw	s2,32(sp)
   1da34:	01c12983          	lw	s3,28(sp)
   1da38:	01812a03          	lw	s4,24(sp)
   1da3c:	01412a83          	lw	s5,20(sp)
   1da40:	01012b03          	lw	s6,16(sp)
   1da44:	00c12b83          	lw	s7,12(sp)
   1da48:	00812c03          	lw	s8,8(sp)
   1da4c:	00060593          	mv	a1,a2
   1da50:	03010113          	addi	sp,sp,48
   1da54:	9d0f906f          	j	16c24 <_malloc_r>
   1da58:	0097e7b3          	or	a5,a5,s1
   1da5c:	00faa223          	sw	a5,4(s5)
   1da60:	009a85b3          	add	a1,s5,s1
   1da64:	00176713          	ori	a4,a4,1
   1da68:	00e5a223          	sw	a4,4(a1)
   1da6c:	004b2783          	lw	a5,4(s6)
   1da70:	00858593          	addi	a1,a1,8
   1da74:	00098513          	mv	a0,s3
   1da78:	0017e793          	ori	a5,a5,1
   1da7c:	00fb2223          	sw	a5,4(s6)
   1da80:	f89f50ef          	jal	ra,13a08 <_free_r>
   1da84:	f75ff06f          	j	1d9f8 <_realloc_r+0x228>
   1da88:	ffc6f693          	andi	a3,a3,-4
   1da8c:	00da0633          	add	a2,s4,a3
   1da90:	01048593          	addi	a1,s1,16
   1da94:	0eb65063          	bge	a2,a1,1db74 <_realloc_r+0x3a4>
   1da98:	0017f793          	andi	a5,a5,1
   1da9c:	e00790e3          	bnez	a5,1d89c <_realloc_r+0xcc>
   1daa0:	ff842c03          	lw	s8,-8(s0)
   1daa4:	418a8c33          	sub	s8,s5,s8
   1daa8:	004c2783          	lw	a5,4(s8)
   1daac:	ffc7f793          	andi	a5,a5,-4
   1dab0:	00d786b3          	add	a3,a5,a3
   1dab4:	01468b33          	add	s6,a3,s4
   1dab8:	dcbb4ee3          	blt	s6,a1,1d894 <_realloc_r+0xc4>
   1dabc:	00cc2783          	lw	a5,12(s8)
   1dac0:	008c2703          	lw	a4,8(s8)
   1dac4:	ffca0613          	addi	a2,s4,-4
   1dac8:	02400693          	li	a3,36
   1dacc:	00f72623          	sw	a5,12(a4)
   1dad0:	00e7a423          	sw	a4,8(a5)
   1dad4:	008c0913          	addi	s2,s8,8
   1dad8:	20c6ee63          	bltu	a3,a2,1dcf4 <_realloc_r+0x524>
   1dadc:	01300593          	li	a1,19
   1dae0:	00042703          	lw	a4,0(s0)
   1dae4:	00090793          	mv	a5,s2
   1dae8:	02c5f263          	bgeu	a1,a2,1db0c <_realloc_r+0x33c>
   1daec:	00ec2423          	sw	a4,8(s8)
   1daf0:	00442703          	lw	a4,4(s0)
   1daf4:	01b00793          	li	a5,27
   1daf8:	00ec2623          	sw	a4,12(s8)
   1dafc:	20c7e463          	bltu	a5,a2,1dd04 <_realloc_r+0x534>
   1db00:	00842703          	lw	a4,8(s0)
   1db04:	010c0793          	addi	a5,s8,16
   1db08:	00840413          	addi	s0,s0,8
   1db0c:	00e7a023          	sw	a4,0(a5)
   1db10:	00442703          	lw	a4,4(s0)
   1db14:	00e7a223          	sw	a4,4(a5)
   1db18:	00842703          	lw	a4,8(s0)
   1db1c:	00e7a423          	sw	a4,8(a5)
   1db20:	009c0733          	add	a4,s8,s1
   1db24:	409b07b3          	sub	a5,s6,s1
   1db28:	00eba423          	sw	a4,8(s7)
   1db2c:	0017e793          	ori	a5,a5,1
   1db30:	00f72223          	sw	a5,4(a4)
   1db34:	004c2783          	lw	a5,4(s8)
   1db38:	00098513          	mv	a0,s3
   1db3c:	0017f793          	andi	a5,a5,1
   1db40:	0097e4b3          	or	s1,a5,s1
   1db44:	009c2223          	sw	s1,4(s8)
   1db48:	94df90ef          	jal	ra,17494 <__malloc_unlock>
   1db4c:	dddff06f          	j	1d928 <_realloc_r+0x158>
   1db50:	00d52023          	sw	a3,0(a0)
   1db54:	00442683          	lw	a3,4(s0)
   1db58:	01b00713          	li	a4,27
   1db5c:	00d52223          	sw	a3,4(a0)
   1db60:	12c76063          	bltu	a4,a2,1dc80 <_realloc_r+0x4b0>
   1db64:	00842683          	lw	a3,8(s0)
   1db68:	00840713          	addi	a4,s0,8
   1db6c:	00850793          	addi	a5,a0,8
   1db70:	d75ff06f          	j	1d8e4 <_realloc_r+0x114>
   1db74:	009a8ab3          	add	s5,s5,s1
   1db78:	409607b3          	sub	a5,a2,s1
   1db7c:	015ba423          	sw	s5,8(s7)
   1db80:	0017e793          	ori	a5,a5,1
   1db84:	00faa223          	sw	a5,4(s5)
   1db88:	ffc42783          	lw	a5,-4(s0)
   1db8c:	00098513          	mv	a0,s3
   1db90:	00040913          	mv	s2,s0
   1db94:	0017f793          	andi	a5,a5,1
   1db98:	0097e4b3          	or	s1,a5,s1
   1db9c:	fe942e23          	sw	s1,-4(s0)
   1dba0:	8f5f90ef          	jal	ra,17494 <__malloc_unlock>
   1dba4:	d85ff06f          	j	1d928 <_realloc_r+0x158>
   1dba8:	00cb2783          	lw	a5,12(s6)
   1dbac:	008b2703          	lw	a4,8(s6)
   1dbb0:	00060a13          	mv	s4,a2
   1dbb4:	00ca8b33          	add	s6,s5,a2
   1dbb8:	00f72623          	sw	a5,12(a4)
   1dbbc:	00e7a423          	sw	a4,8(a5)
   1dbc0:	e11ff06f          	j	1d9d0 <_realloc_r+0x200>
   1dbc4:	ffc52783          	lw	a5,-4(a0)
   1dbc8:	ffc7f793          	andi	a5,a5,-4
   1dbcc:	00fa0a33          	add	s4,s4,a5
   1dbd0:	014a8b33          	add	s6,s5,s4
   1dbd4:	dfdff06f          	j	1d9d0 <_realloc_r+0x200>
   1dbd8:	00040593          	mv	a1,s0
   1dbdc:	a6dff0ef          	jal	ra,1d648 <memmove>
   1dbe0:	d19ff06f          	j	1d8f8 <_realloc_r+0x128>
   1dbe4:	00cb2783          	lw	a5,12(s6)
   1dbe8:	008b2703          	lw	a4,8(s6)
   1dbec:	ffca0613          	addi	a2,s4,-4
   1dbf0:	02400693          	li	a3,36
   1dbf4:	00f72623          	sw	a5,12(a4)
   1dbf8:	00e7a423          	sw	a4,8(a5)
   1dbfc:	008c2703          	lw	a4,8(s8)
   1dc00:	00cc2783          	lw	a5,12(s8)
   1dc04:	008c0913          	addi	s2,s8,8
   1dc08:	017c0b33          	add	s6,s8,s7
   1dc0c:	00f72623          	sw	a5,12(a4)
   1dc10:	00e7a423          	sw	a4,8(a5)
   1dc14:	04c6e863          	bltu	a3,a2,1dc64 <_realloc_r+0x494>
   1dc18:	01300693          	li	a3,19
   1dc1c:	00042703          	lw	a4,0(s0)
   1dc20:	00090793          	mv	a5,s2
   1dc24:	d8c6f6e3          	bgeu	a3,a2,1d9b0 <_realloc_r+0x1e0>
   1dc28:	00ec2423          	sw	a4,8(s8)
   1dc2c:	00442703          	lw	a4,4(s0)
   1dc30:	01b00793          	li	a5,27
   1dc34:	00ec2623          	sw	a4,12(s8)
   1dc38:	00842703          	lw	a4,8(s0)
   1dc3c:	d6c7f6e3          	bgeu	a5,a2,1d9a8 <_realloc_r+0x1d8>
   1dc40:	00ec2823          	sw	a4,16(s8)
   1dc44:	00c42703          	lw	a4,12(s0)
   1dc48:	02400793          	li	a5,36
   1dc4c:	00ec2a23          	sw	a4,20(s8)
   1dc50:	01042703          	lw	a4,16(s0)
   1dc54:	06f60463          	beq	a2,a5,1dcbc <_realloc_r+0x4ec>
   1dc58:	018c0793          	addi	a5,s8,24
   1dc5c:	01040413          	addi	s0,s0,16
   1dc60:	d51ff06f          	j	1d9b0 <_realloc_r+0x1e0>
   1dc64:	00040593          	mv	a1,s0
   1dc68:	00090513          	mv	a0,s2
   1dc6c:	9ddff0ef          	jal	ra,1d648 <memmove>
   1dc70:	00090413          	mv	s0,s2
   1dc74:	000b8a13          	mv	s4,s7
   1dc78:	000c0a93          	mv	s5,s8
   1dc7c:	d55ff06f          	j	1d9d0 <_realloc_r+0x200>
   1dc80:	00842703          	lw	a4,8(s0)
   1dc84:	00e52423          	sw	a4,8(a0)
   1dc88:	00c42703          	lw	a4,12(s0)
   1dc8c:	00e52623          	sw	a4,12(a0)
   1dc90:	01042683          	lw	a3,16(s0)
   1dc94:	04f60263          	beq	a2,a5,1dcd8 <_realloc_r+0x508>
   1dc98:	01040713          	addi	a4,s0,16
   1dc9c:	01050793          	addi	a5,a0,16
   1dca0:	c45ff06f          	j	1d8e4 <_realloc_r+0x114>
   1dca4:	00842783          	lw	a5,8(s0)
   1dca8:	00fc2823          	sw	a5,16(s8)
   1dcac:	00c42783          	lw	a5,12(s0)
   1dcb0:	00fc2a23          	sw	a5,20(s8)
   1dcb4:	01042703          	lw	a4,16(s0)
   1dcb8:	fad610e3          	bne	a2,a3,1dc58 <_realloc_r+0x488>
   1dcbc:	00ec2c23          	sw	a4,24(s8)
   1dcc0:	01442703          	lw	a4,20(s0)
   1dcc4:	020c0793          	addi	a5,s8,32
   1dcc8:	01840413          	addi	s0,s0,24
   1dccc:	00ec2e23          	sw	a4,28(s8)
   1dcd0:	00042703          	lw	a4,0(s0)
   1dcd4:	cddff06f          	j	1d9b0 <_realloc_r+0x1e0>
   1dcd8:	00d52823          	sw	a3,16(a0)
   1dcdc:	01442683          	lw	a3,20(s0)
   1dce0:	01840713          	addi	a4,s0,24
   1dce4:	01850793          	addi	a5,a0,24
   1dce8:	00d52a23          	sw	a3,20(a0)
   1dcec:	01842683          	lw	a3,24(s0)
   1dcf0:	bf5ff06f          	j	1d8e4 <_realloc_r+0x114>
   1dcf4:	00040593          	mv	a1,s0
   1dcf8:	00090513          	mv	a0,s2
   1dcfc:	94dff0ef          	jal	ra,1d648 <memmove>
   1dd00:	e21ff06f          	j	1db20 <_realloc_r+0x350>
   1dd04:	00842783          	lw	a5,8(s0)
   1dd08:	00fc2823          	sw	a5,16(s8)
   1dd0c:	00c42783          	lw	a5,12(s0)
   1dd10:	00fc2a23          	sw	a5,20(s8)
   1dd14:	01042703          	lw	a4,16(s0)
   1dd18:	00d60863          	beq	a2,a3,1dd28 <_realloc_r+0x558>
   1dd1c:	018c0793          	addi	a5,s8,24
   1dd20:	01040413          	addi	s0,s0,16
   1dd24:	de9ff06f          	j	1db0c <_realloc_r+0x33c>
   1dd28:	00ec2c23          	sw	a4,24(s8)
   1dd2c:	01442703          	lw	a4,20(s0)
   1dd30:	020c0793          	addi	a5,s8,32
   1dd34:	01840413          	addi	s0,s0,24
   1dd38:	00ec2e23          	sw	a4,28(s8)
   1dd3c:	00042703          	lw	a4,0(s0)
   1dd40:	dcdff06f          	j	1db0c <_realloc_r+0x33c>

0001dd44 <cleanup_glue>:
   1dd44:	ff010113          	addi	sp,sp,-16
   1dd48:	00812423          	sw	s0,8(sp)
   1dd4c:	00058413          	mv	s0,a1
   1dd50:	0005a583          	lw	a1,0(a1)
   1dd54:	00912223          	sw	s1,4(sp)
   1dd58:	00112623          	sw	ra,12(sp)
   1dd5c:	00050493          	mv	s1,a0
   1dd60:	00058463          	beqz	a1,1dd68 <cleanup_glue+0x24>
   1dd64:	fe1ff0ef          	jal	ra,1dd44 <cleanup_glue>
   1dd68:	00040593          	mv	a1,s0
   1dd6c:	00812403          	lw	s0,8(sp)
   1dd70:	00c12083          	lw	ra,12(sp)
   1dd74:	00048513          	mv	a0,s1
   1dd78:	00412483          	lw	s1,4(sp)
   1dd7c:	01010113          	addi	sp,sp,16
   1dd80:	c89f506f          	j	13a08 <_free_r>

0001dd84 <_reclaim_reent>:
   1dd84:	1cc1a783          	lw	a5,460(gp) # 26ec4 <_impure_ptr>
   1dd88:	10a78063          	beq	a5,a0,1de88 <_reclaim_reent+0x104>
   1dd8c:	04c52583          	lw	a1,76(a0)
   1dd90:	fe010113          	addi	sp,sp,-32
   1dd94:	00912a23          	sw	s1,20(sp)
   1dd98:	00112e23          	sw	ra,28(sp)
   1dd9c:	00812c23          	sw	s0,24(sp)
   1dda0:	01212823          	sw	s2,16(sp)
   1dda4:	01312623          	sw	s3,12(sp)
   1dda8:	00050493          	mv	s1,a0
   1ddac:	04058063          	beqz	a1,1ddec <_reclaim_reent+0x68>
   1ddb0:	00000913          	li	s2,0
   1ddb4:	08000993          	li	s3,128
   1ddb8:	012587b3          	add	a5,a1,s2
   1ddbc:	0007a403          	lw	s0,0(a5)
   1ddc0:	00040e63          	beqz	s0,1dddc <_reclaim_reent+0x58>
   1ddc4:	00040593          	mv	a1,s0
   1ddc8:	00042403          	lw	s0,0(s0)
   1ddcc:	00048513          	mv	a0,s1
   1ddd0:	c39f50ef          	jal	ra,13a08 <_free_r>
   1ddd4:	fe0418e3          	bnez	s0,1ddc4 <_reclaim_reent+0x40>
   1ddd8:	04c4a583          	lw	a1,76(s1)
   1dddc:	00490913          	addi	s2,s2,4
   1dde0:	fd391ce3          	bne	s2,s3,1ddb8 <_reclaim_reent+0x34>
   1dde4:	00048513          	mv	a0,s1
   1dde8:	c21f50ef          	jal	ra,13a08 <_free_r>
   1ddec:	0404a583          	lw	a1,64(s1)
   1ddf0:	00058663          	beqz	a1,1ddfc <_reclaim_reent+0x78>
   1ddf4:	00048513          	mv	a0,s1
   1ddf8:	c11f50ef          	jal	ra,13a08 <_free_r>
   1ddfc:	1484a403          	lw	s0,328(s1)
   1de00:	02040063          	beqz	s0,1de20 <_reclaim_reent+0x9c>
   1de04:	14c48913          	addi	s2,s1,332
   1de08:	01240c63          	beq	s0,s2,1de20 <_reclaim_reent+0x9c>
   1de0c:	00040593          	mv	a1,s0
   1de10:	00042403          	lw	s0,0(s0)
   1de14:	00048513          	mv	a0,s1
   1de18:	bf1f50ef          	jal	ra,13a08 <_free_r>
   1de1c:	fe8918e3          	bne	s2,s0,1de0c <_reclaim_reent+0x88>
   1de20:	0544a583          	lw	a1,84(s1)
   1de24:	00058663          	beqz	a1,1de30 <_reclaim_reent+0xac>
   1de28:	00048513          	mv	a0,s1
   1de2c:	bddf50ef          	jal	ra,13a08 <_free_r>
   1de30:	0384a783          	lw	a5,56(s1)
   1de34:	02078c63          	beqz	a5,1de6c <_reclaim_reent+0xe8>
   1de38:	03c4a783          	lw	a5,60(s1)
   1de3c:	00048513          	mv	a0,s1
   1de40:	000780e7          	jalr	a5
   1de44:	2e04a583          	lw	a1,736(s1)
   1de48:	02058263          	beqz	a1,1de6c <_reclaim_reent+0xe8>
   1de4c:	01812403          	lw	s0,24(sp)
   1de50:	01c12083          	lw	ra,28(sp)
   1de54:	01012903          	lw	s2,16(sp)
   1de58:	00c12983          	lw	s3,12(sp)
   1de5c:	00048513          	mv	a0,s1
   1de60:	01412483          	lw	s1,20(sp)
   1de64:	02010113          	addi	sp,sp,32
   1de68:	eddff06f          	j	1dd44 <cleanup_glue>
   1de6c:	01c12083          	lw	ra,28(sp)
   1de70:	01812403          	lw	s0,24(sp)
   1de74:	01412483          	lw	s1,20(sp)
   1de78:	01012903          	lw	s2,16(sp)
   1de7c:	00c12983          	lw	s3,12(sp)
   1de80:	02010113          	addi	sp,sp,32
   1de84:	00008067          	ret
   1de88:	00008067          	ret

0001de8c <strcmp>:
   1de8c:	00b56733          	or	a4,a0,a1
   1de90:	fff00393          	li	t2,-1
   1de94:	00377713          	andi	a4,a4,3
   1de98:	10071063          	bnez	a4,1df98 <strcmp+0x10c>
   1de9c:	7f7f87b7          	lui	a5,0x7f7f8
   1dea0:	f7f78793          	addi	a5,a5,-129 # 7f7f7f7f <__BSS_END__+0x7f7d1053>
   1dea4:	00052603          	lw	a2,0(a0)
   1dea8:	0005a683          	lw	a3,0(a1)
   1deac:	00f672b3          	and	t0,a2,a5
   1deb0:	00f66333          	or	t1,a2,a5
   1deb4:	00f282b3          	add	t0,t0,a5
   1deb8:	0062e2b3          	or	t0,t0,t1
   1debc:	10729263          	bne	t0,t2,1dfc0 <strcmp+0x134>
   1dec0:	08d61663          	bne	a2,a3,1df4c <strcmp+0xc0>
   1dec4:	00452603          	lw	a2,4(a0)
   1dec8:	0045a683          	lw	a3,4(a1)
   1decc:	00f672b3          	and	t0,a2,a5
   1ded0:	00f66333          	or	t1,a2,a5
   1ded4:	00f282b3          	add	t0,t0,a5
   1ded8:	0062e2b3          	or	t0,t0,t1
   1dedc:	0c729e63          	bne	t0,t2,1dfb8 <strcmp+0x12c>
   1dee0:	06d61663          	bne	a2,a3,1df4c <strcmp+0xc0>
   1dee4:	00852603          	lw	a2,8(a0)
   1dee8:	0085a683          	lw	a3,8(a1)
   1deec:	00f672b3          	and	t0,a2,a5
   1def0:	00f66333          	or	t1,a2,a5
   1def4:	00f282b3          	add	t0,t0,a5
   1def8:	0062e2b3          	or	t0,t0,t1
   1defc:	0c729863          	bne	t0,t2,1dfcc <strcmp+0x140>
   1df00:	04d61663          	bne	a2,a3,1df4c <strcmp+0xc0>
   1df04:	00c52603          	lw	a2,12(a0)
   1df08:	00c5a683          	lw	a3,12(a1)
   1df0c:	00f672b3          	and	t0,a2,a5
   1df10:	00f66333          	or	t1,a2,a5
   1df14:	00f282b3          	add	t0,t0,a5
   1df18:	0062e2b3          	or	t0,t0,t1
   1df1c:	0c729263          	bne	t0,t2,1dfe0 <strcmp+0x154>
   1df20:	02d61663          	bne	a2,a3,1df4c <strcmp+0xc0>
   1df24:	01052603          	lw	a2,16(a0)
   1df28:	0105a683          	lw	a3,16(a1)
   1df2c:	00f672b3          	and	t0,a2,a5
   1df30:	00f66333          	or	t1,a2,a5
   1df34:	00f282b3          	add	t0,t0,a5
   1df38:	0062e2b3          	or	t0,t0,t1
   1df3c:	0a729c63          	bne	t0,t2,1dff4 <strcmp+0x168>
   1df40:	01450513          	addi	a0,a0,20
   1df44:	01458593          	addi	a1,a1,20
   1df48:	f4d60ee3          	beq	a2,a3,1dea4 <strcmp+0x18>
   1df4c:	01061713          	slli	a4,a2,0x10
   1df50:	01069793          	slli	a5,a3,0x10
   1df54:	00f71e63          	bne	a4,a5,1df70 <strcmp+0xe4>
   1df58:	01065713          	srli	a4,a2,0x10
   1df5c:	0106d793          	srli	a5,a3,0x10
   1df60:	40f70533          	sub	a0,a4,a5
   1df64:	0ff57593          	andi	a1,a0,255
   1df68:	02059063          	bnez	a1,1df88 <strcmp+0xfc>
   1df6c:	00008067          	ret
   1df70:	01075713          	srli	a4,a4,0x10
   1df74:	0107d793          	srli	a5,a5,0x10
   1df78:	40f70533          	sub	a0,a4,a5
   1df7c:	0ff57593          	andi	a1,a0,255
   1df80:	00059463          	bnez	a1,1df88 <strcmp+0xfc>
   1df84:	00008067          	ret
   1df88:	0ff77713          	andi	a4,a4,255
   1df8c:	0ff7f793          	andi	a5,a5,255
   1df90:	40f70533          	sub	a0,a4,a5
   1df94:	00008067          	ret
   1df98:	00054603          	lbu	a2,0(a0)
   1df9c:	0005c683          	lbu	a3,0(a1)
   1dfa0:	00150513          	addi	a0,a0,1
   1dfa4:	00158593          	addi	a1,a1,1
   1dfa8:	00d61463          	bne	a2,a3,1dfb0 <strcmp+0x124>
   1dfac:	fe0616e3          	bnez	a2,1df98 <strcmp+0x10c>
   1dfb0:	40d60533          	sub	a0,a2,a3
   1dfb4:	00008067          	ret
   1dfb8:	00450513          	addi	a0,a0,4
   1dfbc:	00458593          	addi	a1,a1,4
   1dfc0:	fcd61ce3          	bne	a2,a3,1df98 <strcmp+0x10c>
   1dfc4:	00000513          	li	a0,0
   1dfc8:	00008067          	ret
   1dfcc:	00850513          	addi	a0,a0,8
   1dfd0:	00858593          	addi	a1,a1,8
   1dfd4:	fcd612e3          	bne	a2,a3,1df98 <strcmp+0x10c>
   1dfd8:	00000513          	li	a0,0
   1dfdc:	00008067          	ret
   1dfe0:	00c50513          	addi	a0,a0,12
   1dfe4:	00c58593          	addi	a1,a1,12
   1dfe8:	fad618e3          	bne	a2,a3,1df98 <strcmp+0x10c>
   1dfec:	00000513          	li	a0,0
   1dff0:	00008067          	ret
   1dff4:	01050513          	addi	a0,a0,16
   1dff8:	01058593          	addi	a1,a1,16
   1dffc:	f8d61ee3          	bne	a2,a3,1df98 <strcmp+0x10c>
   1e000:	00000513          	li	a0,0
   1e004:	00008067          	ret

0001e008 <__ssprint_r>:
   1e008:	00862783          	lw	a5,8(a2)
   1e00c:	fd010113          	addi	sp,sp,-48
   1e010:	01512a23          	sw	s5,20(sp)
   1e014:	02112623          	sw	ra,44(sp)
   1e018:	02812423          	sw	s0,40(sp)
   1e01c:	02912223          	sw	s1,36(sp)
   1e020:	03212023          	sw	s2,32(sp)
   1e024:	01312e23          	sw	s3,28(sp)
   1e028:	01412c23          	sw	s4,24(sp)
   1e02c:	01612823          	sw	s6,16(sp)
   1e030:	01712623          	sw	s7,12(sp)
   1e034:	01812423          	sw	s8,8(sp)
   1e038:	00060a93          	mv	s5,a2
   1e03c:	14078863          	beqz	a5,1e18c <__ssprint_r+0x184>
   1e040:	00050b13          	mv	s6,a0
   1e044:	00062983          	lw	s3,0(a2)
   1e048:	0005a503          	lw	a0,0(a1)
   1e04c:	0085a483          	lw	s1,8(a1)
   1e050:	00058413          	mv	s0,a1
   1e054:	0d40006f          	j	1e128 <__ssprint_r+0x120>
   1e058:	00c45783          	lhu	a5,12(s0)
   1e05c:	4807f713          	andi	a4,a5,1152
   1e060:	08070a63          	beqz	a4,1e0f4 <__ssprint_r+0xec>
   1e064:	01442683          	lw	a3,20(s0)
   1e068:	01042583          	lw	a1,16(s0)
   1e06c:	00190713          	addi	a4,s2,1
   1e070:	00169493          	slli	s1,a3,0x1
   1e074:	00d486b3          	add	a3,s1,a3
   1e078:	01f6d493          	srli	s1,a3,0x1f
   1e07c:	40b50a33          	sub	s4,a0,a1
   1e080:	00d484b3          	add	s1,s1,a3
   1e084:	4014d493          	srai	s1,s1,0x1
   1e088:	01470733          	add	a4,a4,s4
   1e08c:	00048613          	mv	a2,s1
   1e090:	00e4f663          	bgeu	s1,a4,1e09c <__ssprint_r+0x94>
   1e094:	00070493          	mv	s1,a4
   1e098:	00070613          	mv	a2,a4
   1e09c:	4007f793          	andi	a5,a5,1024
   1e0a0:	0a078663          	beqz	a5,1e14c <__ssprint_r+0x144>
   1e0a4:	00060593          	mv	a1,a2
   1e0a8:	000b0513          	mv	a0,s6
   1e0ac:	b79f80ef          	jal	ra,16c24 <_malloc_r>
   1e0b0:	00050c13          	mv	s8,a0
   1e0b4:	0a050a63          	beqz	a0,1e168 <__ssprint_r+0x160>
   1e0b8:	01042583          	lw	a1,16(s0)
   1e0bc:	000a0613          	mv	a2,s4
   1e0c0:	c6cff0ef          	jal	ra,1d52c <memcpy>
   1e0c4:	00c45783          	lhu	a5,12(s0)
   1e0c8:	b7f7f793          	andi	a5,a5,-1153
   1e0cc:	0807e793          	ori	a5,a5,128
   1e0d0:	00f41623          	sh	a5,12(s0)
   1e0d4:	014c0533          	add	a0,s8,s4
   1e0d8:	41448a33          	sub	s4,s1,s4
   1e0dc:	00942a23          	sw	s1,20(s0)
   1e0e0:	01442423          	sw	s4,8(s0)
   1e0e4:	01842823          	sw	s8,16(s0)
   1e0e8:	00a42023          	sw	a0,0(s0)
   1e0ec:	00090493          	mv	s1,s2
   1e0f0:	00090a13          	mv	s4,s2
   1e0f4:	000a0613          	mv	a2,s4
   1e0f8:	000b8593          	mv	a1,s7
   1e0fc:	d4cff0ef          	jal	ra,1d648 <memmove>
   1e100:	00842703          	lw	a4,8(s0)
   1e104:	00042503          	lw	a0,0(s0)
   1e108:	008aa783          	lw	a5,8(s5)
   1e10c:	409704b3          	sub	s1,a4,s1
   1e110:	01450533          	add	a0,a0,s4
   1e114:	00942423          	sw	s1,8(s0)
   1e118:	00a42023          	sw	a0,0(s0)
   1e11c:	41278933          	sub	s2,a5,s2
   1e120:	012aa423          	sw	s2,8(s5)
   1e124:	06090463          	beqz	s2,1e18c <__ssprint_r+0x184>
   1e128:	0049a903          	lw	s2,4(s3)
   1e12c:	0009ab83          	lw	s7,0(s3)
   1e130:	00048a13          	mv	s4,s1
   1e134:	00898993          	addi	s3,s3,8
   1e138:	fe0908e3          	beqz	s2,1e128 <__ssprint_r+0x120>
   1e13c:	f0997ee3          	bgeu	s2,s1,1e058 <__ssprint_r+0x50>
   1e140:	00090493          	mv	s1,s2
   1e144:	00090a13          	mv	s4,s2
   1e148:	fadff06f          	j	1e0f4 <__ssprint_r+0xec>
   1e14c:	000b0513          	mv	a0,s6
   1e150:	e80ff0ef          	jal	ra,1d7d0 <_realloc_r>
   1e154:	00050c13          	mv	s8,a0
   1e158:	f6051ee3          	bnez	a0,1e0d4 <__ssprint_r+0xcc>
   1e15c:	01042583          	lw	a1,16(s0)
   1e160:	000b0513          	mv	a0,s6
   1e164:	8a5f50ef          	jal	ra,13a08 <_free_r>
   1e168:	00c00793          	li	a5,12
   1e16c:	00fb2023          	sw	a5,0(s6)
   1e170:	00c45783          	lhu	a5,12(s0)
   1e174:	fff00513          	li	a0,-1
   1e178:	0407e793          	ori	a5,a5,64
   1e17c:	00f41623          	sh	a5,12(s0)
   1e180:	000aa423          	sw	zero,8(s5)
   1e184:	000aa223          	sw	zero,4(s5)
   1e188:	00c0006f          	j	1e194 <__ssprint_r+0x18c>
   1e18c:	000aa223          	sw	zero,4(s5)
   1e190:	00000513          	li	a0,0
   1e194:	02c12083          	lw	ra,44(sp)
   1e198:	02812403          	lw	s0,40(sp)
   1e19c:	02412483          	lw	s1,36(sp)
   1e1a0:	02012903          	lw	s2,32(sp)
   1e1a4:	01c12983          	lw	s3,28(sp)
   1e1a8:	01812a03          	lw	s4,24(sp)
   1e1ac:	01412a83          	lw	s5,20(sp)
   1e1b0:	01012b03          	lw	s6,16(sp)
   1e1b4:	00c12b83          	lw	s7,12(sp)
   1e1b8:	00812c03          	lw	s8,8(sp)
   1e1bc:	03010113          	addi	sp,sp,48
   1e1c0:	00008067          	ret

0001e1c4 <_svfiprintf_r>:
   1e1c4:	00c5d783          	lhu	a5,12(a1)
   1e1c8:	ed010113          	addi	sp,sp,-304
   1e1cc:	11412c23          	sw	s4,280(sp)
   1e1d0:	11612823          	sw	s6,272(sp)
   1e1d4:	11a12023          	sw	s10,256(sp)
   1e1d8:	12112623          	sw	ra,300(sp)
   1e1dc:	12812423          	sw	s0,296(sp)
   1e1e0:	12912223          	sw	s1,292(sp)
   1e1e4:	13212023          	sw	s2,288(sp)
   1e1e8:	11312e23          	sw	s3,284(sp)
   1e1ec:	11512a23          	sw	s5,276(sp)
   1e1f0:	11712623          	sw	s7,268(sp)
   1e1f4:	11812423          	sw	s8,264(sp)
   1e1f8:	11912223          	sw	s9,260(sp)
   1e1fc:	0fb12e23          	sw	s11,252(sp)
   1e200:	0807f793          	andi	a5,a5,128
   1e204:	00d12623          	sw	a3,12(sp)
   1e208:	00058a13          	mv	s4,a1
   1e20c:	00050b13          	mv	s6,a0
   1e210:	00060d13          	mv	s10,a2
   1e214:	00078663          	beqz	a5,1e220 <_svfiprintf_r+0x5c>
   1e218:	0105a783          	lw	a5,16(a1)
   1e21c:	5e0784e3          	beqz	a5,1f004 <_svfiprintf_r+0xe40>
   1e220:	000257b7          	lui	a5,0x25
   1e224:	04c10a93          	addi	s5,sp,76
   1e228:	ff078793          	addi	a5,a5,-16 # 24ff0 <zeroes.4460+0x20>
   1e22c:	00025bb7          	lui	s7,0x25
   1e230:	000254b7          	lui	s1,0x25
   1e234:	000d0993          	mv	s3,s10
   1e238:	05512023          	sw	s5,64(sp)
   1e23c:	04012423          	sw	zero,72(sp)
   1e240:	04012223          	sw	zero,68(sp)
   1e244:	00012a23          	sw	zero,20(sp)
   1e248:	00012c23          	sw	zero,24(sp)
   1e24c:	02012023          	sw	zero,32(sp)
   1e250:	00012e23          	sw	zero,28(sp)
   1e254:	00012423          	sw	zero,8(sp)
   1e258:	00f12823          	sw	a5,16(sp)
   1e25c:	15cb8b93          	addi	s7,s7,348 # 2515c <blanks.4445>
   1e260:	16c48493          	addi	s1,s1,364 # 2516c <zeroes.4446>
   1e264:	000a8d13          	mv	s10,s5
   1e268:	0009c783          	lbu	a5,0(s3)
   1e26c:	20078c63          	beqz	a5,1e484 <_svfiprintf_r+0x2c0>
   1e270:	00098413          	mv	s0,s3
   1e274:	02500693          	li	a3,37
   1e278:	2ad78863          	beq	a5,a3,1e528 <_svfiprintf_r+0x364>
   1e27c:	00144783          	lbu	a5,1(s0)
   1e280:	00140413          	addi	s0,s0,1
   1e284:	fe079ae3          	bnez	a5,1e278 <_svfiprintf_r+0xb4>
   1e288:	41340c33          	sub	s8,s0,s3
   1e28c:	1f340c63          	beq	s0,s3,1e484 <_svfiprintf_r+0x2c0>
   1e290:	04812683          	lw	a3,72(sp)
   1e294:	04412783          	lw	a5,68(sp)
   1e298:	013d2023          	sw	s3,0(s10)
   1e29c:	018686b3          	add	a3,a3,s8
   1e2a0:	00178793          	addi	a5,a5,1
   1e2a4:	018d2223          	sw	s8,4(s10)
   1e2a8:	04d12423          	sw	a3,72(sp)
   1e2ac:	04f12223          	sw	a5,68(sp)
   1e2b0:	00700693          	li	a3,7
   1e2b4:	008d0d13          	addi	s10,s10,8
   1e2b8:	28f6c063          	blt	a3,a5,1e538 <_svfiprintf_r+0x374>
   1e2bc:	00812703          	lw	a4,8(sp)
   1e2c0:	00044783          	lbu	a5,0(s0)
   1e2c4:	01870733          	add	a4,a4,s8
   1e2c8:	00e12423          	sw	a4,8(sp)
   1e2cc:	1a078c63          	beqz	a5,1e484 <_svfiprintf_r+0x2c0>
   1e2d0:	fff00893          	li	a7,-1
   1e2d4:	00144683          	lbu	a3,1(s0)
   1e2d8:	00140993          	addi	s3,s0,1
   1e2dc:	02010da3          	sb	zero,59(sp)
   1e2e0:	00012223          	sw	zero,4(sp)
   1e2e4:	00000913          	li	s2,0
   1e2e8:	05a00c13          	li	s8,90
   1e2ec:	00900c93          	li	s9,9
   1e2f0:	02a00593          	li	a1,42
   1e2f4:	00088413          	mv	s0,a7
   1e2f8:	00198993          	addi	s3,s3,1
   1e2fc:	fe068793          	addi	a5,a3,-32
   1e300:	04fc6863          	bltu	s8,a5,1e350 <_svfiprintf_r+0x18c>
   1e304:	01012703          	lw	a4,16(sp)
   1e308:	00279793          	slli	a5,a5,0x2
   1e30c:	00e787b3          	add	a5,a5,a4
   1e310:	0007a783          	lw	a5,0(a5)
   1e314:	00078067          	jr	a5
   1e318:	00012223          	sw	zero,4(sp)
   1e31c:	fd068793          	addi	a5,a3,-48
   1e320:	00412603          	lw	a2,4(sp)
   1e324:	0009c683          	lbu	a3,0(s3)
   1e328:	00198993          	addi	s3,s3,1
   1e32c:	00261713          	slli	a4,a2,0x2
   1e330:	00c70733          	add	a4,a4,a2
   1e334:	00171713          	slli	a4,a4,0x1
   1e338:	00e787b3          	add	a5,a5,a4
   1e33c:	00f12223          	sw	a5,4(sp)
   1e340:	fd068793          	addi	a5,a3,-48
   1e344:	fcfcfee3          	bgeu	s9,a5,1e320 <_svfiprintf_r+0x15c>
   1e348:	fe068793          	addi	a5,a3,-32
   1e34c:	fafc7ce3          	bgeu	s8,a5,1e304 <_svfiprintf_r+0x140>
   1e350:	12068a63          	beqz	a3,1e484 <_svfiprintf_r+0x2c0>
   1e354:	08d10623          	sb	a3,140(sp)
   1e358:	02010da3          	sb	zero,59(sp)
   1e35c:	00100c13          	li	s8,1
   1e360:	00100c93          	li	s9,1
   1e364:	08c10413          	addi	s0,sp,140
   1e368:	00000893          	li	a7,0
   1e36c:	00297f13          	andi	t5,s2,2
   1e370:	000f0463          	beqz	t5,1e378 <_svfiprintf_r+0x1b4>
   1e374:	002c0c13          	addi	s8,s8,2
   1e378:	08497e93          	andi	t4,s2,132
   1e37c:	04812783          	lw	a5,72(sp)
   1e380:	04412603          	lw	a2,68(sp)
   1e384:	000e9863          	bnez	t4,1e394 <_svfiprintf_r+0x1d0>
   1e388:	00412703          	lw	a4,4(sp)
   1e38c:	41870db3          	sub	s11,a4,s8
   1e390:	7bb04a63          	bgtz	s11,1eb44 <_svfiprintf_r+0x980>
   1e394:	03b14503          	lbu	a0,59(sp)
   1e398:	00160593          	addi	a1,a2,1
   1e39c:	008d0693          	addi	a3,s10,8
   1e3a0:	04050063          	beqz	a0,1e3e0 <_svfiprintf_r+0x21c>
   1e3a4:	03b10513          	addi	a0,sp,59
   1e3a8:	00178793          	addi	a5,a5,1
   1e3ac:	00ad2023          	sw	a0,0(s10)
   1e3b0:	00100513          	li	a0,1
   1e3b4:	00ad2223          	sw	a0,4(s10)
   1e3b8:	04f12423          	sw	a5,72(sp)
   1e3bc:	04b12223          	sw	a1,68(sp)
   1e3c0:	00700513          	li	a0,7
   1e3c4:	0ab540e3          	blt	a0,a1,1ec64 <_svfiprintf_r+0xaa0>
   1e3c8:	00260f93          	addi	t6,a2,2
   1e3cc:	010d0513          	addi	a0,s10,16
   1e3d0:	00058613          	mv	a2,a1
   1e3d4:	00068d13          	mv	s10,a3
   1e3d8:	000f8593          	mv	a1,t6
   1e3dc:	00050693          	mv	a3,a0
   1e3e0:	020f0c63          	beqz	t5,1e418 <_svfiprintf_r+0x254>
   1e3e4:	03c10613          	addi	a2,sp,60
   1e3e8:	00278793          	addi	a5,a5,2
   1e3ec:	00cd2023          	sw	a2,0(s10)
   1e3f0:	00200613          	li	a2,2
   1e3f4:	00cd2223          	sw	a2,4(s10)
   1e3f8:	04f12423          	sw	a5,72(sp)
   1e3fc:	04b12223          	sw	a1,68(sp)
   1e400:	00700713          	li	a4,7
   1e404:	0ab742e3          	blt	a4,a1,1eca8 <_svfiprintf_r+0xae4>
   1e408:	00058613          	mv	a2,a1
   1e40c:	00068d13          	mv	s10,a3
   1e410:	00158593          	addi	a1,a1,1
   1e414:	00868693          	addi	a3,a3,8
   1e418:	08000513          	li	a0,128
   1e41c:	54ae8c63          	beq	t4,a0,1e974 <_svfiprintf_r+0x7b0>
   1e420:	41988db3          	sub	s11,a7,s9
   1e424:	63b04463          	bgtz	s11,1ea4c <_svfiprintf_r+0x888>
   1e428:	00fc87b3          	add	a5,s9,a5
   1e42c:	008d2023          	sw	s0,0(s10)
   1e430:	019d2223          	sw	s9,4(s10)
   1e434:	04f12423          	sw	a5,72(sp)
   1e438:	04b12223          	sw	a1,68(sp)
   1e43c:	00700713          	li	a4,7
   1e440:	6cb74263          	blt	a4,a1,1eb04 <_svfiprintf_r+0x940>
   1e444:	00497313          	andi	t1,s2,4
   1e448:	00030863          	beqz	t1,1e458 <_svfiprintf_r+0x294>
   1e44c:	00412703          	lw	a4,4(sp)
   1e450:	41870cb3          	sub	s9,a4,s8
   1e454:	099048e3          	bgtz	s9,1ece4 <_svfiprintf_r+0xb20>
   1e458:	00412403          	lw	s0,4(sp)
   1e45c:	01845463          	bge	s0,s8,1e464 <_svfiprintf_r+0x2a0>
   1e460:	000c0413          	mv	s0,s8
   1e464:	00812703          	lw	a4,8(sp)
   1e468:	00870733          	add	a4,a4,s0
   1e46c:	00e12423          	sw	a4,8(sp)
   1e470:	6a079a63          	bnez	a5,1eb24 <_svfiprintf_r+0x960>
   1e474:	0009c783          	lbu	a5,0(s3)
   1e478:	04012223          	sw	zero,68(sp)
   1e47c:	000a8d13          	mv	s10,s5
   1e480:	de0798e3          	bnez	a5,1e270 <_svfiprintf_r+0xac>
   1e484:	04812783          	lw	a5,72(sp)
   1e488:	56079ee3          	bnez	a5,1f204 <_svfiprintf_r+0x1040>
   1e48c:	00ca5783          	lhu	a5,12(s4)
   1e490:	0407f793          	andi	a5,a5,64
   1e494:	5a0794e3          	bnez	a5,1f23c <_svfiprintf_r+0x1078>
   1e498:	12c12083          	lw	ra,300(sp)
   1e49c:	12812403          	lw	s0,296(sp)
   1e4a0:	00812503          	lw	a0,8(sp)
   1e4a4:	12412483          	lw	s1,292(sp)
   1e4a8:	12012903          	lw	s2,288(sp)
   1e4ac:	11c12983          	lw	s3,284(sp)
   1e4b0:	11812a03          	lw	s4,280(sp)
   1e4b4:	11412a83          	lw	s5,276(sp)
   1e4b8:	11012b03          	lw	s6,272(sp)
   1e4bc:	10c12b83          	lw	s7,268(sp)
   1e4c0:	10812c03          	lw	s8,264(sp)
   1e4c4:	10412c83          	lw	s9,260(sp)
   1e4c8:	10012d03          	lw	s10,256(sp)
   1e4cc:	0fc12d83          	lw	s11,252(sp)
   1e4d0:	13010113          	addi	sp,sp,304
   1e4d4:	00008067          	ret
   1e4d8:	000b0513          	mv	a0,s6
   1e4dc:	d48f80ef          	jal	ra,16a24 <_localeconv_r>
   1e4e0:	00452783          	lw	a5,4(a0)
   1e4e4:	00078513          	mv	a0,a5
   1e4e8:	00f12e23          	sw	a5,28(sp)
   1e4ec:	cb8fa0ef          	jal	ra,189a4 <strlen>
   1e4f0:	00050793          	mv	a5,a0
   1e4f4:	000b0513          	mv	a0,s6
   1e4f8:	00078d93          	mv	s11,a5
   1e4fc:	02f12023          	sw	a5,32(sp)
   1e500:	d24f80ef          	jal	ra,16a24 <_localeconv_r>
   1e504:	00852783          	lw	a5,8(a0)
   1e508:	02a00593          	li	a1,42
   1e50c:	00f12c23          	sw	a5,24(sp)
   1e510:	1e0d98e3          	bnez	s11,1ef00 <_svfiprintf_r+0xd3c>
   1e514:	0009c683          	lbu	a3,0(s3)
   1e518:	de1ff06f          	j	1e2f8 <_svfiprintf_r+0x134>
   1e51c:	0009c683          	lbu	a3,0(s3)
   1e520:	02096913          	ori	s2,s2,32
   1e524:	dd5ff06f          	j	1e2f8 <_svfiprintf_r+0x134>
   1e528:	41340c33          	sub	s8,s0,s3
   1e52c:	d73412e3          	bne	s0,s3,1e290 <_svfiprintf_r+0xcc>
   1e530:	00044783          	lbu	a5,0(s0)
   1e534:	d99ff06f          	j	1e2cc <_svfiprintf_r+0x108>
   1e538:	04010613          	addi	a2,sp,64
   1e53c:	000a0593          	mv	a1,s4
   1e540:	000b0513          	mv	a0,s6
   1e544:	ac5ff0ef          	jal	ra,1e008 <__ssprint_r>
   1e548:	f40512e3          	bnez	a0,1e48c <_svfiprintf_r+0x2c8>
   1e54c:	000a8d13          	mv	s10,s5
   1e550:	d6dff06f          	j	1e2bc <_svfiprintf_r+0xf8>
   1e554:	00c12783          	lw	a5,12(sp)
   1e558:	00040893          	mv	a7,s0
   1e55c:	02010da3          	sb	zero,59(sp)
   1e560:	0007a403          	lw	s0,0(a5)
   1e564:	00478d93          	addi	s11,a5,4
   1e568:	380404e3          	beqz	s0,1f0f0 <_svfiprintf_r+0xf2c>
   1e56c:	fff00793          	li	a5,-1
   1e570:	26f88ee3          	beq	a7,a5,1efec <_svfiprintf_r+0xe28>
   1e574:	00088613          	mv	a2,a7
   1e578:	00000593          	li	a1,0
   1e57c:	00040513          	mv	a0,s0
   1e580:	01112623          	sw	a7,12(sp)
   1e584:	e39f80ef          	jal	ra,173bc <memchr>
   1e588:	00c12883          	lw	a7,12(sp)
   1e58c:	480506e3          	beqz	a0,1f218 <_svfiprintf_r+0x1054>
   1e590:	40850cb3          	sub	s9,a0,s0
   1e594:	01b12623          	sw	s11,12(sp)
   1e598:	00000893          	li	a7,0
   1e59c:	0940006f          	j	1e630 <_svfiprintf_r+0x46c>
   1e5a0:	00c12703          	lw	a4,12(sp)
   1e5a4:	02010da3          	sb	zero,59(sp)
   1e5a8:	00100c13          	li	s8,1
   1e5ac:	00072783          	lw	a5,0(a4)
   1e5b0:	00470713          	addi	a4,a4,4
   1e5b4:	00e12623          	sw	a4,12(sp)
   1e5b8:	08f10623          	sb	a5,140(sp)
   1e5bc:	00100c93          	li	s9,1
   1e5c0:	08c10413          	addi	s0,sp,140
   1e5c4:	da5ff06f          	j	1e368 <_svfiprintf_r+0x1a4>
   1e5c8:	02097793          	andi	a5,s2,32
   1e5cc:	00040893          	mv	a7,s0
   1e5d0:	0e078e63          	beqz	a5,1e6cc <_svfiprintf_r+0x508>
   1e5d4:	00c12783          	lw	a5,12(sp)
   1e5d8:	00778793          	addi	a5,a5,7
   1e5dc:	ff87f793          	andi	a5,a5,-8
   1e5e0:	0047a683          	lw	a3,4(a5)
   1e5e4:	0007ac83          	lw	s9,0(a5)
   1e5e8:	00878793          	addi	a5,a5,8
   1e5ec:	00f12623          	sw	a5,12(sp)
   1e5f0:	00068c13          	mv	s8,a3
   1e5f4:	1006c463          	bltz	a3,1e6fc <_svfiprintf_r+0x538>
   1e5f8:	fff00693          	li	a3,-1
   1e5fc:	00090d93          	mv	s11,s2
   1e600:	00d88863          	beq	a7,a3,1e610 <_svfiprintf_r+0x44c>
   1e604:	018ce6b3          	or	a3,s9,s8
   1e608:	f7f97d93          	andi	s11,s2,-129
   1e60c:	76068e63          	beqz	a3,1ed88 <_svfiprintf_r+0xbc4>
   1e610:	000c1ce3          	bnez	s8,1ee28 <_svfiprintf_r+0xc64>
   1e614:	00900693          	li	a3,9
   1e618:	0196e8e3          	bltu	a3,s9,1ee28 <_svfiprintf_r+0xc64>
   1e61c:	030c8793          	addi	a5,s9,48
   1e620:	0ef107a3          	sb	a5,239(sp)
   1e624:	000d8913          	mv	s2,s11
   1e628:	00100c93          	li	s9,1
   1e62c:	0ef10413          	addi	s0,sp,239
   1e630:	00088c13          	mv	s8,a7
   1e634:	0198d463          	bge	a7,s9,1e63c <_svfiprintf_r+0x478>
   1e638:	000c8c13          	mv	s8,s9
   1e63c:	03b14783          	lbu	a5,59(sp)
   1e640:	00f037b3          	snez	a5,a5
   1e644:	00fc0c33          	add	s8,s8,a5
   1e648:	d25ff06f          	j	1e36c <_svfiprintf_r+0x1a8>
   1e64c:	00040893          	mv	a7,s0
   1e650:	01096913          	ori	s2,s2,16
   1e654:	02097793          	andi	a5,s2,32
   1e658:	74078463          	beqz	a5,1eda0 <_svfiprintf_r+0xbdc>
   1e65c:	00c12783          	lw	a5,12(sp)
   1e660:	00778793          	addi	a5,a5,7
   1e664:	ff87f793          	andi	a5,a5,-8
   1e668:	0007ac83          	lw	s9,0(a5)
   1e66c:	0047ac03          	lw	s8,4(a5)
   1e670:	00878793          	addi	a5,a5,8
   1e674:	00f12623          	sw	a5,12(sp)
   1e678:	bff97d93          	andi	s11,s2,-1025
   1e67c:	00000693          	li	a3,0
   1e680:	02010da3          	sb	zero,59(sp)
   1e684:	fff00613          	li	a2,-1
   1e688:	08c88e63          	beq	a7,a2,1e724 <_svfiprintf_r+0x560>
   1e68c:	018ce633          	or	a2,s9,s8
   1e690:	f7fdf913          	andi	s2,s11,-129
   1e694:	4a061463          	bnez	a2,1eb3c <_svfiprintf_r+0x978>
   1e698:	28089263          	bnez	a7,1e91c <_svfiprintf_r+0x758>
   1e69c:	6e069a63          	bnez	a3,1ed90 <_svfiprintf_r+0xbcc>
   1e6a0:	001dfc93          	andi	s9,s11,1
   1e6a4:	0f010413          	addi	s0,sp,240
   1e6a8:	f80c84e3          	beqz	s9,1e630 <_svfiprintf_r+0x46c>
   1e6ac:	03000793          	li	a5,48
   1e6b0:	0ef107a3          	sb	a5,239(sp)
   1e6b4:	0ef10413          	addi	s0,sp,239
   1e6b8:	f79ff06f          	j	1e630 <_svfiprintf_r+0x46c>
   1e6bc:	01096913          	ori	s2,s2,16
   1e6c0:	02097793          	andi	a5,s2,32
   1e6c4:	00040893          	mv	a7,s0
   1e6c8:	f00796e3          	bnez	a5,1e5d4 <_svfiprintf_r+0x410>
   1e6cc:	00c12703          	lw	a4,12(sp)
   1e6d0:	01097793          	andi	a5,s2,16
   1e6d4:	00470693          	addi	a3,a4,4
   1e6d8:	040792e3          	bnez	a5,1ef1c <_svfiprintf_r+0xd58>
   1e6dc:	04097793          	andi	a5,s2,64
   1e6e0:	260786e3          	beqz	a5,1f14c <_svfiprintf_r+0xf88>
   1e6e4:	00c12783          	lw	a5,12(sp)
   1e6e8:	00d12623          	sw	a3,12(sp)
   1e6ec:	00079c83          	lh	s9,0(a5)
   1e6f0:	41fcdc13          	srai	s8,s9,0x1f
   1e6f4:	000c0693          	mv	a3,s8
   1e6f8:	f006d0e3          	bgez	a3,1e5f8 <_svfiprintf_r+0x434>
   1e6fc:	019036b3          	snez	a3,s9
   1e700:	41800eb3          	neg	t4,s8
   1e704:	40de8c33          	sub	s8,t4,a3
   1e708:	02d00693          	li	a3,45
   1e70c:	02d10da3          	sb	a3,59(sp)
   1e710:	fff00613          	li	a2,-1
   1e714:	41900cb3          	neg	s9,s9
   1e718:	00090d93          	mv	s11,s2
   1e71c:	00100693          	li	a3,1
   1e720:	f6c896e3          	bne	a7,a2,1e68c <_svfiprintf_r+0x4c8>
   1e724:	00100613          	li	a2,1
   1e728:	eec684e3          	beq	a3,a2,1e610 <_svfiprintf_r+0x44c>
   1e72c:	00200613          	li	a2,2
   1e730:	20c68063          	beq	a3,a2,1e930 <_svfiprintf_r+0x76c>
   1e734:	0f010413          	addi	s0,sp,240
   1e738:	01dc1793          	slli	a5,s8,0x1d
   1e73c:	007cf693          	andi	a3,s9,7
   1e740:	003cdc93          	srli	s9,s9,0x3
   1e744:	03068693          	addi	a3,a3,48
   1e748:	0197ecb3          	or	s9,a5,s9
   1e74c:	003c5c13          	srli	s8,s8,0x3
   1e750:	fed40fa3          	sb	a3,-1(s0)
   1e754:	018ce7b3          	or	a5,s9,s8
   1e758:	00040593          	mv	a1,s0
   1e75c:	fff40413          	addi	s0,s0,-1
   1e760:	fc079ce3          	bnez	a5,1e738 <_svfiprintf_r+0x574>
   1e764:	001df793          	andi	a5,s11,1
   1e768:	1e078e63          	beqz	a5,1e964 <_svfiprintf_r+0x7a0>
   1e76c:	03000793          	li	a5,48
   1e770:	1ef68a63          	beq	a3,a5,1e964 <_svfiprintf_r+0x7a0>
   1e774:	ffe58593          	addi	a1,a1,-2
   1e778:	fef40fa3          	sb	a5,-1(s0)
   1e77c:	0f010793          	addi	a5,sp,240
   1e780:	40b78cb3          	sub	s9,a5,a1
   1e784:	000d8913          	mv	s2,s11
   1e788:	00058413          	mv	s0,a1
   1e78c:	ea5ff06f          	j	1e630 <_svfiprintf_r+0x46c>
   1e790:	00040893          	mv	a7,s0
   1e794:	01096d93          	ori	s11,s2,16
   1e798:	020df793          	andi	a5,s11,32
   1e79c:	62078863          	beqz	a5,1edcc <_svfiprintf_r+0xc08>
   1e7a0:	00c12783          	lw	a5,12(sp)
   1e7a4:	00100693          	li	a3,1
   1e7a8:	00778913          	addi	s2,a5,7
   1e7ac:	ff897913          	andi	s2,s2,-8
   1e7b0:	00890793          	addi	a5,s2,8
   1e7b4:	00092c83          	lw	s9,0(s2)
   1e7b8:	00492c03          	lw	s8,4(s2)
   1e7bc:	00f12623          	sw	a5,12(sp)
   1e7c0:	ec1ff06f          	j	1e680 <_svfiprintf_r+0x4bc>
   1e7c4:	00c12783          	lw	a5,12(sp)
   1e7c8:	ffff86b7          	lui	a3,0xffff8
   1e7cc:	8306c693          	xori	a3,a3,-2000
   1e7d0:	0007ac83          	lw	s9,0(a5)
   1e7d4:	00478793          	addi	a5,a5,4
   1e7d8:	00f12623          	sw	a5,12(sp)
   1e7dc:	000247b7          	lui	a5,0x24
   1e7e0:	76478793          	addi	a5,a5,1892 # 24764 <__clzsi2+0x68>
   1e7e4:	02d11e23          	sh	a3,60(sp)
   1e7e8:	00040893          	mv	a7,s0
   1e7ec:	00000c13          	li	s8,0
   1e7f0:	00296d93          	ori	s11,s2,2
   1e7f4:	00f12a23          	sw	a5,20(sp)
   1e7f8:	00200693          	li	a3,2
   1e7fc:	e85ff06f          	j	1e680 <_svfiprintf_r+0x4bc>
   1e800:	0009c683          	lbu	a3,0(s3)
   1e804:	08096913          	ori	s2,s2,128
   1e808:	af1ff06f          	j	1e2f8 <_svfiprintf_r+0x134>
   1e80c:	0009c683          	lbu	a3,0(s3)
   1e810:	00198713          	addi	a4,s3,1
   1e814:	22b68ae3          	beq	a3,a1,1f248 <_svfiprintf_r+0x1084>
   1e818:	fd068793          	addi	a5,a3,-48 # ffff7fd0 <__BSS_END__+0xfffd10a4>
   1e81c:	00070993          	mv	s3,a4
   1e820:	00000413          	li	s0,0
   1e824:	acfcece3          	bltu	s9,a5,1e2fc <_svfiprintf_r+0x138>
   1e828:	0009c683          	lbu	a3,0(s3)
   1e82c:	00241713          	slli	a4,s0,0x2
   1e830:	008708b3          	add	a7,a4,s0
   1e834:	00189893          	slli	a7,a7,0x1
   1e838:	00f88433          	add	s0,a7,a5
   1e83c:	fd068793          	addi	a5,a3,-48
   1e840:	00198993          	addi	s3,s3,1
   1e844:	fefcf2e3          	bgeu	s9,a5,1e828 <_svfiprintf_r+0x664>
   1e848:	ab5ff06f          	j	1e2fc <_svfiprintf_r+0x138>
   1e84c:	0009c683          	lbu	a3,0(s3)
   1e850:	00496913          	ori	s2,s2,4
   1e854:	aa5ff06f          	j	1e2f8 <_svfiprintf_r+0x134>
   1e858:	02b00793          	li	a5,43
   1e85c:	0009c683          	lbu	a3,0(s3)
   1e860:	02f10da3          	sb	a5,59(sp)
   1e864:	a95ff06f          	j	1e2f8 <_svfiprintf_r+0x134>
   1e868:	00c12703          	lw	a4,12(sp)
   1e86c:	0009c683          	lbu	a3,0(s3)
   1e870:	00072783          	lw	a5,0(a4)
   1e874:	00470713          	addi	a4,a4,4
   1e878:	00e12623          	sw	a4,12(sp)
   1e87c:	00f12223          	sw	a5,4(sp)
   1e880:	a607dce3          	bgez	a5,1e2f8 <_svfiprintf_r+0x134>
   1e884:	40f007b3          	neg	a5,a5
   1e888:	00f12223          	sw	a5,4(sp)
   1e88c:	00496913          	ori	s2,s2,4
   1e890:	a69ff06f          	j	1e2f8 <_svfiprintf_r+0x134>
   1e894:	0009c683          	lbu	a3,0(s3)
   1e898:	00196913          	ori	s2,s2,1
   1e89c:	a5dff06f          	j	1e2f8 <_svfiprintf_r+0x134>
   1e8a0:	03b14783          	lbu	a5,59(sp)
   1e8a4:	0009c683          	lbu	a3,0(s3)
   1e8a8:	a40798e3          	bnez	a5,1e2f8 <_svfiprintf_r+0x134>
   1e8ac:	02000793          	li	a5,32
   1e8b0:	02f10da3          	sb	a5,59(sp)
   1e8b4:	a45ff06f          	j	1e2f8 <_svfiprintf_r+0x134>
   1e8b8:	0009c683          	lbu	a3,0(s3)
   1e8bc:	06800793          	li	a5,104
   1e8c0:	7ef68e63          	beq	a3,a5,1f0bc <_svfiprintf_r+0xef8>
   1e8c4:	04096913          	ori	s2,s2,64
   1e8c8:	a31ff06f          	j	1e2f8 <_svfiprintf_r+0x134>
   1e8cc:	00c12703          	lw	a4,12(sp)
   1e8d0:	02097793          	andi	a5,s2,32
   1e8d4:	00072683          	lw	a3,0(a4)
   1e8d8:	00470713          	addi	a4,a4,4
   1e8dc:	00e12623          	sw	a4,12(sp)
   1e8e0:	5e079c63          	bnez	a5,1eed8 <_svfiprintf_r+0xd14>
   1e8e4:	01097793          	andi	a5,s2,16
   1e8e8:	7e079e63          	bnez	a5,1f0e4 <_svfiprintf_r+0xf20>
   1e8ec:	04097793          	andi	a5,s2,64
   1e8f0:	100794e3          	bnez	a5,1f1f8 <_svfiprintf_r+0x1034>
   1e8f4:	20097313          	andi	t1,s2,512
   1e8f8:	7e030663          	beqz	t1,1f0e4 <_svfiprintf_r+0xf20>
   1e8fc:	00812783          	lw	a5,8(sp)
   1e900:	00f68023          	sb	a5,0(a3)
   1e904:	965ff06f          	j	1e268 <_svfiprintf_r+0xa4>
   1e908:	0009c683          	lbu	a3,0(s3)
   1e90c:	06c00793          	li	a5,108
   1e910:	7af68e63          	beq	a3,a5,1f0cc <_svfiprintf_r+0xf08>
   1e914:	01096913          	ori	s2,s2,16
   1e918:	9e1ff06f          	j	1e2f8 <_svfiprintf_r+0x134>
   1e91c:	00100613          	li	a2,1
   1e920:	10c684e3          	beq	a3,a2,1f228 <_svfiprintf_r+0x1064>
   1e924:	00200613          	li	a2,2
   1e928:	00090d93          	mv	s11,s2
   1e92c:	e0c694e3          	bne	a3,a2,1e734 <_svfiprintf_r+0x570>
   1e930:	01412683          	lw	a3,20(sp)
   1e934:	0f010413          	addi	s0,sp,240
   1e938:	00fcf793          	andi	a5,s9,15
   1e93c:	00f687b3          	add	a5,a3,a5
   1e940:	0007c703          	lbu	a4,0(a5)
   1e944:	004cdc93          	srli	s9,s9,0x4
   1e948:	01cc1793          	slli	a5,s8,0x1c
   1e94c:	0197ecb3          	or	s9,a5,s9
   1e950:	004c5c13          	srli	s8,s8,0x4
   1e954:	fee40fa3          	sb	a4,-1(s0)
   1e958:	018ce7b3          	or	a5,s9,s8
   1e95c:	fff40413          	addi	s0,s0,-1
   1e960:	fc079ce3          	bnez	a5,1e938 <_svfiprintf_r+0x774>
   1e964:	0f010793          	addi	a5,sp,240
   1e968:	40878cb3          	sub	s9,a5,s0
   1e96c:	000d8913          	mv	s2,s11
   1e970:	cc1ff06f          	j	1e630 <_svfiprintf_r+0x46c>
   1e974:	00412703          	lw	a4,4(sp)
   1e978:	41870db3          	sub	s11,a4,s8
   1e97c:	abb052e3          	blez	s11,1e420 <_svfiprintf_r+0x25c>
   1e980:	01000513          	li	a0,16
   1e984:	0bb556e3          	bge	a0,s11,1f230 <_svfiprintf_r+0x106c>
   1e988:	02812223          	sw	s0,36(sp)
   1e98c:	01000693          	li	a3,16
   1e990:	000a0413          	mv	s0,s4
   1e994:	00700e93          	li	t4,7
   1e998:	000d8a13          	mv	s4,s11
   1e99c:	00098d93          	mv	s11,s3
   1e9a0:	00088993          	mv	s3,a7
   1e9a4:	00c0006f          	j	1e9b0 <_svfiprintf_r+0x7ec>
   1e9a8:	ff0a0a13          	addi	s4,s4,-16
   1e9ac:	0546da63          	bge	a3,s4,1ea00 <_svfiprintf_r+0x83c>
   1e9b0:	01078793          	addi	a5,a5,16
   1e9b4:	00160613          	addi	a2,a2,1
   1e9b8:	009d2023          	sw	s1,0(s10)
   1e9bc:	00dd2223          	sw	a3,4(s10)
   1e9c0:	04f12423          	sw	a5,72(sp)
   1e9c4:	04c12223          	sw	a2,68(sp)
   1e9c8:	008d0d13          	addi	s10,s10,8
   1e9cc:	fccedee3          	bge	t4,a2,1e9a8 <_svfiprintf_r+0x7e4>
   1e9d0:	04010613          	addi	a2,sp,64
   1e9d4:	00040593          	mv	a1,s0
   1e9d8:	000b0513          	mv	a0,s6
   1e9dc:	e2cff0ef          	jal	ra,1e008 <__ssprint_r>
   1e9e0:	6e051e63          	bnez	a0,1f0dc <_svfiprintf_r+0xf18>
   1e9e4:	01000693          	li	a3,16
   1e9e8:	ff0a0a13          	addi	s4,s4,-16
   1e9ec:	04812783          	lw	a5,72(sp)
   1e9f0:	04412603          	lw	a2,68(sp)
   1e9f4:	000a8d13          	mv	s10,s5
   1e9f8:	00700e93          	li	t4,7
   1e9fc:	fb46cae3          	blt	a3,s4,1e9b0 <_svfiprintf_r+0x7ec>
   1ea00:	00098893          	mv	a7,s3
   1ea04:	000d8993          	mv	s3,s11
   1ea08:	000a0d93          	mv	s11,s4
   1ea0c:	00040a13          	mv	s4,s0
   1ea10:	02412403          	lw	s0,36(sp)
   1ea14:	00160613          	addi	a2,a2,1
   1ea18:	008d0513          	addi	a0,s10,8
   1ea1c:	01b787b3          	add	a5,a5,s11
   1ea20:	009d2023          	sw	s1,0(s10)
   1ea24:	01bd2223          	sw	s11,4(s10)
   1ea28:	04f12423          	sw	a5,72(sp)
   1ea2c:	04c12223          	sw	a2,68(sp)
   1ea30:	00700713          	li	a4,7
   1ea34:	64c74a63          	blt	a4,a2,1f088 <_svfiprintf_r+0xec4>
   1ea38:	41988db3          	sub	s11,a7,s9
   1ea3c:	00160593          	addi	a1,a2,1
   1ea40:	00850693          	addi	a3,a0,8
   1ea44:	00050d13          	mv	s10,a0
   1ea48:	9fb050e3          	blez	s11,1e428 <_svfiprintf_r+0x264>
   1ea4c:	01000513          	li	a0,16
   1ea50:	73b55e63          	bge	a0,s11,1f18c <_svfiprintf_r+0xfc8>
   1ea54:	01000693          	li	a3,16
   1ea58:	00700893          	li	a7,7
   1ea5c:	00c0006f          	j	1ea68 <_svfiprintf_r+0x8a4>
   1ea60:	ff0d8d93          	addi	s11,s11,-16
   1ea64:	05b6da63          	bge	a3,s11,1eab8 <_svfiprintf_r+0x8f4>
   1ea68:	01078793          	addi	a5,a5,16
   1ea6c:	00160613          	addi	a2,a2,1
   1ea70:	009d2023          	sw	s1,0(s10)
   1ea74:	00dd2223          	sw	a3,4(s10)
   1ea78:	04f12423          	sw	a5,72(sp)
   1ea7c:	04c12223          	sw	a2,68(sp)
   1ea80:	008d0d13          	addi	s10,s10,8
   1ea84:	fcc8dee3          	bge	a7,a2,1ea60 <_svfiprintf_r+0x89c>
   1ea88:	04010613          	addi	a2,sp,64
   1ea8c:	000a0593          	mv	a1,s4
   1ea90:	000b0513          	mv	a0,s6
   1ea94:	d74ff0ef          	jal	ra,1e008 <__ssprint_r>
   1ea98:	9e051ae3          	bnez	a0,1e48c <_svfiprintf_r+0x2c8>
   1ea9c:	01000693          	li	a3,16
   1eaa0:	ff0d8d93          	addi	s11,s11,-16
   1eaa4:	04812783          	lw	a5,72(sp)
   1eaa8:	04412603          	lw	a2,68(sp)
   1eaac:	000a8d13          	mv	s10,s5
   1eab0:	00700893          	li	a7,7
   1eab4:	fbb6cae3          	blt	a3,s11,1ea68 <_svfiprintf_r+0x8a4>
   1eab8:	00160593          	addi	a1,a2,1
   1eabc:	008d0613          	addi	a2,s10,8
   1eac0:	01b787b3          	add	a5,a5,s11
   1eac4:	009d2023          	sw	s1,0(s10)
   1eac8:	01bd2223          	sw	s11,4(s10)
   1eacc:	04f12423          	sw	a5,72(sp)
   1ead0:	04b12223          	sw	a1,68(sp)
   1ead4:	00700713          	li	a4,7
   1ead8:	32b74263          	blt	a4,a1,1edfc <_svfiprintf_r+0xc38>
   1eadc:	00060d13          	mv	s10,a2
   1eae0:	00158593          	addi	a1,a1,1
   1eae4:	00fc87b3          	add	a5,s9,a5
   1eae8:	008d2023          	sw	s0,0(s10)
   1eaec:	019d2223          	sw	s9,4(s10)
   1eaf0:	04f12423          	sw	a5,72(sp)
   1eaf4:	04b12223          	sw	a1,68(sp)
   1eaf8:	00700713          	li	a4,7
   1eafc:	00860693          	addi	a3,a2,8
   1eb00:	94b752e3          	bge	a4,a1,1e444 <_svfiprintf_r+0x280>
   1eb04:	04010613          	addi	a2,sp,64
   1eb08:	000a0593          	mv	a1,s4
   1eb0c:	000b0513          	mv	a0,s6
   1eb10:	cf8ff0ef          	jal	ra,1e008 <__ssprint_r>
   1eb14:	96051ce3          	bnez	a0,1e48c <_svfiprintf_r+0x2c8>
   1eb18:	04812783          	lw	a5,72(sp)
   1eb1c:	000a8693          	mv	a3,s5
   1eb20:	925ff06f          	j	1e444 <_svfiprintf_r+0x280>
   1eb24:	04010613          	addi	a2,sp,64
   1eb28:	000a0593          	mv	a1,s4
   1eb2c:	000b0513          	mv	a0,s6
   1eb30:	cd8ff0ef          	jal	ra,1e008 <__ssprint_r>
   1eb34:	940500e3          	beqz	a0,1e474 <_svfiprintf_r+0x2b0>
   1eb38:	955ff06f          	j	1e48c <_svfiprintf_r+0x2c8>
   1eb3c:	00090d93          	mv	s11,s2
   1eb40:	be5ff06f          	j	1e724 <_svfiprintf_r+0x560>
   1eb44:	01000693          	li	a3,16
   1eb48:	0bb6de63          	bge	a3,s11,1ec04 <_svfiprintf_r+0xa40>
   1eb4c:	000d0713          	mv	a4,s10
   1eb50:	00700f93          	li	t6,7
   1eb54:	000c0d13          	mv	s10,s8
   1eb58:	03e12223          	sw	t5,36(sp)
   1eb5c:	00090c13          	mv	s8,s2
   1eb60:	03d12423          	sw	t4,40(sp)
   1eb64:	000a0913          	mv	s2,s4
   1eb68:	00098a13          	mv	s4,s3
   1eb6c:	00040993          	mv	s3,s0
   1eb70:	000d8413          	mv	s0,s11
   1eb74:	000c8d93          	mv	s11,s9
   1eb78:	00088c93          	mv	s9,a7
   1eb7c:	00c0006f          	j	1eb88 <_svfiprintf_r+0x9c4>
   1eb80:	ff040413          	addi	s0,s0,-16
   1eb84:	0486da63          	bge	a3,s0,1ebd8 <_svfiprintf_r+0xa14>
   1eb88:	01078793          	addi	a5,a5,16
   1eb8c:	00160613          	addi	a2,a2,1
   1eb90:	01772023          	sw	s7,0(a4)
   1eb94:	00d72223          	sw	a3,4(a4)
   1eb98:	04f12423          	sw	a5,72(sp)
   1eb9c:	04c12223          	sw	a2,68(sp)
   1eba0:	00870713          	addi	a4,a4,8
   1eba4:	fccfdee3          	bge	t6,a2,1eb80 <_svfiprintf_r+0x9bc>
   1eba8:	04010613          	addi	a2,sp,64
   1ebac:	00090593          	mv	a1,s2
   1ebb0:	000b0513          	mv	a0,s6
   1ebb4:	c54ff0ef          	jal	ra,1e008 <__ssprint_r>
   1ebb8:	4a051663          	bnez	a0,1f064 <_svfiprintf_r+0xea0>
   1ebbc:	01000693          	li	a3,16
   1ebc0:	ff040413          	addi	s0,s0,-16
   1ebc4:	04812783          	lw	a5,72(sp)
   1ebc8:	04412603          	lw	a2,68(sp)
   1ebcc:	000a8713          	mv	a4,s5
   1ebd0:	00700f93          	li	t6,7
   1ebd4:	fa86cae3          	blt	a3,s0,1eb88 <_svfiprintf_r+0x9c4>
   1ebd8:	02412f03          	lw	t5,36(sp)
   1ebdc:	02812e83          	lw	t4,40(sp)
   1ebe0:	000c8893          	mv	a7,s9
   1ebe4:	000d8c93          	mv	s9,s11
   1ebe8:	00040d93          	mv	s11,s0
   1ebec:	00098413          	mv	s0,s3
   1ebf0:	000a0993          	mv	s3,s4
   1ebf4:	00090a13          	mv	s4,s2
   1ebf8:	000c0913          	mv	s2,s8
   1ebfc:	000d0c13          	mv	s8,s10
   1ec00:	00070d13          	mv	s10,a4
   1ec04:	01b787b3          	add	a5,a5,s11
   1ec08:	00160613          	addi	a2,a2,1
   1ec0c:	017d2023          	sw	s7,0(s10)
   1ec10:	01bd2223          	sw	s11,4(s10)
   1ec14:	04f12423          	sw	a5,72(sp)
   1ec18:	04c12223          	sw	a2,68(sp)
   1ec1c:	00700693          	li	a3,7
   1ec20:	008d0d13          	addi	s10,s10,8
   1ec24:	f6c6d863          	bge	a3,a2,1e394 <_svfiprintf_r+0x1d0>
   1ec28:	04010613          	addi	a2,sp,64
   1ec2c:	000a0593          	mv	a1,s4
   1ec30:	000b0513          	mv	a0,s6
   1ec34:	03112623          	sw	a7,44(sp)
   1ec38:	03d12423          	sw	t4,40(sp)
   1ec3c:	03e12223          	sw	t5,36(sp)
   1ec40:	bc8ff0ef          	jal	ra,1e008 <__ssprint_r>
   1ec44:	840514e3          	bnez	a0,1e48c <_svfiprintf_r+0x2c8>
   1ec48:	04812783          	lw	a5,72(sp)
   1ec4c:	04412603          	lw	a2,68(sp)
   1ec50:	02c12883          	lw	a7,44(sp)
   1ec54:	02812e83          	lw	t4,40(sp)
   1ec58:	02412f03          	lw	t5,36(sp)
   1ec5c:	000a8d13          	mv	s10,s5
   1ec60:	f34ff06f          	j	1e394 <_svfiprintf_r+0x1d0>
   1ec64:	04010613          	addi	a2,sp,64
   1ec68:	000a0593          	mv	a1,s4
   1ec6c:	000b0513          	mv	a0,s6
   1ec70:	03112623          	sw	a7,44(sp)
   1ec74:	03d12423          	sw	t4,40(sp)
   1ec78:	03e12223          	sw	t5,36(sp)
   1ec7c:	b8cff0ef          	jal	ra,1e008 <__ssprint_r>
   1ec80:	800516e3          	bnez	a0,1e48c <_svfiprintf_r+0x2c8>
   1ec84:	04412603          	lw	a2,68(sp)
   1ec88:	04812783          	lw	a5,72(sp)
   1ec8c:	02c12883          	lw	a7,44(sp)
   1ec90:	02812e83          	lw	t4,40(sp)
   1ec94:	02412f03          	lw	t5,36(sp)
   1ec98:	05410693          	addi	a3,sp,84
   1ec9c:	00160593          	addi	a1,a2,1
   1eca0:	000a8d13          	mv	s10,s5
   1eca4:	f3cff06f          	j	1e3e0 <_svfiprintf_r+0x21c>
   1eca8:	04010613          	addi	a2,sp,64
   1ecac:	000a0593          	mv	a1,s4
   1ecb0:	000b0513          	mv	a0,s6
   1ecb4:	03112423          	sw	a7,40(sp)
   1ecb8:	03d12223          	sw	t4,36(sp)
   1ecbc:	b4cff0ef          	jal	ra,1e008 <__ssprint_r>
   1ecc0:	fc051663          	bnez	a0,1e48c <_svfiprintf_r+0x2c8>
   1ecc4:	04412603          	lw	a2,68(sp)
   1ecc8:	04812783          	lw	a5,72(sp)
   1eccc:	02812883          	lw	a7,40(sp)
   1ecd0:	02412e83          	lw	t4,36(sp)
   1ecd4:	05410693          	addi	a3,sp,84
   1ecd8:	00160593          	addi	a1,a2,1
   1ecdc:	000a8d13          	mv	s10,s5
   1ece0:	f38ff06f          	j	1e418 <_svfiprintf_r+0x254>
   1ece4:	01000613          	li	a2,16
   1ece8:	04412703          	lw	a4,68(sp)
   1ecec:	07965063          	bge	a2,s9,1ed4c <_svfiprintf_r+0xb88>
   1ecf0:	01000d93          	li	s11,16
   1ecf4:	00700413          	li	s0,7
   1ecf8:	00c0006f          	j	1ed04 <_svfiprintf_r+0xb40>
   1ecfc:	ff0c8c93          	addi	s9,s9,-16
   1ed00:	059dd663          	bge	s11,s9,1ed4c <_svfiprintf_r+0xb88>
   1ed04:	01078793          	addi	a5,a5,16
   1ed08:	00170713          	addi	a4,a4,1
   1ed0c:	0176a023          	sw	s7,0(a3)
   1ed10:	01b6a223          	sw	s11,4(a3)
   1ed14:	04f12423          	sw	a5,72(sp)
   1ed18:	04e12223          	sw	a4,68(sp)
   1ed1c:	00868693          	addi	a3,a3,8
   1ed20:	fce45ee3          	bge	s0,a4,1ecfc <_svfiprintf_r+0xb38>
   1ed24:	04010613          	addi	a2,sp,64
   1ed28:	000a0593          	mv	a1,s4
   1ed2c:	000b0513          	mv	a0,s6
   1ed30:	ad8ff0ef          	jal	ra,1e008 <__ssprint_r>
   1ed34:	f4051c63          	bnez	a0,1e48c <_svfiprintf_r+0x2c8>
   1ed38:	ff0c8c93          	addi	s9,s9,-16
   1ed3c:	04812783          	lw	a5,72(sp)
   1ed40:	04412703          	lw	a4,68(sp)
   1ed44:	000a8693          	mv	a3,s5
   1ed48:	fb9dcee3          	blt	s11,s9,1ed04 <_svfiprintf_r+0xb40>
   1ed4c:	019787b3          	add	a5,a5,s9
   1ed50:	00170713          	addi	a4,a4,1
   1ed54:	0176a023          	sw	s7,0(a3)
   1ed58:	0196a223          	sw	s9,4(a3)
   1ed5c:	04f12423          	sw	a5,72(sp)
   1ed60:	04e12223          	sw	a4,68(sp)
   1ed64:	00700693          	li	a3,7
   1ed68:	eee6d863          	bge	a3,a4,1e458 <_svfiprintf_r+0x294>
   1ed6c:	04010613          	addi	a2,sp,64
   1ed70:	000a0593          	mv	a1,s4
   1ed74:	000b0513          	mv	a0,s6
   1ed78:	a90ff0ef          	jal	ra,1e008 <__ssprint_r>
   1ed7c:	f0051863          	bnez	a0,1e48c <_svfiprintf_r+0x2c8>
   1ed80:	04812783          	lw	a5,72(sp)
   1ed84:	ed4ff06f          	j	1e458 <_svfiprintf_r+0x294>
   1ed88:	88089ae3          	bnez	a7,1e61c <_svfiprintf_r+0x458>
   1ed8c:	000d8913          	mv	s2,s11
   1ed90:	00000893          	li	a7,0
   1ed94:	00000c93          	li	s9,0
   1ed98:	0f010413          	addi	s0,sp,240
   1ed9c:	895ff06f          	j	1e630 <_svfiprintf_r+0x46c>
   1eda0:	00c12703          	lw	a4,12(sp)
   1eda4:	01097793          	andi	a5,s2,16
   1eda8:	00470693          	addi	a3,a4,4
   1edac:	18079263          	bnez	a5,1ef30 <_svfiprintf_r+0xd6c>
   1edb0:	04097793          	andi	a5,s2,64
   1edb4:	36078e63          	beqz	a5,1f130 <_svfiprintf_r+0xf6c>
   1edb8:	00c12783          	lw	a5,12(sp)
   1edbc:	00000c13          	li	s8,0
   1edc0:	00d12623          	sw	a3,12(sp)
   1edc4:	0007dc83          	lhu	s9,0(a5)
   1edc8:	8b1ff06f          	j	1e678 <_svfiprintf_r+0x4b4>
   1edcc:	00c12703          	lw	a4,12(sp)
   1edd0:	010df793          	andi	a5,s11,16
   1edd4:	00470693          	addi	a3,a4,4
   1edd8:	10079a63          	bnez	a5,1eeec <_svfiprintf_r+0xd28>
   1eddc:	040df793          	andi	a5,s11,64
   1ede0:	38078663          	beqz	a5,1f16c <_svfiprintf_r+0xfa8>
   1ede4:	00c12783          	lw	a5,12(sp)
   1ede8:	00000c13          	li	s8,0
   1edec:	00d12623          	sw	a3,12(sp)
   1edf0:	0007dc83          	lhu	s9,0(a5)
   1edf4:	00100693          	li	a3,1
   1edf8:	889ff06f          	j	1e680 <_svfiprintf_r+0x4bc>
   1edfc:	04010613          	addi	a2,sp,64
   1ee00:	000a0593          	mv	a1,s4
   1ee04:	000b0513          	mv	a0,s6
   1ee08:	a00ff0ef          	jal	ra,1e008 <__ssprint_r>
   1ee0c:	e8051063          	bnez	a0,1e48c <_svfiprintf_r+0x2c8>
   1ee10:	04412583          	lw	a1,68(sp)
   1ee14:	04812783          	lw	a5,72(sp)
   1ee18:	05410693          	addi	a3,sp,84
   1ee1c:	00158593          	addi	a1,a1,1
   1ee20:	000a8d13          	mv	s10,s5
   1ee24:	e04ff06f          	j	1e428 <_svfiprintf_r+0x264>
   1ee28:	400df793          	andi	a5,s11,1024
   1ee2c:	03412423          	sw	s4,40(sp)
   1ee30:	03312623          	sw	s3,44(sp)
   1ee34:	000c0a13          	mv	s4,s8
   1ee38:	000c8993          	mv	s3,s9
   1ee3c:	00000913          	li	s2,0
   1ee40:	01812c83          	lw	s9,24(sp)
   1ee44:	0f010413          	addi	s0,sp,240
   1ee48:	03112223          	sw	a7,36(sp)
   1ee4c:	00078c13          	mv	s8,a5
   1ee50:	0240006f          	j	1ee74 <_svfiprintf_r+0xcb0>
   1ee54:	00a00613          	li	a2,10
   1ee58:	00000693          	li	a3,0
   1ee5c:	00098513          	mv	a0,s3
   1ee60:	000a0593          	mv	a1,s4
   1ee64:	271000ef          	jal	ra,1f8d4 <__udivdi3>
   1ee68:	320a0663          	beqz	s4,1f194 <_svfiprintf_r+0xfd0>
   1ee6c:	00050993          	mv	s3,a0
   1ee70:	00058a13          	mv	s4,a1
   1ee74:	00a00613          	li	a2,10
   1ee78:	00000693          	li	a3,0
   1ee7c:	00098513          	mv	a0,s3
   1ee80:	000a0593          	mv	a1,s4
   1ee84:	028010ef          	jal	ra,1feac <__umoddi3>
   1ee88:	03050513          	addi	a0,a0,48
   1ee8c:	fea40fa3          	sb	a0,-1(s0)
   1ee90:	00190913          	addi	s2,s2,1
   1ee94:	fff40413          	addi	s0,s0,-1
   1ee98:	fa0c0ee3          	beqz	s8,1ee54 <_svfiprintf_r+0xc90>
   1ee9c:	000cc683          	lbu	a3,0(s9)
   1eea0:	fb269ae3          	bne	a3,s2,1ee54 <_svfiprintf_r+0xc90>
   1eea4:	0ff00793          	li	a5,255
   1eea8:	faf906e3          	beq	s2,a5,1ee54 <_svfiprintf_r+0xc90>
   1eeac:	160a1c63          	bnez	s4,1f024 <_svfiprintf_r+0xe60>
   1eeb0:	00900793          	li	a5,9
   1eeb4:	1737e863          	bltu	a5,s3,1f024 <_svfiprintf_r+0xe60>
   1eeb8:	0f010793          	addi	a5,sp,240
   1eebc:	01912c23          	sw	s9,24(sp)
   1eec0:	02412883          	lw	a7,36(sp)
   1eec4:	02812a03          	lw	s4,40(sp)
   1eec8:	02c12983          	lw	s3,44(sp)
   1eecc:	40878cb3          	sub	s9,a5,s0
   1eed0:	000d8913          	mv	s2,s11
   1eed4:	f5cff06f          	j	1e630 <_svfiprintf_r+0x46c>
   1eed8:	00812703          	lw	a4,8(sp)
   1eedc:	41f75793          	srai	a5,a4,0x1f
   1eee0:	00e6a023          	sw	a4,0(a3)
   1eee4:	00f6a223          	sw	a5,4(a3)
   1eee8:	b80ff06f          	j	1e268 <_svfiprintf_r+0xa4>
   1eeec:	00d12623          	sw	a3,12(sp)
   1eef0:	00072c83          	lw	s9,0(a4)
   1eef4:	00000c13          	li	s8,0
   1eef8:	00100693          	li	a3,1
   1eefc:	f84ff06f          	j	1e680 <_svfiprintf_r+0x4bc>
   1ef00:	01812783          	lw	a5,24(sp)
   1ef04:	0009c683          	lbu	a3,0(s3)
   1ef08:	be078863          	beqz	a5,1e2f8 <_svfiprintf_r+0x134>
   1ef0c:	0007c783          	lbu	a5,0(a5)
   1ef10:	be078463          	beqz	a5,1e2f8 <_svfiprintf_r+0x134>
   1ef14:	40096913          	ori	s2,s2,1024
   1ef18:	be0ff06f          	j	1e2f8 <_svfiprintf_r+0x134>
   1ef1c:	00072c83          	lw	s9,0(a4)
   1ef20:	00d12623          	sw	a3,12(sp)
   1ef24:	41fcdc13          	srai	s8,s9,0x1f
   1ef28:	000c0693          	mv	a3,s8
   1ef2c:	ec8ff06f          	j	1e5f4 <_svfiprintf_r+0x430>
   1ef30:	00072c83          	lw	s9,0(a4)
   1ef34:	00000c13          	li	s8,0
   1ef38:	00d12623          	sw	a3,12(sp)
   1ef3c:	f3cff06f          	j	1e678 <_svfiprintf_r+0x4b4>
   1ef40:	000247b7          	lui	a5,0x24
   1ef44:	77878793          	addi	a5,a5,1912 # 24778 <__clzsi2+0x7c>
   1ef48:	00f12a23          	sw	a5,20(sp)
   1ef4c:	02097793          	andi	a5,s2,32
   1ef50:	00040893          	mv	a7,s0
   1ef54:	06078c63          	beqz	a5,1efcc <_svfiprintf_r+0xe08>
   1ef58:	00c12783          	lw	a5,12(sp)
   1ef5c:	00778793          	addi	a5,a5,7
   1ef60:	ff87f793          	andi	a5,a5,-8
   1ef64:	0007ac83          	lw	s9,0(a5)
   1ef68:	0047ac03          	lw	s8,4(a5)
   1ef6c:	00878793          	addi	a5,a5,8
   1ef70:	00f12623          	sw	a5,12(sp)
   1ef74:	00197613          	andi	a2,s2,1
   1ef78:	00060e63          	beqz	a2,1ef94 <_svfiprintf_r+0xdd0>
   1ef7c:	018ce633          	or	a2,s9,s8
   1ef80:	00060a63          	beqz	a2,1ef94 <_svfiprintf_r+0xdd0>
   1ef84:	03000613          	li	a2,48
   1ef88:	02c10e23          	sb	a2,60(sp)
   1ef8c:	02d10ea3          	sb	a3,61(sp)
   1ef90:	00296913          	ori	s2,s2,2
   1ef94:	bff97d93          	andi	s11,s2,-1025
   1ef98:	00200693          	li	a3,2
   1ef9c:	ee4ff06f          	j	1e680 <_svfiprintf_r+0x4bc>
   1efa0:	00040893          	mv	a7,s0
   1efa4:	00090d93          	mv	s11,s2
   1efa8:	ff0ff06f          	j	1e798 <_svfiprintf_r+0x5d4>
   1efac:	00040893          	mv	a7,s0
   1efb0:	ea4ff06f          	j	1e654 <_svfiprintf_r+0x490>
   1efb4:	000247b7          	lui	a5,0x24
   1efb8:	76478793          	addi	a5,a5,1892 # 24764 <__clzsi2+0x68>
   1efbc:	00f12a23          	sw	a5,20(sp)
   1efc0:	02097793          	andi	a5,s2,32
   1efc4:	00040893          	mv	a7,s0
   1efc8:	f80798e3          	bnez	a5,1ef58 <_svfiprintf_r+0xd94>
   1efcc:	00c12703          	lw	a4,12(sp)
   1efd0:	01097793          	andi	a5,s2,16
   1efd4:	00470613          	addi	a2,a4,4
   1efd8:	08078a63          	beqz	a5,1f06c <_svfiprintf_r+0xea8>
   1efdc:	00072c83          	lw	s9,0(a4)
   1efe0:	00000c13          	li	s8,0
   1efe4:	00c12623          	sw	a2,12(sp)
   1efe8:	f8dff06f          	j	1ef74 <_svfiprintf_r+0xdb0>
   1efec:	00040513          	mv	a0,s0
   1eff0:	9b5f90ef          	jal	ra,189a4 <strlen>
   1eff4:	00050c93          	mv	s9,a0
   1eff8:	01b12623          	sw	s11,12(sp)
   1effc:	00000893          	li	a7,0
   1f000:	e30ff06f          	j	1e630 <_svfiprintf_r+0x46c>
   1f004:	04000593          	li	a1,64
   1f008:	c1df70ef          	jal	ra,16c24 <_malloc_r>
   1f00c:	00aa2023          	sw	a0,0(s4)
   1f010:	00aa2823          	sw	a0,16(s4)
   1f014:	24050c63          	beqz	a0,1f26c <_svfiprintf_r+0x10a8>
   1f018:	04000793          	li	a5,64
   1f01c:	00fa2a23          	sw	a5,20(s4)
   1f020:	a00ff06f          	j	1e220 <_svfiprintf_r+0x5c>
   1f024:	02012783          	lw	a5,32(sp)
   1f028:	01c12583          	lw	a1,28(sp)
   1f02c:	00000913          	li	s2,0
   1f030:	40f40433          	sub	s0,s0,a5
   1f034:	00078613          	mv	a2,a5
   1f038:	00040513          	mv	a0,s0
   1f03c:	9f5f90ef          	jal	ra,18a30 <strncpy>
   1f040:	001cc583          	lbu	a1,1(s9)
   1f044:	00a00613          	li	a2,10
   1f048:	00000693          	li	a3,0
   1f04c:	00b03833          	snez	a6,a1
   1f050:	00098513          	mv	a0,s3
   1f054:	000a0593          	mv	a1,s4
   1f058:	010c8cb3          	add	s9,s9,a6
   1f05c:	079000ef          	jal	ra,1f8d4 <__udivdi3>
   1f060:	e0dff06f          	j	1ee6c <_svfiprintf_r+0xca8>
   1f064:	00090a13          	mv	s4,s2
   1f068:	c24ff06f          	j	1e48c <_svfiprintf_r+0x2c8>
   1f06c:	04097793          	andi	a5,s2,64
   1f070:	0a078263          	beqz	a5,1f114 <_svfiprintf_r+0xf50>
   1f074:	00c12783          	lw	a5,12(sp)
   1f078:	00000c13          	li	s8,0
   1f07c:	00c12623          	sw	a2,12(sp)
   1f080:	0007dc83          	lhu	s9,0(a5)
   1f084:	ef1ff06f          	j	1ef74 <_svfiprintf_r+0xdb0>
   1f088:	04010613          	addi	a2,sp,64
   1f08c:	000a0593          	mv	a1,s4
   1f090:	000b0513          	mv	a0,s6
   1f094:	03112223          	sw	a7,36(sp)
   1f098:	f71fe0ef          	jal	ra,1e008 <__ssprint_r>
   1f09c:	be051863          	bnez	a0,1e48c <_svfiprintf_r+0x2c8>
   1f0a0:	04412603          	lw	a2,68(sp)
   1f0a4:	04812783          	lw	a5,72(sp)
   1f0a8:	02412883          	lw	a7,36(sp)
   1f0ac:	05410693          	addi	a3,sp,84
   1f0b0:	00160593          	addi	a1,a2,1
   1f0b4:	000a8d13          	mv	s10,s5
   1f0b8:	b68ff06f          	j	1e420 <_svfiprintf_r+0x25c>
   1f0bc:	0019c683          	lbu	a3,1(s3)
   1f0c0:	20096913          	ori	s2,s2,512
   1f0c4:	00198993          	addi	s3,s3,1
   1f0c8:	a30ff06f          	j	1e2f8 <_svfiprintf_r+0x134>
   1f0cc:	0019c683          	lbu	a3,1(s3)
   1f0d0:	02096913          	ori	s2,s2,32
   1f0d4:	00198993          	addi	s3,s3,1
   1f0d8:	a20ff06f          	j	1e2f8 <_svfiprintf_r+0x134>
   1f0dc:	00040a13          	mv	s4,s0
   1f0e0:	bacff06f          	j	1e48c <_svfiprintf_r+0x2c8>
   1f0e4:	00812783          	lw	a5,8(sp)
   1f0e8:	00f6a023          	sw	a5,0(a3)
   1f0ec:	97cff06f          	j	1e268 <_svfiprintf_r+0xa4>
   1f0f0:	00600793          	li	a5,6
   1f0f4:	00088c93          	mv	s9,a7
   1f0f8:	0117f463          	bgeu	a5,a7,1f100 <_svfiprintf_r+0xf3c>
   1f0fc:	00600c93          	li	s9,6
   1f100:	00024e37          	lui	t3,0x24
   1f104:	000c8c13          	mv	s8,s9
   1f108:	01b12623          	sw	s11,12(sp)
   1f10c:	78ce0413          	addi	s0,t3,1932 # 2478c <__clzsi2+0x90>
   1f110:	a58ff06f          	j	1e368 <_svfiprintf_r+0x1a4>
   1f114:	20097793          	andi	a5,s2,512
   1f118:	0c078663          	beqz	a5,1f1e4 <_svfiprintf_r+0x1020>
   1f11c:	00c12783          	lw	a5,12(sp)
   1f120:	00000c13          	li	s8,0
   1f124:	00c12623          	sw	a2,12(sp)
   1f128:	0007cc83          	lbu	s9,0(a5)
   1f12c:	e49ff06f          	j	1ef74 <_svfiprintf_r+0xdb0>
   1f130:	20097793          	andi	a5,s2,512
   1f134:	08078e63          	beqz	a5,1f1d0 <_svfiprintf_r+0x100c>
   1f138:	00c12783          	lw	a5,12(sp)
   1f13c:	00000c13          	li	s8,0
   1f140:	00d12623          	sw	a3,12(sp)
   1f144:	0007cc83          	lbu	s9,0(a5)
   1f148:	d30ff06f          	j	1e678 <_svfiprintf_r+0x4b4>
   1f14c:	20097793          	andi	a5,s2,512
   1f150:	06078463          	beqz	a5,1f1b8 <_svfiprintf_r+0xff4>
   1f154:	00c12783          	lw	a5,12(sp)
   1f158:	00d12623          	sw	a3,12(sp)
   1f15c:	00078c83          	lb	s9,0(a5)
   1f160:	41fcdc13          	srai	s8,s9,0x1f
   1f164:	000c0693          	mv	a3,s8
   1f168:	c8cff06f          	j	1e5f4 <_svfiprintf_r+0x430>
   1f16c:	200df793          	andi	a5,s11,512
   1f170:	02078863          	beqz	a5,1f1a0 <_svfiprintf_r+0xfdc>
   1f174:	00c12783          	lw	a5,12(sp)
   1f178:	00000c13          	li	s8,0
   1f17c:	00d12623          	sw	a3,12(sp)
   1f180:	0007cc83          	lbu	s9,0(a5)
   1f184:	00100693          	li	a3,1
   1f188:	cf8ff06f          	j	1e680 <_svfiprintf_r+0x4bc>
   1f18c:	00068613          	mv	a2,a3
   1f190:	931ff06f          	j	1eac0 <_svfiprintf_r+0x8fc>
   1f194:	00900793          	li	a5,9
   1f198:	cd37eae3          	bltu	a5,s3,1ee6c <_svfiprintf_r+0xca8>
   1f19c:	d1dff06f          	j	1eeb8 <_svfiprintf_r+0xcf4>
   1f1a0:	00c12783          	lw	a5,12(sp)
   1f1a4:	00000c13          	li	s8,0
   1f1a8:	00d12623          	sw	a3,12(sp)
   1f1ac:	0007ac83          	lw	s9,0(a5)
   1f1b0:	00100693          	li	a3,1
   1f1b4:	cccff06f          	j	1e680 <_svfiprintf_r+0x4bc>
   1f1b8:	00c12783          	lw	a5,12(sp)
   1f1bc:	00d12623          	sw	a3,12(sp)
   1f1c0:	0007ac83          	lw	s9,0(a5)
   1f1c4:	41fcdc13          	srai	s8,s9,0x1f
   1f1c8:	000c0693          	mv	a3,s8
   1f1cc:	c28ff06f          	j	1e5f4 <_svfiprintf_r+0x430>
   1f1d0:	00c12783          	lw	a5,12(sp)
   1f1d4:	00000c13          	li	s8,0
   1f1d8:	00d12623          	sw	a3,12(sp)
   1f1dc:	0007ac83          	lw	s9,0(a5)
   1f1e0:	c98ff06f          	j	1e678 <_svfiprintf_r+0x4b4>
   1f1e4:	00c12783          	lw	a5,12(sp)
   1f1e8:	00000c13          	li	s8,0
   1f1ec:	00c12623          	sw	a2,12(sp)
   1f1f0:	0007ac83          	lw	s9,0(a5)
   1f1f4:	d81ff06f          	j	1ef74 <_svfiprintf_r+0xdb0>
   1f1f8:	00812783          	lw	a5,8(sp)
   1f1fc:	00f69023          	sh	a5,0(a3)
   1f200:	868ff06f          	j	1e268 <_svfiprintf_r+0xa4>
   1f204:	04010613          	addi	a2,sp,64
   1f208:	000a0593          	mv	a1,s4
   1f20c:	000b0513          	mv	a0,s6
   1f210:	df9fe0ef          	jal	ra,1e008 <__ssprint_r>
   1f214:	a78ff06f          	j	1e48c <_svfiprintf_r+0x2c8>
   1f218:	00088c93          	mv	s9,a7
   1f21c:	01b12623          	sw	s11,12(sp)
   1f220:	00000893          	li	a7,0
   1f224:	c0cff06f          	j	1e630 <_svfiprintf_r+0x46c>
   1f228:	00090d93          	mv	s11,s2
   1f22c:	bf0ff06f          	j	1e61c <_svfiprintf_r+0x458>
   1f230:	00068513          	mv	a0,a3
   1f234:	00058613          	mv	a2,a1
   1f238:	fe4ff06f          	j	1ea1c <_svfiprintf_r+0x858>
   1f23c:	fff00793          	li	a5,-1
   1f240:	00f12423          	sw	a5,8(sp)
   1f244:	a54ff06f          	j	1e498 <_svfiprintf_r+0x2d4>
   1f248:	00c12783          	lw	a5,12(sp)
   1f24c:	0007a403          	lw	s0,0(a5)
   1f250:	00478793          	addi	a5,a5,4
   1f254:	00045463          	bgez	s0,1f25c <_svfiprintf_r+0x1098>
   1f258:	fff00413          	li	s0,-1
   1f25c:	0019c683          	lbu	a3,1(s3)
   1f260:	00f12623          	sw	a5,12(sp)
   1f264:	00070993          	mv	s3,a4
   1f268:	890ff06f          	j	1e2f8 <_svfiprintf_r+0x134>
   1f26c:	00c00793          	li	a5,12
   1f270:	00fb2023          	sw	a5,0(s6)
   1f274:	fff00793          	li	a5,-1
   1f278:	00f12423          	sw	a5,8(sp)
   1f27c:	a1cff06f          	j	1e498 <_svfiprintf_r+0x2d4>

0001f280 <__swbuf_r>:
   1f280:	fe010113          	addi	sp,sp,-32
   1f284:	00812c23          	sw	s0,24(sp)
   1f288:	00912a23          	sw	s1,20(sp)
   1f28c:	01212823          	sw	s2,16(sp)
   1f290:	00112e23          	sw	ra,28(sp)
   1f294:	01312623          	sw	s3,12(sp)
   1f298:	00050913          	mv	s2,a0
   1f29c:	00058493          	mv	s1,a1
   1f2a0:	00060413          	mv	s0,a2
   1f2a4:	00050663          	beqz	a0,1f2b0 <__swbuf_r+0x30>
   1f2a8:	03852783          	lw	a5,56(a0)
   1f2ac:	14078863          	beqz	a5,1f3fc <__swbuf_r+0x17c>
   1f2b0:	00c41703          	lh	a4,12(s0)
   1f2b4:	01842683          	lw	a3,24(s0)
   1f2b8:	00877793          	andi	a5,a4,8
   1f2bc:	00d42423          	sw	a3,8(s0)
   1f2c0:	01071693          	slli	a3,a4,0x10
   1f2c4:	0106d693          	srli	a3,a3,0x10
   1f2c8:	08078263          	beqz	a5,1f34c <__swbuf_r+0xcc>
   1f2cc:	01042783          	lw	a5,16(s0)
   1f2d0:	06078e63          	beqz	a5,1f34c <__swbuf_r+0xcc>
   1f2d4:	01269613          	slli	a2,a3,0x12
   1f2d8:	0ff4f993          	andi	s3,s1,255
   1f2dc:	0ff4f493          	andi	s1,s1,255
   1f2e0:	08065e63          	bgez	a2,1f37c <__swbuf_r+0xfc>
   1f2e4:	00042703          	lw	a4,0(s0)
   1f2e8:	01442683          	lw	a3,20(s0)
   1f2ec:	40f707b3          	sub	a5,a4,a5
   1f2f0:	0ad7de63          	bge	a5,a3,1f3ac <__swbuf_r+0x12c>
   1f2f4:	00842683          	lw	a3,8(s0)
   1f2f8:	00170613          	addi	a2,a4,1
   1f2fc:	00c42023          	sw	a2,0(s0)
   1f300:	fff68693          	addi	a3,a3,-1
   1f304:	00d42423          	sw	a3,8(s0)
   1f308:	01370023          	sb	s3,0(a4)
   1f30c:	01442703          	lw	a4,20(s0)
   1f310:	00178793          	addi	a5,a5,1
   1f314:	0cf70863          	beq	a4,a5,1f3e4 <__swbuf_r+0x164>
   1f318:	00c45783          	lhu	a5,12(s0)
   1f31c:	0017f793          	andi	a5,a5,1
   1f320:	00078663          	beqz	a5,1f32c <__swbuf_r+0xac>
   1f324:	00a00793          	li	a5,10
   1f328:	0af48e63          	beq	s1,a5,1f3e4 <__swbuf_r+0x164>
   1f32c:	01c12083          	lw	ra,28(sp)
   1f330:	01812403          	lw	s0,24(sp)
   1f334:	01012903          	lw	s2,16(sp)
   1f338:	00c12983          	lw	s3,12(sp)
   1f33c:	00048513          	mv	a0,s1
   1f340:	01412483          	lw	s1,20(sp)
   1f344:	02010113          	addi	sp,sp,32
   1f348:	00008067          	ret
   1f34c:	00040593          	mv	a1,s0
   1f350:	00090513          	mv	a0,s2
   1f354:	c55f30ef          	jal	ra,12fa8 <__swsetup_r>
   1f358:	08051e63          	bnez	a0,1f3f4 <__swbuf_r+0x174>
   1f35c:	00c41703          	lh	a4,12(s0)
   1f360:	0ff4f993          	andi	s3,s1,255
   1f364:	01042783          	lw	a5,16(s0)
   1f368:	01071693          	slli	a3,a4,0x10
   1f36c:	0106d693          	srli	a3,a3,0x10
   1f370:	01269613          	slli	a2,a3,0x12
   1f374:	0ff4f493          	andi	s1,s1,255
   1f378:	f60646e3          	bltz	a2,1f2e4 <__swbuf_r+0x64>
   1f37c:	06442683          	lw	a3,100(s0)
   1f380:	00002637          	lui	a2,0x2
   1f384:	00c76733          	or	a4,a4,a2
   1f388:	ffffe637          	lui	a2,0xffffe
   1f38c:	fff60613          	addi	a2,a2,-1 # ffffdfff <__BSS_END__+0xfffd70d3>
   1f390:	00c6f6b3          	and	a3,a3,a2
   1f394:	00e41623          	sh	a4,12(s0)
   1f398:	00042703          	lw	a4,0(s0)
   1f39c:	06d42223          	sw	a3,100(s0)
   1f3a0:	01442683          	lw	a3,20(s0)
   1f3a4:	40f707b3          	sub	a5,a4,a5
   1f3a8:	f4d7c6e3          	blt	a5,a3,1f2f4 <__swbuf_r+0x74>
   1f3ac:	00040593          	mv	a1,s0
   1f3b0:	00090513          	mv	a0,s2
   1f3b4:	8e0f40ef          	jal	ra,13494 <_fflush_r>
   1f3b8:	02051e63          	bnez	a0,1f3f4 <__swbuf_r+0x174>
   1f3bc:	00042703          	lw	a4,0(s0)
   1f3c0:	00842683          	lw	a3,8(s0)
   1f3c4:	00100793          	li	a5,1
   1f3c8:	00170613          	addi	a2,a4,1
   1f3cc:	fff68693          	addi	a3,a3,-1
   1f3d0:	00c42023          	sw	a2,0(s0)
   1f3d4:	00d42423          	sw	a3,8(s0)
   1f3d8:	01370023          	sb	s3,0(a4)
   1f3dc:	01442703          	lw	a4,20(s0)
   1f3e0:	f2f71ce3          	bne	a4,a5,1f318 <__swbuf_r+0x98>
   1f3e4:	00040593          	mv	a1,s0
   1f3e8:	00090513          	mv	a0,s2
   1f3ec:	8a8f40ef          	jal	ra,13494 <_fflush_r>
   1f3f0:	f2050ee3          	beqz	a0,1f32c <__swbuf_r+0xac>
   1f3f4:	fff00493          	li	s1,-1
   1f3f8:	f35ff06f          	j	1f32c <__swbuf_r+0xac>
   1f3fc:	c40f40ef          	jal	ra,1383c <__sinit>
   1f400:	eb1ff06f          	j	1f2b0 <__swbuf_r+0x30>

0001f404 <__swbuf>:
   1f404:	00050793          	mv	a5,a0
   1f408:	1cc1a503          	lw	a0,460(gp) # 26ec4 <_impure_ptr>
   1f40c:	00058613          	mv	a2,a1
   1f410:	00078593          	mv	a1,a5
   1f414:	e6dff06f          	j	1f280 <__swbuf_r>

0001f418 <_wcrtomb_r>:
   1f418:	fe010113          	addi	sp,sp,-32
   1f41c:	00812c23          	sw	s0,24(sp)
   1f420:	00912a23          	sw	s1,20(sp)
   1f424:	00112e23          	sw	ra,28(sp)
   1f428:	1101a783          	lw	a5,272(gp) # 26e08 <__global_locale+0xe0>
   1f42c:	00050413          	mv	s0,a0
   1f430:	00068493          	mv	s1,a3
   1f434:	02058263          	beqz	a1,1f458 <_wcrtomb_r+0x40>
   1f438:	000780e7          	jalr	a5
   1f43c:	fff00793          	li	a5,-1
   1f440:	02f50663          	beq	a0,a5,1f46c <_wcrtomb_r+0x54>
   1f444:	01c12083          	lw	ra,28(sp)
   1f448:	01812403          	lw	s0,24(sp)
   1f44c:	01412483          	lw	s1,20(sp)
   1f450:	02010113          	addi	sp,sp,32
   1f454:	00008067          	ret
   1f458:	00000613          	li	a2,0
   1f45c:	00410593          	addi	a1,sp,4
   1f460:	000780e7          	jalr	a5
   1f464:	fff00793          	li	a5,-1
   1f468:	fcf51ee3          	bne	a0,a5,1f444 <_wcrtomb_r+0x2c>
   1f46c:	0004a023          	sw	zero,0(s1)
   1f470:	08a00793          	li	a5,138
   1f474:	01c12083          	lw	ra,28(sp)
   1f478:	00f42023          	sw	a5,0(s0)
   1f47c:	01812403          	lw	s0,24(sp)
   1f480:	01412483          	lw	s1,20(sp)
   1f484:	02010113          	addi	sp,sp,32
   1f488:	00008067          	ret

0001f48c <wcrtomb>:
   1f48c:	fe010113          	addi	sp,sp,-32
   1f490:	00812c23          	sw	s0,24(sp)
   1f494:	00912a23          	sw	s1,20(sp)
   1f498:	00112e23          	sw	ra,28(sp)
   1f49c:	1cc1a483          	lw	s1,460(gp) # 26ec4 <_impure_ptr>
   1f4a0:	1101a783          	lw	a5,272(gp) # 26e08 <__global_locale+0xe0>
   1f4a4:	00060413          	mv	s0,a2
   1f4a8:	02050a63          	beqz	a0,1f4dc <wcrtomb+0x50>
   1f4ac:	00058613          	mv	a2,a1
   1f4b0:	00040693          	mv	a3,s0
   1f4b4:	00050593          	mv	a1,a0
   1f4b8:	00048513          	mv	a0,s1
   1f4bc:	000780e7          	jalr	a5
   1f4c0:	fff00793          	li	a5,-1
   1f4c4:	02f50a63          	beq	a0,a5,1f4f8 <wcrtomb+0x6c>
   1f4c8:	01c12083          	lw	ra,28(sp)
   1f4cc:	01812403          	lw	s0,24(sp)
   1f4d0:	01412483          	lw	s1,20(sp)
   1f4d4:	02010113          	addi	sp,sp,32
   1f4d8:	00008067          	ret
   1f4dc:	00060693          	mv	a3,a2
   1f4e0:	00410593          	addi	a1,sp,4
   1f4e4:	00000613          	li	a2,0
   1f4e8:	00048513          	mv	a0,s1
   1f4ec:	000780e7          	jalr	a5
   1f4f0:	fff00793          	li	a5,-1
   1f4f4:	fcf51ae3          	bne	a0,a5,1f4c8 <wcrtomb+0x3c>
   1f4f8:	00042023          	sw	zero,0(s0)
   1f4fc:	01c12083          	lw	ra,28(sp)
   1f500:	01812403          	lw	s0,24(sp)
   1f504:	08a00793          	li	a5,138
   1f508:	00f4a023          	sw	a5,0(s1)
   1f50c:	01412483          	lw	s1,20(sp)
   1f510:	02010113          	addi	sp,sp,32
   1f514:	00008067          	ret

0001f518 <_wctomb_r>:
   1f518:	1101a303          	lw	t1,272(gp) # 26e08 <__global_locale+0xe0>
   1f51c:	00030067          	jr	t1

0001f520 <__ascii_wctomb>:
   1f520:	02058463          	beqz	a1,1f548 <__ascii_wctomb+0x28>
   1f524:	0ff00793          	li	a5,255
   1f528:	00c7e863          	bltu	a5,a2,1f538 <__ascii_wctomb+0x18>
   1f52c:	00c58023          	sb	a2,0(a1)
   1f530:	00100513          	li	a0,1
   1f534:	00008067          	ret
   1f538:	08a00793          	li	a5,138
   1f53c:	00f52023          	sw	a5,0(a0)
   1f540:	fff00513          	li	a0,-1
   1f544:	00008067          	ret
   1f548:	00000513          	li	a0,0
   1f54c:	00008067          	ret

0001f550 <_close>:
   1f550:	ff010113          	addi	sp,sp,-16
   1f554:	00112623          	sw	ra,12(sp)
   1f558:	00812423          	sw	s0,8(sp)
   1f55c:	00000593          	li	a1,0
   1f560:	00000613          	li	a2,0
   1f564:	00000693          	li	a3,0
   1f568:	00000713          	li	a4,0
   1f56c:	00000793          	li	a5,0
   1f570:	03900893          	li	a7,57
   1f574:	00000073          	ecall
   1f578:	00050413          	mv	s0,a0
   1f57c:	00054c63          	bltz	a0,1f594 <_close+0x44>
   1f580:	00c12083          	lw	ra,12(sp)
   1f584:	00040513          	mv	a0,s0
   1f588:	00812403          	lw	s0,8(sp)
   1f58c:	01010113          	addi	sp,sp,16
   1f590:	00008067          	ret
   1f594:	40800433          	neg	s0,s0
   1f598:	334000ef          	jal	ra,1f8cc <__errno>
   1f59c:	00852023          	sw	s0,0(a0)
   1f5a0:	fff00413          	li	s0,-1
   1f5a4:	fddff06f          	j	1f580 <_close+0x30>

0001f5a8 <_exit>:
   1f5a8:	00000593          	li	a1,0
   1f5ac:	00000613          	li	a2,0
   1f5b0:	00000693          	li	a3,0
   1f5b4:	00000713          	li	a4,0
   1f5b8:	00000793          	li	a5,0
   1f5bc:	05d00893          	li	a7,93
   1f5c0:	00000073          	ecall
   1f5c4:	00054463          	bltz	a0,1f5cc <_exit+0x24>
   1f5c8:	0000006f          	j	1f5c8 <_exit+0x20>
   1f5cc:	ff010113          	addi	sp,sp,-16
   1f5d0:	00812423          	sw	s0,8(sp)
   1f5d4:	00050413          	mv	s0,a0
   1f5d8:	00112623          	sw	ra,12(sp)
   1f5dc:	40800433          	neg	s0,s0
   1f5e0:	2ec000ef          	jal	ra,1f8cc <__errno>
   1f5e4:	00852023          	sw	s0,0(a0)
   1f5e8:	0000006f          	j	1f5e8 <_exit+0x40>

0001f5ec <_fstat>:
   1f5ec:	f7010113          	addi	sp,sp,-144
   1f5f0:	08912223          	sw	s1,132(sp)
   1f5f4:	08112623          	sw	ra,140(sp)
   1f5f8:	00058493          	mv	s1,a1
   1f5fc:	08812423          	sw	s0,136(sp)
   1f600:	00010593          	mv	a1,sp
   1f604:	00000613          	li	a2,0
   1f608:	00000693          	li	a3,0
   1f60c:	00000713          	li	a4,0
   1f610:	00000793          	li	a5,0
   1f614:	05000893          	li	a7,80
   1f618:	00000073          	ecall
   1f61c:	00050413          	mv	s0,a0
   1f620:	02054463          	bltz	a0,1f648 <_fstat+0x5c>
   1f624:	00048513          	mv	a0,s1
   1f628:	00010593          	mv	a1,sp
   1f62c:	1fc000ef          	jal	ra,1f828 <_conv_stat>
   1f630:	08c12083          	lw	ra,140(sp)
   1f634:	00040513          	mv	a0,s0
   1f638:	08812403          	lw	s0,136(sp)
   1f63c:	08412483          	lw	s1,132(sp)
   1f640:	09010113          	addi	sp,sp,144
   1f644:	00008067          	ret
   1f648:	40800433          	neg	s0,s0
   1f64c:	280000ef          	jal	ra,1f8cc <__errno>
   1f650:	00852023          	sw	s0,0(a0)
   1f654:	fff00413          	li	s0,-1
   1f658:	fcdff06f          	j	1f624 <_fstat+0x38>

0001f65c <_isatty>:
   1f65c:	f9010113          	addi	sp,sp,-112
   1f660:	00810593          	addi	a1,sp,8
   1f664:	06112623          	sw	ra,108(sp)
   1f668:	f85ff0ef          	jal	ra,1f5ec <_fstat>
   1f66c:	fff00793          	li	a5,-1
   1f670:	00f50e63          	beq	a0,a5,1f68c <_isatty+0x30>
   1f674:	00c12503          	lw	a0,12(sp)
   1f678:	06c12083          	lw	ra,108(sp)
   1f67c:	00d55513          	srli	a0,a0,0xd
   1f680:	00157513          	andi	a0,a0,1
   1f684:	07010113          	addi	sp,sp,112
   1f688:	00008067          	ret
   1f68c:	06c12083          	lw	ra,108(sp)
   1f690:	00000513          	li	a0,0
   1f694:	07010113          	addi	sp,sp,112
   1f698:	00008067          	ret

0001f69c <_lseek>:
   1f69c:	ff010113          	addi	sp,sp,-16
   1f6a0:	00112623          	sw	ra,12(sp)
   1f6a4:	00812423          	sw	s0,8(sp)
   1f6a8:	00000693          	li	a3,0
   1f6ac:	00000713          	li	a4,0
   1f6b0:	00000793          	li	a5,0
   1f6b4:	03e00893          	li	a7,62
   1f6b8:	00000073          	ecall
   1f6bc:	00050413          	mv	s0,a0
   1f6c0:	00054c63          	bltz	a0,1f6d8 <_lseek+0x3c>
   1f6c4:	00c12083          	lw	ra,12(sp)
   1f6c8:	00040513          	mv	a0,s0
   1f6cc:	00812403          	lw	s0,8(sp)
   1f6d0:	01010113          	addi	sp,sp,16
   1f6d4:	00008067          	ret
   1f6d8:	40800433          	neg	s0,s0
   1f6dc:	1f0000ef          	jal	ra,1f8cc <__errno>
   1f6e0:	00852023          	sw	s0,0(a0)
   1f6e4:	fff00413          	li	s0,-1
   1f6e8:	fddff06f          	j	1f6c4 <_lseek+0x28>

0001f6ec <_read>:
   1f6ec:	ff010113          	addi	sp,sp,-16
   1f6f0:	00112623          	sw	ra,12(sp)
   1f6f4:	00812423          	sw	s0,8(sp)
   1f6f8:	00000693          	li	a3,0
   1f6fc:	00000713          	li	a4,0
   1f700:	00000793          	li	a5,0
   1f704:	03f00893          	li	a7,63
   1f708:	00000073          	ecall
   1f70c:	00050413          	mv	s0,a0
   1f710:	00054c63          	bltz	a0,1f728 <_read+0x3c>
   1f714:	00c12083          	lw	ra,12(sp)
   1f718:	00040513          	mv	a0,s0
   1f71c:	00812403          	lw	s0,8(sp)
   1f720:	01010113          	addi	sp,sp,16
   1f724:	00008067          	ret
   1f728:	40800433          	neg	s0,s0
   1f72c:	1a0000ef          	jal	ra,1f8cc <__errno>
   1f730:	00852023          	sw	s0,0(a0)
   1f734:	fff00413          	li	s0,-1
   1f738:	fddff06f          	j	1f714 <_read+0x28>

0001f73c <_sbrk>:
   1f73c:	1e81a783          	lw	a5,488(gp) # 26ee0 <heap_end.1813>
   1f740:	ff010113          	addi	sp,sp,-16
   1f744:	00112623          	sw	ra,12(sp)
   1f748:	00050813          	mv	a6,a0
   1f74c:	02079863          	bnez	a5,1f77c <_sbrk+0x40>
   1f750:	00000513          	li	a0,0
   1f754:	00000593          	li	a1,0
   1f758:	00000613          	li	a2,0
   1f75c:	00000693          	li	a3,0
   1f760:	00000713          	li	a4,0
   1f764:	0d600893          	li	a7,214
   1f768:	00000073          	ecall
   1f76c:	fff00713          	li	a4,-1
   1f770:	00050793          	mv	a5,a0
   1f774:	04e50463          	beq	a0,a4,1f7bc <_sbrk+0x80>
   1f778:	1ea1a423          	sw	a0,488(gp) # 26ee0 <heap_end.1813>
   1f77c:	00f80533          	add	a0,a6,a5
   1f780:	00000593          	li	a1,0
   1f784:	00000613          	li	a2,0
   1f788:	00000693          	li	a3,0
   1f78c:	00000713          	li	a4,0
   1f790:	00000793          	li	a5,0
   1f794:	0d600893          	li	a7,214
   1f798:	00000073          	ecall
   1f79c:	1e81a783          	lw	a5,488(gp) # 26ee0 <heap_end.1813>
   1f7a0:	00f80833          	add	a6,a6,a5
   1f7a4:	01051c63          	bne	a0,a6,1f7bc <_sbrk+0x80>
   1f7a8:	00c12083          	lw	ra,12(sp)
   1f7ac:	1ea1a423          	sw	a0,488(gp) # 26ee0 <heap_end.1813>
   1f7b0:	00078513          	mv	a0,a5
   1f7b4:	01010113          	addi	sp,sp,16
   1f7b8:	00008067          	ret
   1f7bc:	110000ef          	jal	ra,1f8cc <__errno>
   1f7c0:	00c12083          	lw	ra,12(sp)
   1f7c4:	00c00793          	li	a5,12
   1f7c8:	00f52023          	sw	a5,0(a0)
   1f7cc:	fff00513          	li	a0,-1
   1f7d0:	01010113          	addi	sp,sp,16
   1f7d4:	00008067          	ret

0001f7d8 <_write>:
   1f7d8:	ff010113          	addi	sp,sp,-16
   1f7dc:	00112623          	sw	ra,12(sp)
   1f7e0:	00812423          	sw	s0,8(sp)
   1f7e4:	00000693          	li	a3,0
   1f7e8:	00000713          	li	a4,0
   1f7ec:	00000793          	li	a5,0
   1f7f0:	04000893          	li	a7,64
   1f7f4:	00000073          	ecall
   1f7f8:	00050413          	mv	s0,a0
   1f7fc:	00054c63          	bltz	a0,1f814 <_write+0x3c>
   1f800:	00c12083          	lw	ra,12(sp)
   1f804:	00040513          	mv	a0,s0
   1f808:	00812403          	lw	s0,8(sp)
   1f80c:	01010113          	addi	sp,sp,16
   1f810:	00008067          	ret
   1f814:	40800433          	neg	s0,s0
   1f818:	0b4000ef          	jal	ra,1f8cc <__errno>
   1f81c:	00852023          	sw	s0,0(a0)
   1f820:	fff00413          	li	s0,-1
   1f824:	fddff06f          	j	1f800 <_write+0x28>

0001f828 <_conv_stat>:
   1f828:	ff010113          	addi	sp,sp,-16
   1f82c:	0145a383          	lw	t2,20(a1)
   1f830:	0185a283          	lw	t0,24(a1)
   1f834:	01c5af83          	lw	t6,28(a1)
   1f838:	0205af03          	lw	t5,32(a1)
   1f83c:	0305ae83          	lw	t4,48(a1)
   1f840:	0405ae03          	lw	t3,64(a1)
   1f844:	0385a303          	lw	t1,56(a1)
   1f848:	0485a803          	lw	a6,72(a1)
   1f84c:	04c5a883          	lw	a7,76(a1)
   1f850:	0585a603          	lw	a2,88(a1)
   1f854:	00812623          	sw	s0,12(sp)
   1f858:	00912423          	sw	s1,8(sp)
   1f85c:	0105a403          	lw	s0,16(a1)
   1f860:	0085a483          	lw	s1,8(a1)
   1f864:	01212223          	sw	s2,4(sp)
   1f868:	0005a903          	lw	s2,0(a1)
   1f86c:	05c5a683          	lw	a3,92(a1)
   1f870:	0685a703          	lw	a4,104(a1)
   1f874:	06c5a783          	lw	a5,108(a1)
   1f878:	01251023          	sh	s2,0(a0)
   1f87c:	00951123          	sh	s1,2(a0)
   1f880:	00852223          	sw	s0,4(a0)
   1f884:	00751423          	sh	t2,8(a0)
   1f888:	00551523          	sh	t0,10(a0)
   1f88c:	01f51623          	sh	t6,12(a0)
   1f890:	01e51723          	sh	t5,14(a0)
   1f894:	01d52823          	sw	t4,16(a0)
   1f898:	05c52423          	sw	t3,72(a0)
   1f89c:	04652223          	sw	t1,68(a0)
   1f8a0:	01052c23          	sw	a6,24(a0)
   1f8a4:	01152e23          	sw	a7,28(a0)
   1f8a8:	02c52423          	sw	a2,40(a0)
   1f8ac:	02d52623          	sw	a3,44(a0)
   1f8b0:	00c12403          	lw	s0,12(sp)
   1f8b4:	02e52c23          	sw	a4,56(a0)
   1f8b8:	02f52e23          	sw	a5,60(a0)
   1f8bc:	00812483          	lw	s1,8(sp)
   1f8c0:	00412903          	lw	s2,4(sp)
   1f8c4:	01010113          	addi	sp,sp,16
   1f8c8:	00008067          	ret

0001f8cc <__errno>:
   1f8cc:	1cc1a503          	lw	a0,460(gp) # 26ec4 <_impure_ptr>
   1f8d0:	00008067          	ret

0001f8d4 <__udivdi3>:
   1f8d4:	fd010113          	addi	sp,sp,-48
   1f8d8:	02812423          	sw	s0,40(sp)
   1f8dc:	01712623          	sw	s7,12(sp)
   1f8e0:	02112623          	sw	ra,44(sp)
   1f8e4:	02912223          	sw	s1,36(sp)
   1f8e8:	03212023          	sw	s2,32(sp)
   1f8ec:	01312e23          	sw	s3,28(sp)
   1f8f0:	01412c23          	sw	s4,24(sp)
   1f8f4:	01512a23          	sw	s5,20(sp)
   1f8f8:	01612823          	sw	s6,16(sp)
   1f8fc:	01812423          	sw	s8,8(sp)
   1f900:	01912223          	sw	s9,4(sp)
   1f904:	00050b93          	mv	s7,a0
   1f908:	00058413          	mv	s0,a1
   1f90c:	38069c63          	bnez	a3,1fca4 <__udivdi3+0x3d0>
   1f910:	000254b7          	lui	s1,0x25
   1f914:	00060913          	mv	s2,a2
   1f918:	00050a13          	mv	s4,a0
   1f91c:	33448493          	addi	s1,s1,820 # 25334 <__clz_tab>
   1f920:	12c5f863          	bgeu	a1,a2,1fa50 <__udivdi3+0x17c>
   1f924:	000107b7          	lui	a5,0x10
   1f928:	00058c13          	mv	s8,a1
   1f92c:	10f67863          	bgeu	a2,a5,1fa3c <__udivdi3+0x168>
   1f930:	0ff00713          	li	a4,255
   1f934:	00c73733          	sltu	a4,a4,a2
   1f938:	00371713          	slli	a4,a4,0x3
   1f93c:	00e657b3          	srl	a5,a2,a4
   1f940:	00f484b3          	add	s1,s1,a5
   1f944:	0004c683          	lbu	a3,0(s1)
   1f948:	00e68733          	add	a4,a3,a4
   1f94c:	02000693          	li	a3,32
   1f950:	40e687b3          	sub	a5,a3,a4
   1f954:	00e68c63          	beq	a3,a4,1f96c <__udivdi3+0x98>
   1f958:	00f41433          	sll	s0,s0,a5
   1f95c:	00ebd733          	srl	a4,s7,a4
   1f960:	00f61933          	sll	s2,a2,a5
   1f964:	00876c33          	or	s8,a4,s0
   1f968:	00fb9a33          	sll	s4,s7,a5
   1f96c:	01095b13          	srli	s6,s2,0x10
   1f970:	000b0593          	mv	a1,s6
   1f974:	000c0513          	mv	a0,s8
   1f978:	521040ef          	jal	ra,24698 <__umodsi3>
   1f97c:	00050493          	mv	s1,a0
   1f980:	000b0593          	mv	a1,s6
   1f984:	01091a93          	slli	s5,s2,0x10
   1f988:	000c0513          	mv	a0,s8
   1f98c:	4c5040ef          	jal	ra,24650 <__udivsi3>
   1f990:	010ada93          	srli	s5,s5,0x10
   1f994:	00050413          	mv	s0,a0
   1f998:	00050593          	mv	a1,a0
   1f99c:	000a8513          	mv	a0,s5
   1f9a0:	485040ef          	jal	ra,24624 <__mulsi3>
   1f9a4:	01049493          	slli	s1,s1,0x10
   1f9a8:	010a5713          	srli	a4,s4,0x10
   1f9ac:	00e4e733          	or	a4,s1,a4
   1f9b0:	00040993          	mv	s3,s0
   1f9b4:	00a77e63          	bgeu	a4,a0,1f9d0 <__udivdi3+0xfc>
   1f9b8:	01270733          	add	a4,a4,s2
   1f9bc:	fff40993          	addi	s3,s0,-1
   1f9c0:	01276863          	bltu	a4,s2,1f9d0 <__udivdi3+0xfc>
   1f9c4:	00a77663          	bgeu	a4,a0,1f9d0 <__udivdi3+0xfc>
   1f9c8:	ffe40993          	addi	s3,s0,-2
   1f9cc:	01270733          	add	a4,a4,s2
   1f9d0:	40a70433          	sub	s0,a4,a0
   1f9d4:	000b0593          	mv	a1,s6
   1f9d8:	00040513          	mv	a0,s0
   1f9dc:	4bd040ef          	jal	ra,24698 <__umodsi3>
   1f9e0:	00050493          	mv	s1,a0
   1f9e4:	000b0593          	mv	a1,s6
   1f9e8:	00040513          	mv	a0,s0
   1f9ec:	465040ef          	jal	ra,24650 <__udivsi3>
   1f9f0:	010a1a13          	slli	s4,s4,0x10
   1f9f4:	00050413          	mv	s0,a0
   1f9f8:	00050593          	mv	a1,a0
   1f9fc:	01049493          	slli	s1,s1,0x10
   1fa00:	000a8513          	mv	a0,s5
   1fa04:	010a5a13          	srli	s4,s4,0x10
   1fa08:	41d040ef          	jal	ra,24624 <__mulsi3>
   1fa0c:	0144ea33          	or	s4,s1,s4
   1fa10:	00040613          	mv	a2,s0
   1fa14:	00aa7c63          	bgeu	s4,a0,1fa2c <__udivdi3+0x158>
   1fa18:	01490a33          	add	s4,s2,s4
   1fa1c:	fff40613          	addi	a2,s0,-1
   1fa20:	012a6663          	bltu	s4,s2,1fa2c <__udivdi3+0x158>
   1fa24:	00aa7463          	bgeu	s4,a0,1fa2c <__udivdi3+0x158>
   1fa28:	ffe40613          	addi	a2,s0,-2
   1fa2c:	01099793          	slli	a5,s3,0x10
   1fa30:	00c7e7b3          	or	a5,a5,a2
   1fa34:	00000493          	li	s1,0
   1fa38:	1300006f          	j	1fb68 <__udivdi3+0x294>
   1fa3c:	010007b7          	lui	a5,0x1000
   1fa40:	01000713          	li	a4,16
   1fa44:	eef66ce3          	bltu	a2,a5,1f93c <__udivdi3+0x68>
   1fa48:	01800713          	li	a4,24
   1fa4c:	ef1ff06f          	j	1f93c <__udivdi3+0x68>
   1fa50:	00068993          	mv	s3,a3
   1fa54:	00061a63          	bnez	a2,1fa68 <__udivdi3+0x194>
   1fa58:	00000593          	li	a1,0
   1fa5c:	00100513          	li	a0,1
   1fa60:	3f1040ef          	jal	ra,24650 <__udivsi3>
   1fa64:	00050913          	mv	s2,a0
   1fa68:	000107b7          	lui	a5,0x10
   1fa6c:	12f97c63          	bgeu	s2,a5,1fba4 <__udivdi3+0x2d0>
   1fa70:	0ff00793          	li	a5,255
   1fa74:	0127f463          	bgeu	a5,s2,1fa7c <__udivdi3+0x1a8>
   1fa78:	00800993          	li	s3,8
   1fa7c:	013957b3          	srl	a5,s2,s3
   1fa80:	00f484b3          	add	s1,s1,a5
   1fa84:	0004c783          	lbu	a5,0(s1)
   1fa88:	02000693          	li	a3,32
   1fa8c:	013787b3          	add	a5,a5,s3
   1fa90:	40f68733          	sub	a4,a3,a5
   1fa94:	12f69263          	bne	a3,a5,1fbb8 <__udivdi3+0x2e4>
   1fa98:	41240433          	sub	s0,s0,s2
   1fa9c:	00100493          	li	s1,1
   1faa0:	01095a93          	srli	s5,s2,0x10
   1faa4:	000a8593          	mv	a1,s5
   1faa8:	00040513          	mv	a0,s0
   1faac:	3ed040ef          	jal	ra,24698 <__umodsi3>
   1fab0:	00050993          	mv	s3,a0
   1fab4:	000a8593          	mv	a1,s5
   1fab8:	00040513          	mv	a0,s0
   1fabc:	01091b13          	slli	s6,s2,0x10
   1fac0:	391040ef          	jal	ra,24650 <__udivsi3>
   1fac4:	010b5b13          	srli	s6,s6,0x10
   1fac8:	00050413          	mv	s0,a0
   1facc:	00050593          	mv	a1,a0
   1fad0:	000b0513          	mv	a0,s6
   1fad4:	351040ef          	jal	ra,24624 <__mulsi3>
   1fad8:	01099993          	slli	s3,s3,0x10
   1fadc:	010a5713          	srli	a4,s4,0x10
   1fae0:	00e9e733          	or	a4,s3,a4
   1fae4:	00040b93          	mv	s7,s0
   1fae8:	00a77e63          	bgeu	a4,a0,1fb04 <__udivdi3+0x230>
   1faec:	01270733          	add	a4,a4,s2
   1faf0:	fff40b93          	addi	s7,s0,-1
   1faf4:	01276863          	bltu	a4,s2,1fb04 <__udivdi3+0x230>
   1faf8:	00a77663          	bgeu	a4,a0,1fb04 <__udivdi3+0x230>
   1fafc:	ffe40b93          	addi	s7,s0,-2
   1fb00:	01270733          	add	a4,a4,s2
   1fb04:	40a70433          	sub	s0,a4,a0
   1fb08:	000a8593          	mv	a1,s5
   1fb0c:	00040513          	mv	a0,s0
   1fb10:	389040ef          	jal	ra,24698 <__umodsi3>
   1fb14:	00050993          	mv	s3,a0
   1fb18:	000a8593          	mv	a1,s5
   1fb1c:	00040513          	mv	a0,s0
   1fb20:	331040ef          	jal	ra,24650 <__udivsi3>
   1fb24:	010a1a13          	slli	s4,s4,0x10
   1fb28:	00050413          	mv	s0,a0
   1fb2c:	00050593          	mv	a1,a0
   1fb30:	01099993          	slli	s3,s3,0x10
   1fb34:	000b0513          	mv	a0,s6
   1fb38:	010a5a13          	srli	s4,s4,0x10
   1fb3c:	2e9040ef          	jal	ra,24624 <__mulsi3>
   1fb40:	0149ea33          	or	s4,s3,s4
   1fb44:	00040613          	mv	a2,s0
   1fb48:	00aa7c63          	bgeu	s4,a0,1fb60 <__udivdi3+0x28c>
   1fb4c:	01490a33          	add	s4,s2,s4
   1fb50:	fff40613          	addi	a2,s0,-1
   1fb54:	012a6663          	bltu	s4,s2,1fb60 <__udivdi3+0x28c>
   1fb58:	00aa7463          	bgeu	s4,a0,1fb60 <__udivdi3+0x28c>
   1fb5c:	ffe40613          	addi	a2,s0,-2
   1fb60:	010b9793          	slli	a5,s7,0x10
   1fb64:	00c7e7b3          	or	a5,a5,a2
   1fb68:	00078513          	mv	a0,a5
   1fb6c:	00048593          	mv	a1,s1
   1fb70:	02c12083          	lw	ra,44(sp)
   1fb74:	02812403          	lw	s0,40(sp)
   1fb78:	02412483          	lw	s1,36(sp)
   1fb7c:	02012903          	lw	s2,32(sp)
   1fb80:	01c12983          	lw	s3,28(sp)
   1fb84:	01812a03          	lw	s4,24(sp)
   1fb88:	01412a83          	lw	s5,20(sp)
   1fb8c:	01012b03          	lw	s6,16(sp)
   1fb90:	00c12b83          	lw	s7,12(sp)
   1fb94:	00812c03          	lw	s8,8(sp)
   1fb98:	00412c83          	lw	s9,4(sp)
   1fb9c:	03010113          	addi	sp,sp,48
   1fba0:	00008067          	ret
   1fba4:	010007b7          	lui	a5,0x1000
   1fba8:	01000993          	li	s3,16
   1fbac:	ecf968e3          	bltu	s2,a5,1fa7c <__udivdi3+0x1a8>
   1fbb0:	01800993          	li	s3,24
   1fbb4:	ec9ff06f          	j	1fa7c <__udivdi3+0x1a8>
   1fbb8:	00e91933          	sll	s2,s2,a4
   1fbbc:	00f459b3          	srl	s3,s0,a5
   1fbc0:	00fbd7b3          	srl	a5,s7,a5
   1fbc4:	00e41433          	sll	s0,s0,a4
   1fbc8:	0087eab3          	or	s5,a5,s0
   1fbcc:	01095413          	srli	s0,s2,0x10
   1fbd0:	00040593          	mv	a1,s0
   1fbd4:	00098513          	mv	a0,s3
   1fbd8:	00eb9a33          	sll	s4,s7,a4
   1fbdc:	2bd040ef          	jal	ra,24698 <__umodsi3>
   1fbe0:	00050493          	mv	s1,a0
   1fbe4:	00040593          	mv	a1,s0
   1fbe8:	00098513          	mv	a0,s3
   1fbec:	01091b13          	slli	s6,s2,0x10
   1fbf0:	261040ef          	jal	ra,24650 <__udivsi3>
   1fbf4:	010b5b13          	srli	s6,s6,0x10
   1fbf8:	00050993          	mv	s3,a0
   1fbfc:	00050593          	mv	a1,a0
   1fc00:	000b0513          	mv	a0,s6
   1fc04:	221040ef          	jal	ra,24624 <__mulsi3>
   1fc08:	01049493          	slli	s1,s1,0x10
   1fc0c:	010ad793          	srli	a5,s5,0x10
   1fc10:	00f4e7b3          	or	a5,s1,a5
   1fc14:	00098b93          	mv	s7,s3
   1fc18:	00a7fe63          	bgeu	a5,a0,1fc34 <__udivdi3+0x360>
   1fc1c:	012787b3          	add	a5,a5,s2
   1fc20:	fff98b93          	addi	s7,s3,-1
   1fc24:	0127e863          	bltu	a5,s2,1fc34 <__udivdi3+0x360>
   1fc28:	00a7f663          	bgeu	a5,a0,1fc34 <__udivdi3+0x360>
   1fc2c:	ffe98b93          	addi	s7,s3,-2
   1fc30:	012787b3          	add	a5,a5,s2
   1fc34:	40a789b3          	sub	s3,a5,a0
   1fc38:	00040593          	mv	a1,s0
   1fc3c:	00098513          	mv	a0,s3
   1fc40:	259040ef          	jal	ra,24698 <__umodsi3>
   1fc44:	00040593          	mv	a1,s0
   1fc48:	00050493          	mv	s1,a0
   1fc4c:	00098513          	mv	a0,s3
   1fc50:	201040ef          	jal	ra,24650 <__udivsi3>
   1fc54:	010a9413          	slli	s0,s5,0x10
   1fc58:	00050993          	mv	s3,a0
   1fc5c:	00050593          	mv	a1,a0
   1fc60:	01049493          	slli	s1,s1,0x10
   1fc64:	000b0513          	mv	a0,s6
   1fc68:	01045413          	srli	s0,s0,0x10
   1fc6c:	1b9040ef          	jal	ra,24624 <__mulsi3>
   1fc70:	0084e433          	or	s0,s1,s0
   1fc74:	00098793          	mv	a5,s3
   1fc78:	00a47e63          	bgeu	s0,a0,1fc94 <__udivdi3+0x3c0>
   1fc7c:	01240433          	add	s0,s0,s2
   1fc80:	fff98793          	addi	a5,s3,-1
   1fc84:	01246863          	bltu	s0,s2,1fc94 <__udivdi3+0x3c0>
   1fc88:	00a47663          	bgeu	s0,a0,1fc94 <__udivdi3+0x3c0>
   1fc8c:	ffe98793          	addi	a5,s3,-2
   1fc90:	01240433          	add	s0,s0,s2
   1fc94:	010b9493          	slli	s1,s7,0x10
   1fc98:	40a40433          	sub	s0,s0,a0
   1fc9c:	00f4e4b3          	or	s1,s1,a5
   1fca0:	e01ff06f          	j	1faa0 <__udivdi3+0x1cc>
   1fca4:	1ed5ee63          	bltu	a1,a3,1fea0 <__udivdi3+0x5cc>
   1fca8:	000107b7          	lui	a5,0x10
   1fcac:	04f6f463          	bgeu	a3,a5,1fcf4 <__udivdi3+0x420>
   1fcb0:	0ff00a93          	li	s5,255
   1fcb4:	00dab733          	sltu	a4,s5,a3
   1fcb8:	00371713          	slli	a4,a4,0x3
   1fcbc:	000257b7          	lui	a5,0x25
   1fcc0:	00e6d5b3          	srl	a1,a3,a4
   1fcc4:	33478793          	addi	a5,a5,820 # 25334 <__clz_tab>
   1fcc8:	00b787b3          	add	a5,a5,a1
   1fccc:	0007ca83          	lbu	s5,0(a5)
   1fcd0:	02000793          	li	a5,32
   1fcd4:	00ea8ab3          	add	s5,s5,a4
   1fcd8:	415784b3          	sub	s1,a5,s5
   1fcdc:	03579663          	bne	a5,s5,1fd08 <__udivdi3+0x434>
   1fce0:	00100793          	li	a5,1
   1fce4:	e886e2e3          	bltu	a3,s0,1fb68 <__udivdi3+0x294>
   1fce8:	00cbb7b3          	sltu	a5,s7,a2
   1fcec:	0017c793          	xori	a5,a5,1
   1fcf0:	e79ff06f          	j	1fb68 <__udivdi3+0x294>
   1fcf4:	010007b7          	lui	a5,0x1000
   1fcf8:	01000713          	li	a4,16
   1fcfc:	fcf6e0e3          	bltu	a3,a5,1fcbc <__udivdi3+0x3e8>
   1fd00:	01800713          	li	a4,24
   1fd04:	fb9ff06f          	j	1fcbc <__udivdi3+0x3e8>
   1fd08:	01565cb3          	srl	s9,a2,s5
   1fd0c:	009696b3          	sll	a3,a3,s1
   1fd10:	00dcecb3          	or	s9,s9,a3
   1fd14:	015459b3          	srl	s3,s0,s5
   1fd18:	00941433          	sll	s0,s0,s1
   1fd1c:	015bdab3          	srl	s5,s7,s5
   1fd20:	008aeab3          	or	s5,s5,s0
   1fd24:	010cd413          	srli	s0,s9,0x10
   1fd28:	00040593          	mv	a1,s0
   1fd2c:	00098513          	mv	a0,s3
   1fd30:	00961933          	sll	s2,a2,s1
   1fd34:	165040ef          	jal	ra,24698 <__umodsi3>
   1fd38:	00050a13          	mv	s4,a0
   1fd3c:	00040593          	mv	a1,s0
   1fd40:	00098513          	mv	a0,s3
   1fd44:	010c9b13          	slli	s6,s9,0x10
   1fd48:	109040ef          	jal	ra,24650 <__udivsi3>
   1fd4c:	010b5b13          	srli	s6,s6,0x10
   1fd50:	00050993          	mv	s3,a0
   1fd54:	00050593          	mv	a1,a0
   1fd58:	000b0513          	mv	a0,s6
   1fd5c:	0c9040ef          	jal	ra,24624 <__mulsi3>
   1fd60:	010a1a13          	slli	s4,s4,0x10
   1fd64:	010ad713          	srli	a4,s5,0x10
   1fd68:	00ea6733          	or	a4,s4,a4
   1fd6c:	00098c13          	mv	s8,s3
   1fd70:	00a77e63          	bgeu	a4,a0,1fd8c <__udivdi3+0x4b8>
   1fd74:	01970733          	add	a4,a4,s9
   1fd78:	fff98c13          	addi	s8,s3,-1
   1fd7c:	01976863          	bltu	a4,s9,1fd8c <__udivdi3+0x4b8>
   1fd80:	00a77663          	bgeu	a4,a0,1fd8c <__udivdi3+0x4b8>
   1fd84:	ffe98c13          	addi	s8,s3,-2
   1fd88:	01970733          	add	a4,a4,s9
   1fd8c:	40a709b3          	sub	s3,a4,a0
   1fd90:	00040593          	mv	a1,s0
   1fd94:	00098513          	mv	a0,s3
   1fd98:	101040ef          	jal	ra,24698 <__umodsi3>
   1fd9c:	00040593          	mv	a1,s0
   1fda0:	00050a13          	mv	s4,a0
   1fda4:	00098513          	mv	a0,s3
   1fda8:	0a9040ef          	jal	ra,24650 <__udivsi3>
   1fdac:	010a9413          	slli	s0,s5,0x10
   1fdb0:	00050993          	mv	s3,a0
   1fdb4:	00050593          	mv	a1,a0
   1fdb8:	010a1a13          	slli	s4,s4,0x10
   1fdbc:	000b0513          	mv	a0,s6
   1fdc0:	01045413          	srli	s0,s0,0x10
   1fdc4:	061040ef          	jal	ra,24624 <__mulsi3>
   1fdc8:	008a6433          	or	s0,s4,s0
   1fdcc:	00098613          	mv	a2,s3
   1fdd0:	00a47e63          	bgeu	s0,a0,1fdec <__udivdi3+0x518>
   1fdd4:	01940433          	add	s0,s0,s9
   1fdd8:	fff98613          	addi	a2,s3,-1
   1fddc:	01946863          	bltu	s0,s9,1fdec <__udivdi3+0x518>
   1fde0:	00a47663          	bgeu	s0,a0,1fdec <__udivdi3+0x518>
   1fde4:	ffe98613          	addi	a2,s3,-2
   1fde8:	01940433          	add	s0,s0,s9
   1fdec:	010c1793          	slli	a5,s8,0x10
   1fdf0:	00010e37          	lui	t3,0x10
   1fdf4:	00c7e7b3          	or	a5,a5,a2
   1fdf8:	fffe0313          	addi	t1,t3,-1 # ffff <register_fini-0x75>
   1fdfc:	0067f8b3          	and	a7,a5,t1
   1fe00:	00697333          	and	t1,s2,t1
   1fe04:	40a40433          	sub	s0,s0,a0
   1fe08:	0107de93          	srli	t4,a5,0x10
   1fe0c:	01095913          	srli	s2,s2,0x10
   1fe10:	00088513          	mv	a0,a7
   1fe14:	00030593          	mv	a1,t1
   1fe18:	00d040ef          	jal	ra,24624 <__mulsi3>
   1fe1c:	00050813          	mv	a6,a0
   1fe20:	00090593          	mv	a1,s2
   1fe24:	00088513          	mv	a0,a7
   1fe28:	7fc040ef          	jal	ra,24624 <__mulsi3>
   1fe2c:	00050893          	mv	a7,a0
   1fe30:	00030593          	mv	a1,t1
   1fe34:	000e8513          	mv	a0,t4
   1fe38:	7ec040ef          	jal	ra,24624 <__mulsi3>
   1fe3c:	00050313          	mv	t1,a0
   1fe40:	00090593          	mv	a1,s2
   1fe44:	000e8513          	mv	a0,t4
   1fe48:	7dc040ef          	jal	ra,24624 <__mulsi3>
   1fe4c:	01085713          	srli	a4,a6,0x10
   1fe50:	006888b3          	add	a7,a7,t1
   1fe54:	01170733          	add	a4,a4,a7
   1fe58:	00050693          	mv	a3,a0
   1fe5c:	00677463          	bgeu	a4,t1,1fe64 <__udivdi3+0x590>
   1fe60:	01c506b3          	add	a3,a0,t3
   1fe64:	01075513          	srli	a0,a4,0x10
   1fe68:	00d506b3          	add	a3,a0,a3
   1fe6c:	02d46663          	bltu	s0,a3,1fe98 <__udivdi3+0x5c4>
   1fe70:	bcd412e3          	bne	s0,a3,1fa34 <__udivdi3+0x160>
   1fe74:	00010537          	lui	a0,0x10
   1fe78:	fff50513          	addi	a0,a0,-1 # ffff <register_fini-0x75>
   1fe7c:	00a77733          	and	a4,a4,a0
   1fe80:	01071713          	slli	a4,a4,0x10
   1fe84:	00a87833          	and	a6,a6,a0
   1fe88:	009b9bb3          	sll	s7,s7,s1
   1fe8c:	01070733          	add	a4,a4,a6
   1fe90:	00000493          	li	s1,0
   1fe94:	ccebfae3          	bgeu	s7,a4,1fb68 <__udivdi3+0x294>
   1fe98:	fff78793          	addi	a5,a5,-1 # ffffff <__BSS_END__+0xfd90d3>
   1fe9c:	b99ff06f          	j	1fa34 <__udivdi3+0x160>
   1fea0:	00000493          	li	s1,0
   1fea4:	00000793          	li	a5,0
   1fea8:	cc1ff06f          	j	1fb68 <__udivdi3+0x294>

0001feac <__umoddi3>:
   1feac:	fd010113          	addi	sp,sp,-48
   1feb0:	02812423          	sw	s0,40(sp)
   1feb4:	02912223          	sw	s1,36(sp)
   1feb8:	03212023          	sw	s2,32(sp)
   1febc:	01612823          	sw	s6,16(sp)
   1fec0:	02112623          	sw	ra,44(sp)
   1fec4:	01312e23          	sw	s3,28(sp)
   1fec8:	01412c23          	sw	s4,24(sp)
   1fecc:	01512a23          	sw	s5,20(sp)
   1fed0:	01712623          	sw	s7,12(sp)
   1fed4:	01812423          	sw	s8,8(sp)
   1fed8:	01912223          	sw	s9,4(sp)
   1fedc:	01a12023          	sw	s10,0(sp)
   1fee0:	00050913          	mv	s2,a0
   1fee4:	00058b13          	mv	s6,a1
   1fee8:	00050413          	mv	s0,a0
   1feec:	00058493          	mv	s1,a1
   1fef0:	26069c63          	bnez	a3,20168 <__umoddi3+0x2bc>
   1fef4:	00025ab7          	lui	s5,0x25
   1fef8:	00060a13          	mv	s4,a2
   1fefc:	00068993          	mv	s3,a3
   1ff00:	334a8a93          	addi	s5,s5,820 # 25334 <__clz_tab>
   1ff04:	14c5f263          	bgeu	a1,a2,20048 <__umoddi3+0x19c>
   1ff08:	000107b7          	lui	a5,0x10
   1ff0c:	12f67463          	bgeu	a2,a5,20034 <__umoddi3+0x188>
   1ff10:	0ff00793          	li	a5,255
   1ff14:	00c7f463          	bgeu	a5,a2,1ff1c <__umoddi3+0x70>
   1ff18:	00800993          	li	s3,8
   1ff1c:	013657b3          	srl	a5,a2,s3
   1ff20:	00fa8ab3          	add	s5,s5,a5
   1ff24:	000ac783          	lbu	a5,0(s5)
   1ff28:	02000713          	li	a4,32
   1ff2c:	013787b3          	add	a5,a5,s3
   1ff30:	40f709b3          	sub	s3,a4,a5
   1ff34:	00f70c63          	beq	a4,a5,1ff4c <__umoddi3+0xa0>
   1ff38:	013b15b3          	sll	a1,s6,s3
   1ff3c:	00f957b3          	srl	a5,s2,a5
   1ff40:	01361a33          	sll	s4,a2,s3
   1ff44:	00b7e4b3          	or	s1,a5,a1
   1ff48:	01391433          	sll	s0,s2,s3
   1ff4c:	010a5a93          	srli	s5,s4,0x10
   1ff50:	000a8593          	mv	a1,s5
   1ff54:	00048513          	mv	a0,s1
   1ff58:	740040ef          	jal	ra,24698 <__umodsi3>
   1ff5c:	00050913          	mv	s2,a0
   1ff60:	000a8593          	mv	a1,s5
   1ff64:	010a1b13          	slli	s6,s4,0x10
   1ff68:	00048513          	mv	a0,s1
   1ff6c:	6e4040ef          	jal	ra,24650 <__udivsi3>
   1ff70:	010b5b13          	srli	s6,s6,0x10
   1ff74:	00050593          	mv	a1,a0
   1ff78:	000b0513          	mv	a0,s6
   1ff7c:	6a8040ef          	jal	ra,24624 <__mulsi3>
   1ff80:	01091913          	slli	s2,s2,0x10
   1ff84:	01045793          	srli	a5,s0,0x10
   1ff88:	00f967b3          	or	a5,s2,a5
   1ff8c:	00a7fa63          	bgeu	a5,a0,1ffa0 <__umoddi3+0xf4>
   1ff90:	014787b3          	add	a5,a5,s4
   1ff94:	0147e663          	bltu	a5,s4,1ffa0 <__umoddi3+0xf4>
   1ff98:	00a7f463          	bgeu	a5,a0,1ffa0 <__umoddi3+0xf4>
   1ff9c:	014787b3          	add	a5,a5,s4
   1ffa0:	40a784b3          	sub	s1,a5,a0
   1ffa4:	000a8593          	mv	a1,s5
   1ffa8:	00048513          	mv	a0,s1
   1ffac:	6ec040ef          	jal	ra,24698 <__umodsi3>
   1ffb0:	00050913          	mv	s2,a0
   1ffb4:	000a8593          	mv	a1,s5
   1ffb8:	00048513          	mv	a0,s1
   1ffbc:	694040ef          	jal	ra,24650 <__udivsi3>
   1ffc0:	01041413          	slli	s0,s0,0x10
   1ffc4:	00050593          	mv	a1,a0
   1ffc8:	01091913          	slli	s2,s2,0x10
   1ffcc:	000b0513          	mv	a0,s6
   1ffd0:	01045413          	srli	s0,s0,0x10
   1ffd4:	650040ef          	jal	ra,24624 <__mulsi3>
   1ffd8:	00896433          	or	s0,s2,s0
   1ffdc:	00a47a63          	bgeu	s0,a0,1fff0 <__umoddi3+0x144>
   1ffe0:	01440433          	add	s0,s0,s4
   1ffe4:	01446663          	bltu	s0,s4,1fff0 <__umoddi3+0x144>
   1ffe8:	00a47463          	bgeu	s0,a0,1fff0 <__umoddi3+0x144>
   1ffec:	01440433          	add	s0,s0,s4
   1fff0:	40a40433          	sub	s0,s0,a0
   1fff4:	01345533          	srl	a0,s0,s3
   1fff8:	00000593          	li	a1,0
   1fffc:	02c12083          	lw	ra,44(sp)
   20000:	02812403          	lw	s0,40(sp)
   20004:	02412483          	lw	s1,36(sp)
   20008:	02012903          	lw	s2,32(sp)
   2000c:	01c12983          	lw	s3,28(sp)
   20010:	01812a03          	lw	s4,24(sp)
   20014:	01412a83          	lw	s5,20(sp)
   20018:	01012b03          	lw	s6,16(sp)
   2001c:	00c12b83          	lw	s7,12(sp)
   20020:	00812c03          	lw	s8,8(sp)
   20024:	00412c83          	lw	s9,4(sp)
   20028:	00012d03          	lw	s10,0(sp)
   2002c:	03010113          	addi	sp,sp,48
   20030:	00008067          	ret
   20034:	010007b7          	lui	a5,0x1000
   20038:	01000993          	li	s3,16
   2003c:	eef660e3          	bltu	a2,a5,1ff1c <__umoddi3+0x70>
   20040:	01800993          	li	s3,24
   20044:	ed9ff06f          	j	1ff1c <__umoddi3+0x70>
   20048:	00061a63          	bnez	a2,2005c <__umoddi3+0x1b0>
   2004c:	00000593          	li	a1,0
   20050:	00100513          	li	a0,1
   20054:	5fc040ef          	jal	ra,24650 <__udivsi3>
   20058:	00050a13          	mv	s4,a0
   2005c:	000107b7          	lui	a5,0x10
   20060:	0efa7a63          	bgeu	s4,a5,20154 <__umoddi3+0x2a8>
   20064:	0ff00793          	li	a5,255
   20068:	0147f463          	bgeu	a5,s4,20070 <__umoddi3+0x1c4>
   2006c:	00800993          	li	s3,8
   20070:	013a57b3          	srl	a5,s4,s3
   20074:	00fa8ab3          	add	s5,s5,a5
   20078:	000ac783          	lbu	a5,0(s5)
   2007c:	02000713          	li	a4,32
   20080:	414b04b3          	sub	s1,s6,s4
   20084:	013787b3          	add	a5,a5,s3
   20088:	40f709b3          	sub	s3,a4,a5
   2008c:	ecf700e3          	beq	a4,a5,1ff4c <__umoddi3+0xa0>
   20090:	013a1a33          	sll	s4,s4,s3
   20094:	00fb5ab3          	srl	s5,s6,a5
   20098:	013b15b3          	sll	a1,s6,s3
   2009c:	00f957b3          	srl	a5,s2,a5
   200a0:	010a5493          	srli	s1,s4,0x10
   200a4:	00b7eb33          	or	s6,a5,a1
   200a8:	000a8513          	mv	a0,s5
   200ac:	00048593          	mv	a1,s1
   200b0:	5e8040ef          	jal	ra,24698 <__umodsi3>
   200b4:	00048593          	mv	a1,s1
   200b8:	01391433          	sll	s0,s2,s3
   200bc:	010a1b93          	slli	s7,s4,0x10
   200c0:	00050913          	mv	s2,a0
   200c4:	000a8513          	mv	a0,s5
   200c8:	588040ef          	jal	ra,24650 <__udivsi3>
   200cc:	010bdb93          	srli	s7,s7,0x10
   200d0:	00050593          	mv	a1,a0
   200d4:	000b8513          	mv	a0,s7
   200d8:	54c040ef          	jal	ra,24624 <__mulsi3>
   200dc:	01091913          	slli	s2,s2,0x10
   200e0:	010b5793          	srli	a5,s6,0x10
   200e4:	00f967b3          	or	a5,s2,a5
   200e8:	00a7fa63          	bgeu	a5,a0,200fc <__umoddi3+0x250>
   200ec:	014787b3          	add	a5,a5,s4
   200f0:	0147e663          	bltu	a5,s4,200fc <__umoddi3+0x250>
   200f4:	00a7f463          	bgeu	a5,a0,200fc <__umoddi3+0x250>
   200f8:	014787b3          	add	a5,a5,s4
   200fc:	40a78ab3          	sub	s5,a5,a0
   20100:	00048593          	mv	a1,s1
   20104:	000a8513          	mv	a0,s5
   20108:	590040ef          	jal	ra,24698 <__umodsi3>
   2010c:	00050913          	mv	s2,a0
   20110:	00048593          	mv	a1,s1
   20114:	000a8513          	mv	a0,s5
   20118:	538040ef          	jal	ra,24650 <__udivsi3>
   2011c:	00050593          	mv	a1,a0
   20120:	000b8513          	mv	a0,s7
   20124:	500040ef          	jal	ra,24624 <__mulsi3>
   20128:	010b1593          	slli	a1,s6,0x10
   2012c:	01091913          	slli	s2,s2,0x10
   20130:	0105d593          	srli	a1,a1,0x10
   20134:	00b965b3          	or	a1,s2,a1
   20138:	00a5fa63          	bgeu	a1,a0,2014c <__umoddi3+0x2a0>
   2013c:	014585b3          	add	a1,a1,s4
   20140:	0145e663          	bltu	a1,s4,2014c <__umoddi3+0x2a0>
   20144:	00a5f463          	bgeu	a1,a0,2014c <__umoddi3+0x2a0>
   20148:	014585b3          	add	a1,a1,s4
   2014c:	40a584b3          	sub	s1,a1,a0
   20150:	dfdff06f          	j	1ff4c <__umoddi3+0xa0>
   20154:	010007b7          	lui	a5,0x1000
   20158:	01000993          	li	s3,16
   2015c:	f0fa6ae3          	bltu	s4,a5,20070 <__umoddi3+0x1c4>
   20160:	01800993          	li	s3,24
   20164:	f0dff06f          	j	20070 <__umoddi3+0x1c4>
   20168:	e8d5eae3          	bltu	a1,a3,1fffc <__umoddi3+0x150>
   2016c:	000107b7          	lui	a5,0x10
   20170:	04f6fc63          	bgeu	a3,a5,201c8 <__umoddi3+0x31c>
   20174:	0ff00a93          	li	s5,255
   20178:	00dab533          	sltu	a0,s5,a3
   2017c:	00351513          	slli	a0,a0,0x3
   20180:	000257b7          	lui	a5,0x25
   20184:	00a6d733          	srl	a4,a3,a0
   20188:	33478793          	addi	a5,a5,820 # 25334 <__clz_tab>
   2018c:	00e787b3          	add	a5,a5,a4
   20190:	0007ca83          	lbu	s5,0(a5)
   20194:	02000793          	li	a5,32
   20198:	00aa8ab3          	add	s5,s5,a0
   2019c:	41578a33          	sub	s4,a5,s5
   201a0:	03579e63          	bne	a5,s5,201dc <__umoddi3+0x330>
   201a4:	0166e463          	bltu	a3,s6,201ac <__umoddi3+0x300>
   201a8:	00c96a63          	bltu	s2,a2,201bc <__umoddi3+0x310>
   201ac:	40c90433          	sub	s0,s2,a2
   201b0:	40db05b3          	sub	a1,s6,a3
   201b4:	008934b3          	sltu	s1,s2,s0
   201b8:	409584b3          	sub	s1,a1,s1
   201bc:	00040513          	mv	a0,s0
   201c0:	00048593          	mv	a1,s1
   201c4:	e39ff06f          	j	1fffc <__umoddi3+0x150>
   201c8:	010007b7          	lui	a5,0x1000
   201cc:	01000513          	li	a0,16
   201d0:	faf6e8e3          	bltu	a3,a5,20180 <__umoddi3+0x2d4>
   201d4:	01800513          	li	a0,24
   201d8:	fa9ff06f          	j	20180 <__umoddi3+0x2d4>
   201dc:	014696b3          	sll	a3,a3,s4
   201e0:	015657b3          	srl	a5,a2,s5
   201e4:	00d7ecb3          	or	s9,a5,a3
   201e8:	015b5433          	srl	s0,s6,s5
   201ec:	014b15b3          	sll	a1,s6,s4
   201f0:	010cdb93          	srli	s7,s9,0x10
   201f4:	01595b33          	srl	s6,s2,s5
   201f8:	00bb6b33          	or	s6,s6,a1
   201fc:	00040513          	mv	a0,s0
   20200:	000b8593          	mv	a1,s7
   20204:	01461d33          	sll	s10,a2,s4
   20208:	490040ef          	jal	ra,24698 <__umodsi3>
   2020c:	00050993          	mv	s3,a0
   20210:	000b8593          	mv	a1,s7
   20214:	00040513          	mv	a0,s0
   20218:	010c9c13          	slli	s8,s9,0x10
   2021c:	434040ef          	jal	ra,24650 <__udivsi3>
   20220:	010c5c13          	srli	s8,s8,0x10
   20224:	00050593          	mv	a1,a0
   20228:	014914b3          	sll	s1,s2,s4
   2022c:	00050913          	mv	s2,a0
   20230:	000c0513          	mv	a0,s8
   20234:	3f0040ef          	jal	ra,24624 <__mulsi3>
   20238:	01099993          	slli	s3,s3,0x10
   2023c:	010b5713          	srli	a4,s6,0x10
   20240:	00e9e733          	or	a4,s3,a4
   20244:	00090413          	mv	s0,s2
   20248:	00a77e63          	bgeu	a4,a0,20264 <__umoddi3+0x3b8>
   2024c:	01970733          	add	a4,a4,s9
   20250:	fff90413          	addi	s0,s2,-1
   20254:	01976863          	bltu	a4,s9,20264 <__umoddi3+0x3b8>
   20258:	00a77663          	bgeu	a4,a0,20264 <__umoddi3+0x3b8>
   2025c:	ffe90413          	addi	s0,s2,-2
   20260:	01970733          	add	a4,a4,s9
   20264:	40a70933          	sub	s2,a4,a0
   20268:	000b8593          	mv	a1,s7
   2026c:	00090513          	mv	a0,s2
   20270:	428040ef          	jal	ra,24698 <__umodsi3>
   20274:	00050993          	mv	s3,a0
   20278:	000b8593          	mv	a1,s7
   2027c:	00090513          	mv	a0,s2
   20280:	3d0040ef          	jal	ra,24650 <__udivsi3>
   20284:	00050913          	mv	s2,a0
   20288:	00050593          	mv	a1,a0
   2028c:	000c0513          	mv	a0,s8
   20290:	394040ef          	jal	ra,24624 <__mulsi3>
   20294:	010b1713          	slli	a4,s6,0x10
   20298:	01099993          	slli	s3,s3,0x10
   2029c:	01075713          	srli	a4,a4,0x10
   202a0:	00e9e733          	or	a4,s3,a4
   202a4:	00090793          	mv	a5,s2
   202a8:	00a77e63          	bgeu	a4,a0,202c4 <__umoddi3+0x418>
   202ac:	01970733          	add	a4,a4,s9
   202b0:	fff90793          	addi	a5,s2,-1
   202b4:	01976863          	bltu	a4,s9,202c4 <__umoddi3+0x418>
   202b8:	00a77663          	bgeu	a4,a0,202c4 <__umoddi3+0x418>
   202bc:	ffe90793          	addi	a5,s2,-2
   202c0:	01970733          	add	a4,a4,s9
   202c4:	00010eb7          	lui	t4,0x10
   202c8:	01041413          	slli	s0,s0,0x10
   202cc:	40a70833          	sub	a6,a4,a0
   202d0:	00f46433          	or	s0,s0,a5
   202d4:	fffe8713          	addi	a4,t4,-1 # ffff <register_fini-0x75>
   202d8:	00e478b3          	and	a7,s0,a4
   202dc:	00ed7733          	and	a4,s10,a4
   202e0:	01045413          	srli	s0,s0,0x10
   202e4:	010d5e13          	srli	t3,s10,0x10
   202e8:	00088513          	mv	a0,a7
   202ec:	00070593          	mv	a1,a4
   202f0:	334040ef          	jal	ra,24624 <__mulsi3>
   202f4:	00050793          	mv	a5,a0
   202f8:	000e0593          	mv	a1,t3
   202fc:	00088513          	mv	a0,a7
   20300:	324040ef          	jal	ra,24624 <__mulsi3>
   20304:	00050893          	mv	a7,a0
   20308:	00070593          	mv	a1,a4
   2030c:	00040513          	mv	a0,s0
   20310:	314040ef          	jal	ra,24624 <__mulsi3>
   20314:	00050313          	mv	t1,a0
   20318:	000e0593          	mv	a1,t3
   2031c:	00040513          	mv	a0,s0
   20320:	304040ef          	jal	ra,24624 <__mulsi3>
   20324:	0107d713          	srli	a4,a5,0x10
   20328:	006888b3          	add	a7,a7,t1
   2032c:	01170733          	add	a4,a4,a7
   20330:	00677463          	bgeu	a4,t1,20338 <__umoddi3+0x48c>
   20334:	01d50533          	add	a0,a0,t4
   20338:	01075593          	srli	a1,a4,0x10
   2033c:	00a585b3          	add	a1,a1,a0
   20340:	00010537          	lui	a0,0x10
   20344:	fff50513          	addi	a0,a0,-1 # ffff <register_fini-0x75>
   20348:	00a77733          	and	a4,a4,a0
   2034c:	01071713          	slli	a4,a4,0x10
   20350:	00a7f7b3          	and	a5,a5,a0
   20354:	00f707b3          	add	a5,a4,a5
   20358:	00b86663          	bltu	a6,a1,20364 <__umoddi3+0x4b8>
   2035c:	00b81e63          	bne	a6,a1,20378 <__umoddi3+0x4cc>
   20360:	00f4fc63          	bgeu	s1,a5,20378 <__umoddi3+0x4cc>
   20364:	41a78633          	sub	a2,a5,s10
   20368:	00c7b7b3          	sltu	a5,a5,a2
   2036c:	019787b3          	add	a5,a5,s9
   20370:	40f585b3          	sub	a1,a1,a5
   20374:	00060793          	mv	a5,a2
   20378:	40f487b3          	sub	a5,s1,a5
   2037c:	00f4b4b3          	sltu	s1,s1,a5
   20380:	40b805b3          	sub	a1,a6,a1
   20384:	409585b3          	sub	a1,a1,s1
   20388:	01559433          	sll	s0,a1,s5
   2038c:	0147d7b3          	srl	a5,a5,s4
   20390:	00f46533          	or	a0,s0,a5
   20394:	0145d5b3          	srl	a1,a1,s4
   20398:	c65ff06f          	j	1fffc <__umoddi3+0x150>

0002039c <__divdf3>:
   2039c:	fb010113          	addi	sp,sp,-80
   203a0:	0145d793          	srli	a5,a1,0x14
   203a4:	04912223          	sw	s1,68(sp)
   203a8:	03312e23          	sw	s3,60(sp)
   203ac:	03412c23          	sw	s4,56(sp)
   203b0:	03512a23          	sw	s5,52(sp)
   203b4:	03612823          	sw	s6,48(sp)
   203b8:	00c59493          	slli	s1,a1,0xc
   203bc:	04112623          	sw	ra,76(sp)
   203c0:	04812423          	sw	s0,72(sp)
   203c4:	05212023          	sw	s2,64(sp)
   203c8:	03712623          	sw	s7,44(sp)
   203cc:	03812423          	sw	s8,40(sp)
   203d0:	03912223          	sw	s9,36(sp)
   203d4:	03a12023          	sw	s10,32(sp)
   203d8:	01b12e23          	sw	s11,28(sp)
   203dc:	01579713          	slli	a4,a5,0x15
   203e0:	00050993          	mv	s3,a0
   203e4:	00060a13          	mv	s4,a2
   203e8:	00068b13          	mv	s6,a3
   203ec:	00c4d493          	srli	s1,s1,0xc
   203f0:	01f5da93          	srli	s5,a1,0x1f
   203f4:	0a070463          	beqz	a4,2049c <__divdf3+0x100>
   203f8:	7ff7f913          	andi	s2,a5,2047
   203fc:	7ff00793          	li	a5,2047
   20400:	10f90063          	beq	s2,a5,20500 <__divdf3+0x164>
   20404:	01d55c93          	srli	s9,a0,0x1d
   20408:	00349493          	slli	s1,s1,0x3
   2040c:	009ce4b3          	or	s1,s9,s1
   20410:	00800cb7          	lui	s9,0x800
   20414:	0194ecb3          	or	s9,s1,s9
   20418:	00351413          	slli	s0,a0,0x3
   2041c:	c0190913          	addi	s2,s2,-1023
   20420:	00000c13          	li	s8,0
   20424:	014b5793          	srli	a5,s6,0x14
   20428:	00cb1593          	slli	a1,s6,0xc
   2042c:	01579713          	slli	a4,a5,0x15
   20430:	00c5d993          	srli	s3,a1,0xc
   20434:	7ff7f513          	andi	a0,a5,2047
   20438:	01fb5b13          	srli	s6,s6,0x1f
   2043c:	10070063          	beqz	a4,2053c <__divdf3+0x1a0>
   20440:	7ff00793          	li	a5,2047
   20444:	16f50063          	beq	a0,a5,205a4 <__divdf3+0x208>
   20448:	00399593          	slli	a1,s3,0x3
   2044c:	01da5793          	srli	a5,s4,0x1d
   20450:	00b7e5b3          	or	a1,a5,a1
   20454:	008009b7          	lui	s3,0x800
   20458:	0135e9b3          	or	s3,a1,s3
   2045c:	003a1813          	slli	a6,s4,0x3
   20460:	c0150513          	addi	a0,a0,-1023
   20464:	00000693          	li	a3,0
   20468:	002c1793          	slli	a5,s8,0x2
   2046c:	00d7e7b3          	or	a5,a5,a3
   20470:	fff78793          	addi	a5,a5,-1 # ffffff <__BSS_END__+0xfd90d3>
   20474:	00e00713          	li	a4,14
   20478:	016ac4b3          	xor	s1,s5,s6
   2047c:	40a90933          	sub	s2,s2,a0
   20480:	14f76e63          	bltu	a4,a5,205dc <__divdf3+0x240>
   20484:	00025737          	lui	a4,0x25
   20488:	00279793          	slli	a5,a5,0x2
   2048c:	28070713          	addi	a4,a4,640 # 25280 <_ctype_+0x104>
   20490:	00e787b3          	add	a5,a5,a4
   20494:	0007a783          	lw	a5,0(a5)
   20498:	00078067          	jr	a5
   2049c:	00a4ecb3          	or	s9,s1,a0
   204a0:	060c8e63          	beqz	s9,2051c <__divdf3+0x180>
   204a4:	04048063          	beqz	s1,204e4 <__divdf3+0x148>
   204a8:	00048513          	mv	a0,s1
   204ac:	250040ef          	jal	ra,246fc <__clzsi2>
   204b0:	ff550793          	addi	a5,a0,-11
   204b4:	01c00713          	li	a4,28
   204b8:	02f74c63          	blt	a4,a5,204f0 <__divdf3+0x154>
   204bc:	01d00c93          	li	s9,29
   204c0:	ff850413          	addi	s0,a0,-8
   204c4:	40fc8cb3          	sub	s9,s9,a5
   204c8:	008494b3          	sll	s1,s1,s0
   204cc:	0199dcb3          	srl	s9,s3,s9
   204d0:	009cecb3          	or	s9,s9,s1
   204d4:	00899433          	sll	s0,s3,s0
   204d8:	c0d00913          	li	s2,-1011
   204dc:	40a90933          	sub	s2,s2,a0
   204e0:	f41ff06f          	j	20420 <__divdf3+0x84>
   204e4:	218040ef          	jal	ra,246fc <__clzsi2>
   204e8:	02050513          	addi	a0,a0,32
   204ec:	fc5ff06f          	j	204b0 <__divdf3+0x114>
   204f0:	fd850493          	addi	s1,a0,-40
   204f4:	00999cb3          	sll	s9,s3,s1
   204f8:	00000413          	li	s0,0
   204fc:	fddff06f          	j	204d8 <__divdf3+0x13c>
   20500:	00a4ecb3          	or	s9,s1,a0
   20504:	020c8463          	beqz	s9,2052c <__divdf3+0x190>
   20508:	00050413          	mv	s0,a0
   2050c:	00048c93          	mv	s9,s1
   20510:	7ff00913          	li	s2,2047
   20514:	00300c13          	li	s8,3
   20518:	f0dff06f          	j	20424 <__divdf3+0x88>
   2051c:	00000413          	li	s0,0
   20520:	00000913          	li	s2,0
   20524:	00100c13          	li	s8,1
   20528:	efdff06f          	j	20424 <__divdf3+0x88>
   2052c:	00000413          	li	s0,0
   20530:	7ff00913          	li	s2,2047
   20534:	00200c13          	li	s8,2
   20538:	eedff06f          	j	20424 <__divdf3+0x88>
   2053c:	0149e833          	or	a6,s3,s4
   20540:	06080e63          	beqz	a6,205bc <__divdf3+0x220>
   20544:	04098063          	beqz	s3,20584 <__divdf3+0x1e8>
   20548:	00098513          	mv	a0,s3
   2054c:	1b0040ef          	jal	ra,246fc <__clzsi2>
   20550:	ff550793          	addi	a5,a0,-11
   20554:	01c00713          	li	a4,28
   20558:	02f74e63          	blt	a4,a5,20594 <__divdf3+0x1f8>
   2055c:	01d00693          	li	a3,29
   20560:	ff850813          	addi	a6,a0,-8
   20564:	40f686b3          	sub	a3,a3,a5
   20568:	010995b3          	sll	a1,s3,a6
   2056c:	00da56b3          	srl	a3,s4,a3
   20570:	00b6e9b3          	or	s3,a3,a1
   20574:	010a1833          	sll	a6,s4,a6
   20578:	c0d00713          	li	a4,-1011
   2057c:	40a70533          	sub	a0,a4,a0
   20580:	ee5ff06f          	j	20464 <__divdf3+0xc8>
   20584:	000a0513          	mv	a0,s4
   20588:	174040ef          	jal	ra,246fc <__clzsi2>
   2058c:	02050513          	addi	a0,a0,32
   20590:	fc1ff06f          	j	20550 <__divdf3+0x1b4>
   20594:	fd850593          	addi	a1,a0,-40
   20598:	00ba19b3          	sll	s3,s4,a1
   2059c:	00000813          	li	a6,0
   205a0:	fd9ff06f          	j	20578 <__divdf3+0x1dc>
   205a4:	0149e833          	or	a6,s3,s4
   205a8:	02080263          	beqz	a6,205cc <__divdf3+0x230>
   205ac:	000a0813          	mv	a6,s4
   205b0:	7ff00513          	li	a0,2047
   205b4:	00300693          	li	a3,3
   205b8:	eb1ff06f          	j	20468 <__divdf3+0xcc>
   205bc:	00000993          	li	s3,0
   205c0:	00000513          	li	a0,0
   205c4:	00100693          	li	a3,1
   205c8:	ea1ff06f          	j	20468 <__divdf3+0xcc>
   205cc:	00000993          	li	s3,0
   205d0:	7ff00513          	li	a0,2047
   205d4:	00200693          	li	a3,2
   205d8:	e91ff06f          	j	20468 <__divdf3+0xcc>
   205dc:	0199e663          	bltu	s3,s9,205e8 <__divdf3+0x24c>
   205e0:	453c9463          	bne	s9,s3,20a28 <__divdf3+0x68c>
   205e4:	45046263          	bltu	s0,a6,20a28 <__divdf3+0x68c>
   205e8:	01fc9713          	slli	a4,s9,0x1f
   205ec:	00145793          	srli	a5,s0,0x1
   205f0:	01f41d93          	slli	s11,s0,0x1f
   205f4:	001cdc93          	srli	s9,s9,0x1
   205f8:	00f76433          	or	s0,a4,a5
   205fc:	00899593          	slli	a1,s3,0x8
   20600:	01885a93          	srli	s5,a6,0x18
   20604:	00baeab3          	or	s5,s5,a1
   20608:	0105db93          	srli	s7,a1,0x10
   2060c:	000b8593          	mv	a1,s7
   20610:	010a9c13          	slli	s8,s5,0x10
   20614:	000c8513          	mv	a0,s9
   20618:	00881b13          	slli	s6,a6,0x8
   2061c:	010c5c13          	srli	s8,s8,0x10
   20620:	030040ef          	jal	ra,24650 <__udivsi3>
   20624:	00050593          	mv	a1,a0
   20628:	00050d13          	mv	s10,a0
   2062c:	000c0513          	mv	a0,s8
   20630:	7f5030ef          	jal	ra,24624 <__mulsi3>
   20634:	00050993          	mv	s3,a0
   20638:	000b8593          	mv	a1,s7
   2063c:	000c8513          	mv	a0,s9
   20640:	058040ef          	jal	ra,24698 <__umodsi3>
   20644:	01051513          	slli	a0,a0,0x10
   20648:	01045713          	srli	a4,s0,0x10
   2064c:	00a76733          	or	a4,a4,a0
   20650:	000d0a13          	mv	s4,s10
   20654:	01377e63          	bgeu	a4,s3,20670 <__divdf3+0x2d4>
   20658:	01570733          	add	a4,a4,s5
   2065c:	fffd0a13          	addi	s4,s10,-1
   20660:	01576863          	bltu	a4,s5,20670 <__divdf3+0x2d4>
   20664:	01377663          	bgeu	a4,s3,20670 <__divdf3+0x2d4>
   20668:	ffed0a13          	addi	s4,s10,-2
   2066c:	01570733          	add	a4,a4,s5
   20670:	413709b3          	sub	s3,a4,s3
   20674:	000b8593          	mv	a1,s7
   20678:	00098513          	mv	a0,s3
   2067c:	7d5030ef          	jal	ra,24650 <__udivsi3>
   20680:	00050593          	mv	a1,a0
   20684:	00050d13          	mv	s10,a0
   20688:	000c0513          	mv	a0,s8
   2068c:	799030ef          	jal	ra,24624 <__mulsi3>
   20690:	00050c93          	mv	s9,a0
   20694:	000b8593          	mv	a1,s7
   20698:	00098513          	mv	a0,s3
   2069c:	7fd030ef          	jal	ra,24698 <__umodsi3>
   206a0:	01041413          	slli	s0,s0,0x10
   206a4:	01051513          	slli	a0,a0,0x10
   206a8:	01045413          	srli	s0,s0,0x10
   206ac:	00a46433          	or	s0,s0,a0
   206b0:	000d0793          	mv	a5,s10
   206b4:	01947e63          	bgeu	s0,s9,206d0 <__divdf3+0x334>
   206b8:	01540433          	add	s0,s0,s5
   206bc:	fffd0793          	addi	a5,s10,-1
   206c0:	01546863          	bltu	s0,s5,206d0 <__divdf3+0x334>
   206c4:	01947663          	bgeu	s0,s9,206d0 <__divdf3+0x334>
   206c8:	ffed0793          	addi	a5,s10,-2
   206cc:	01540433          	add	s0,s0,s5
   206d0:	010a1813          	slli	a6,s4,0x10
   206d4:	00010337          	lui	t1,0x10
   206d8:	00f86833          	or	a6,a6,a5
   206dc:	41940433          	sub	s0,s0,s9
   206e0:	fff30c93          	addi	s9,t1,-1 # ffff <register_fini-0x75>
   206e4:	019878b3          	and	a7,a6,s9
   206e8:	019b7cb3          	and	s9,s6,s9
   206ec:	01085713          	srli	a4,a6,0x10
   206f0:	010b5d13          	srli	s10,s6,0x10
   206f4:	00088513          	mv	a0,a7
   206f8:	000c8593          	mv	a1,s9
   206fc:	729030ef          	jal	ra,24624 <__mulsi3>
   20700:	00050793          	mv	a5,a0
   20704:	000d0593          	mv	a1,s10
   20708:	00088513          	mv	a0,a7
   2070c:	719030ef          	jal	ra,24624 <__mulsi3>
   20710:	00050a13          	mv	s4,a0
   20714:	000c8593          	mv	a1,s9
   20718:	00070513          	mv	a0,a4
   2071c:	709030ef          	jal	ra,24624 <__mulsi3>
   20720:	00050893          	mv	a7,a0
   20724:	000d0593          	mv	a1,s10
   20728:	00070513          	mv	a0,a4
   2072c:	6f9030ef          	jal	ra,24624 <__mulsi3>
   20730:	0107d713          	srli	a4,a5,0x10
   20734:	011a0a33          	add	s4,s4,a7
   20738:	01470733          	add	a4,a4,s4
   2073c:	01177463          	bgeu	a4,a7,20744 <__divdf3+0x3a8>
   20740:	00650533          	add	a0,a0,t1
   20744:	01075693          	srli	a3,a4,0x10
   20748:	00a686b3          	add	a3,a3,a0
   2074c:	00010537          	lui	a0,0x10
   20750:	fff50513          	addi	a0,a0,-1 # ffff <register_fini-0x75>
   20754:	00a77a33          	and	s4,a4,a0
   20758:	010a1a13          	slli	s4,s4,0x10
   2075c:	00a7f7b3          	and	a5,a5,a0
   20760:	00fa0a33          	add	s4,s4,a5
   20764:	00d46863          	bltu	s0,a3,20774 <__divdf3+0x3d8>
   20768:	00080993          	mv	s3,a6
   2076c:	04d41463          	bne	s0,a3,207b4 <__divdf3+0x418>
   20770:	054df263          	bgeu	s11,s4,207b4 <__divdf3+0x418>
   20774:	016d8db3          	add	s11,s11,s6
   20778:	016db7b3          	sltu	a5,s11,s6
   2077c:	015787b3          	add	a5,a5,s5
   20780:	00f40433          	add	s0,s0,a5
   20784:	fff80993          	addi	s3,a6,-1
   20788:	008ae663          	bltu	s5,s0,20794 <__divdf3+0x3f8>
   2078c:	028a9463          	bne	s5,s0,207b4 <__divdf3+0x418>
   20790:	036de263          	bltu	s11,s6,207b4 <__divdf3+0x418>
   20794:	00d46663          	bltu	s0,a3,207a0 <__divdf3+0x404>
   20798:	00869e63          	bne	a3,s0,207b4 <__divdf3+0x418>
   2079c:	014dfc63          	bgeu	s11,s4,207b4 <__divdf3+0x418>
   207a0:	016d8db3          	add	s11,s11,s6
   207a4:	016db7b3          	sltu	a5,s11,s6
   207a8:	015787b3          	add	a5,a5,s5
   207ac:	ffe80993          	addi	s3,a6,-2
   207b0:	00f40433          	add	s0,s0,a5
   207b4:	414d8a33          	sub	s4,s11,s4
   207b8:	40d40433          	sub	s0,s0,a3
   207bc:	014db7b3          	sltu	a5,s11,s4
   207c0:	40f40433          	sub	s0,s0,a5
   207c4:	fff00813          	li	a6,-1
   207c8:	1a8a8063          	beq	s5,s0,20968 <__divdf3+0x5cc>
   207cc:	000b8593          	mv	a1,s7
   207d0:	00040513          	mv	a0,s0
   207d4:	67d030ef          	jal	ra,24650 <__udivsi3>
   207d8:	00050593          	mv	a1,a0
   207dc:	00a12623          	sw	a0,12(sp)
   207e0:	000c0513          	mv	a0,s8
   207e4:	641030ef          	jal	ra,24624 <__mulsi3>
   207e8:	00a12423          	sw	a0,8(sp)
   207ec:	000b8593          	mv	a1,s7
   207f0:	00040513          	mv	a0,s0
   207f4:	6a5030ef          	jal	ra,24698 <__umodsi3>
   207f8:	00c12683          	lw	a3,12(sp)
   207fc:	00812703          	lw	a4,8(sp)
   20800:	01051513          	slli	a0,a0,0x10
   20804:	010a5793          	srli	a5,s4,0x10
   20808:	00a7e7b3          	or	a5,a5,a0
   2080c:	00068d93          	mv	s11,a3
   20810:	00e7fe63          	bgeu	a5,a4,2082c <__divdf3+0x490>
   20814:	015787b3          	add	a5,a5,s5
   20818:	fff68d93          	addi	s11,a3,-1
   2081c:	0157e863          	bltu	a5,s5,2082c <__divdf3+0x490>
   20820:	00e7f663          	bgeu	a5,a4,2082c <__divdf3+0x490>
   20824:	ffe68d93          	addi	s11,a3,-2
   20828:	015787b3          	add	a5,a5,s5
   2082c:	40e78433          	sub	s0,a5,a4
   20830:	000b8593          	mv	a1,s7
   20834:	00040513          	mv	a0,s0
   20838:	619030ef          	jal	ra,24650 <__udivsi3>
   2083c:	00050593          	mv	a1,a0
   20840:	00a12423          	sw	a0,8(sp)
   20844:	000c0513          	mv	a0,s8
   20848:	5dd030ef          	jal	ra,24624 <__mulsi3>
   2084c:	00050c13          	mv	s8,a0
   20850:	000b8593          	mv	a1,s7
   20854:	00040513          	mv	a0,s0
   20858:	641030ef          	jal	ra,24698 <__umodsi3>
   2085c:	00812703          	lw	a4,8(sp)
   20860:	010a1a13          	slli	s4,s4,0x10
   20864:	01051793          	slli	a5,a0,0x10
   20868:	010a5a13          	srli	s4,s4,0x10
   2086c:	00fa67b3          	or	a5,s4,a5
   20870:	00070693          	mv	a3,a4
   20874:	0187fe63          	bgeu	a5,s8,20890 <__divdf3+0x4f4>
   20878:	015787b3          	add	a5,a5,s5
   2087c:	fff70693          	addi	a3,a4,-1
   20880:	0157e863          	bltu	a5,s5,20890 <__divdf3+0x4f4>
   20884:	0187f663          	bgeu	a5,s8,20890 <__divdf3+0x4f4>
   20888:	ffe70693          	addi	a3,a4,-2
   2088c:	015787b3          	add	a5,a5,s5
   20890:	010d9893          	slli	a7,s11,0x10
   20894:	00d8e8b3          	or	a7,a7,a3
   20898:	01089313          	slli	t1,a7,0x10
   2089c:	01035313          	srli	t1,t1,0x10
   208a0:	418787b3          	sub	a5,a5,s8
   208a4:	0108d713          	srli	a4,a7,0x10
   208a8:	00030513          	mv	a0,t1
   208ac:	000c8593          	mv	a1,s9
   208b0:	575030ef          	jal	ra,24624 <__mulsi3>
   208b4:	00050813          	mv	a6,a0
   208b8:	000d0593          	mv	a1,s10
   208bc:	00030513          	mv	a0,t1
   208c0:	565030ef          	jal	ra,24624 <__mulsi3>
   208c4:	00050313          	mv	t1,a0
   208c8:	000c8593          	mv	a1,s9
   208cc:	00070513          	mv	a0,a4
   208d0:	555030ef          	jal	ra,24624 <__mulsi3>
   208d4:	00050e13          	mv	t3,a0
   208d8:	000d0593          	mv	a1,s10
   208dc:	00070513          	mv	a0,a4
   208e0:	545030ef          	jal	ra,24624 <__mulsi3>
   208e4:	01085713          	srli	a4,a6,0x10
   208e8:	01c30333          	add	t1,t1,t3
   208ec:	00670733          	add	a4,a4,t1
   208f0:	01c77663          	bgeu	a4,t3,208fc <__divdf3+0x560>
   208f4:	000106b7          	lui	a3,0x10
   208f8:	00d50533          	add	a0,a0,a3
   208fc:	01075593          	srli	a1,a4,0x10
   20900:	00a585b3          	add	a1,a1,a0
   20904:	00010537          	lui	a0,0x10
   20908:	fff50513          	addi	a0,a0,-1 # ffff <register_fini-0x75>
   2090c:	00a776b3          	and	a3,a4,a0
   20910:	01069693          	slli	a3,a3,0x10
   20914:	00a87833          	and	a6,a6,a0
   20918:	010686b3          	add	a3,a3,a6
   2091c:	00b7e863          	bltu	a5,a1,2092c <__divdf3+0x590>
   20920:	24b79663          	bne	a5,a1,20b6c <__divdf3+0x7d0>
   20924:	00088813          	mv	a6,a7
   20928:	04068063          	beqz	a3,20968 <__divdf3+0x5cc>
   2092c:	00fa8633          	add	a2,s5,a5
   20930:	fff88813          	addi	a6,a7,-1
   20934:	03566463          	bltu	a2,s5,2095c <__divdf3+0x5c0>
   20938:	00b66663          	bltu	a2,a1,20944 <__divdf3+0x5a8>
   2093c:	22b61663          	bne	a2,a1,20b68 <__divdf3+0x7cc>
   20940:	02db7063          	bgeu	s6,a3,20960 <__divdf3+0x5c4>
   20944:	001b1793          	slli	a5,s6,0x1
   20948:	0167bb33          	sltu	s6,a5,s6
   2094c:	015b0ab3          	add	s5,s6,s5
   20950:	ffe88813          	addi	a6,a7,-2
   20954:	01560633          	add	a2,a2,s5
   20958:	00078b13          	mv	s6,a5
   2095c:	00b61463          	bne	a2,a1,20964 <__divdf3+0x5c8>
   20960:	00db0463          	beq	s6,a3,20968 <__divdf3+0x5cc>
   20964:	00186813          	ori	a6,a6,1
   20968:	3ff90793          	addi	a5,s2,1023
   2096c:	10f05e63          	blez	a5,20a88 <__divdf3+0x6ec>
   20970:	00787713          	andi	a4,a6,7
   20974:	02070063          	beqz	a4,20994 <__divdf3+0x5f8>
   20978:	00f87713          	andi	a4,a6,15
   2097c:	00400693          	li	a3,4
   20980:	00d70a63          	beq	a4,a3,20994 <__divdf3+0x5f8>
   20984:	00480693          	addi	a3,a6,4
   20988:	0106b833          	sltu	a6,a3,a6
   2098c:	010989b3          	add	s3,s3,a6
   20990:	00068813          	mv	a6,a3
   20994:	00799713          	slli	a4,s3,0x7
   20998:	00075a63          	bgez	a4,209ac <__divdf3+0x610>
   2099c:	ff0007b7          	lui	a5,0xff000
   209a0:	fff78793          	addi	a5,a5,-1 # feffffff <__BSS_END__+0xfefd90d3>
   209a4:	00f9f9b3          	and	s3,s3,a5
   209a8:	40090793          	addi	a5,s2,1024
   209ac:	7fe00713          	li	a4,2046
   209b0:	0af74663          	blt	a4,a5,20a5c <__divdf3+0x6c0>
   209b4:	00385813          	srli	a6,a6,0x3
   209b8:	01d99713          	slli	a4,s3,0x1d
   209bc:	01076733          	or	a4,a4,a6
   209c0:	0039d593          	srli	a1,s3,0x3
   209c4:	01479793          	slli	a5,a5,0x14
   209c8:	7ff006b7          	lui	a3,0x7ff00
   209cc:	00c59593          	slli	a1,a1,0xc
   209d0:	04c12083          	lw	ra,76(sp)
   209d4:	04812403          	lw	s0,72(sp)
   209d8:	00d7f7b3          	and	a5,a5,a3
   209dc:	00c5d593          	srli	a1,a1,0xc
   209e0:	00b7e5b3          	or	a1,a5,a1
   209e4:	01f49493          	slli	s1,s1,0x1f
   209e8:	0095e7b3          	or	a5,a1,s1
   209ec:	04012903          	lw	s2,64(sp)
   209f0:	04412483          	lw	s1,68(sp)
   209f4:	03c12983          	lw	s3,60(sp)
   209f8:	03812a03          	lw	s4,56(sp)
   209fc:	03412a83          	lw	s5,52(sp)
   20a00:	03012b03          	lw	s6,48(sp)
   20a04:	02c12b83          	lw	s7,44(sp)
   20a08:	02812c03          	lw	s8,40(sp)
   20a0c:	02412c83          	lw	s9,36(sp)
   20a10:	02012d03          	lw	s10,32(sp)
   20a14:	01c12d83          	lw	s11,28(sp)
   20a18:	00070513          	mv	a0,a4
   20a1c:	00078593          	mv	a1,a5
   20a20:	05010113          	addi	sp,sp,80
   20a24:	00008067          	ret
   20a28:	fff90913          	addi	s2,s2,-1
   20a2c:	00000d93          	li	s11,0
   20a30:	bcdff06f          	j	205fc <__divdf3+0x260>
   20a34:	000a8493          	mv	s1,s5
   20a38:	000c8993          	mv	s3,s9
   20a3c:	00040813          	mv	a6,s0
   20a40:	000c0693          	mv	a3,s8
   20a44:	00300793          	li	a5,3
   20a48:	0ef68863          	beq	a3,a5,20b38 <__divdf3+0x79c>
   20a4c:	00100793          	li	a5,1
   20a50:	0ef68e63          	beq	a3,a5,20b4c <__divdf3+0x7b0>
   20a54:	00200793          	li	a5,2
   20a58:	f0f698e3          	bne	a3,a5,20968 <__divdf3+0x5cc>
   20a5c:	00000593          	li	a1,0
   20a60:	00000713          	li	a4,0
   20a64:	7ff00793          	li	a5,2047
   20a68:	f5dff06f          	j	209c4 <__divdf3+0x628>
   20a6c:	000b0493          	mv	s1,s6
   20a70:	fd5ff06f          	j	20a44 <__divdf3+0x6a8>
   20a74:	000809b7          	lui	s3,0x80
   20a78:	00000813          	li	a6,0
   20a7c:	00000493          	li	s1,0
   20a80:	00300693          	li	a3,3
   20a84:	fc1ff06f          	j	20a44 <__divdf3+0x6a8>
   20a88:	00100593          	li	a1,1
   20a8c:	40f585b3          	sub	a1,a1,a5
   20a90:	03800713          	li	a4,56
   20a94:	0ab74c63          	blt	a4,a1,20b4c <__divdf3+0x7b0>
   20a98:	01f00713          	li	a4,31
   20a9c:	06b74463          	blt	a4,a1,20b04 <__divdf3+0x768>
   20aa0:	41e90913          	addi	s2,s2,1054
   20aa4:	012997b3          	sll	a5,s3,s2
   20aa8:	00b85733          	srl	a4,a6,a1
   20aac:	01281933          	sll	s2,a6,s2
   20ab0:	00e7e7b3          	or	a5,a5,a4
   20ab4:	01203933          	snez	s2,s2
   20ab8:	0127e7b3          	or	a5,a5,s2
   20abc:	00b9d5b3          	srl	a1,s3,a1
   20ac0:	0077f713          	andi	a4,a5,7
   20ac4:	02070063          	beqz	a4,20ae4 <__divdf3+0x748>
   20ac8:	00f7f713          	andi	a4,a5,15
   20acc:	00400693          	li	a3,4
   20ad0:	00d70a63          	beq	a4,a3,20ae4 <__divdf3+0x748>
   20ad4:	00478713          	addi	a4,a5,4
   20ad8:	00f737b3          	sltu	a5,a4,a5
   20adc:	00f585b3          	add	a1,a1,a5
   20ae0:	00070793          	mv	a5,a4
   20ae4:	00859713          	slli	a4,a1,0x8
   20ae8:	06074863          	bltz	a4,20b58 <__divdf3+0x7bc>
   20aec:	01d59713          	slli	a4,a1,0x1d
   20af0:	0037d793          	srli	a5,a5,0x3
   20af4:	00f76733          	or	a4,a4,a5
   20af8:	0035d593          	srli	a1,a1,0x3
   20afc:	00000793          	li	a5,0
   20b00:	ec5ff06f          	j	209c4 <__divdf3+0x628>
   20b04:	fe100713          	li	a4,-31
   20b08:	40f707b3          	sub	a5,a4,a5
   20b0c:	02000693          	li	a3,32
   20b10:	00f9d7b3          	srl	a5,s3,a5
   20b14:	00000713          	li	a4,0
   20b18:	00d58663          	beq	a1,a3,20b24 <__divdf3+0x788>
   20b1c:	43e90913          	addi	s2,s2,1086
   20b20:	01299733          	sll	a4,s3,s2
   20b24:	01076733          	or	a4,a4,a6
   20b28:	00e03733          	snez	a4,a4
   20b2c:	00e7e7b3          	or	a5,a5,a4
   20b30:	00000593          	li	a1,0
   20b34:	f8dff06f          	j	20ac0 <__divdf3+0x724>
   20b38:	000805b7          	lui	a1,0x80
   20b3c:	00000713          	li	a4,0
   20b40:	7ff00793          	li	a5,2047
   20b44:	00000493          	li	s1,0
   20b48:	e7dff06f          	j	209c4 <__divdf3+0x628>
   20b4c:	00000593          	li	a1,0
   20b50:	00000713          	li	a4,0
   20b54:	fa9ff06f          	j	20afc <__divdf3+0x760>
   20b58:	00000593          	li	a1,0
   20b5c:	00000713          	li	a4,0
   20b60:	00100793          	li	a5,1
   20b64:	e61ff06f          	j	209c4 <__divdf3+0x628>
   20b68:	00080893          	mv	a7,a6
   20b6c:	00088813          	mv	a6,a7
   20b70:	df5ff06f          	j	20964 <__divdf3+0x5c8>

00020b74 <__muldf3>:
   20b74:	fd010113          	addi	sp,sp,-48
   20b78:	0145d793          	srli	a5,a1,0x14
   20b7c:	02812423          	sw	s0,40(sp)
   20b80:	02912223          	sw	s1,36(sp)
   20b84:	01312e23          	sw	s3,28(sp)
   20b88:	01412c23          	sw	s4,24(sp)
   20b8c:	01512a23          	sw	s5,20(sp)
   20b90:	00c59493          	slli	s1,a1,0xc
   20b94:	02112623          	sw	ra,44(sp)
   20b98:	03212023          	sw	s2,32(sp)
   20b9c:	01612823          	sw	s6,16(sp)
   20ba0:	01712623          	sw	s7,12(sp)
   20ba4:	01579713          	slli	a4,a5,0x15
   20ba8:	00050413          	mv	s0,a0
   20bac:	00060993          	mv	s3,a2
   20bb0:	00068a93          	mv	s5,a3
   20bb4:	00c4d493          	srli	s1,s1,0xc
   20bb8:	01f5da13          	srli	s4,a1,0x1f
   20bbc:	0a070663          	beqz	a4,20c68 <__muldf3+0xf4>
   20bc0:	7ff7fb13          	andi	s6,a5,2047
   20bc4:	7ff00793          	li	a5,2047
   20bc8:	10fb0263          	beq	s6,a5,20ccc <__muldf3+0x158>
   20bcc:	01d55793          	srli	a5,a0,0x1d
   20bd0:	00349493          	slli	s1,s1,0x3
   20bd4:	0097e4b3          	or	s1,a5,s1
   20bd8:	008007b7          	lui	a5,0x800
   20bdc:	00f4e4b3          	or	s1,s1,a5
   20be0:	00351913          	slli	s2,a0,0x3
   20be4:	c01b0b13          	addi	s6,s6,-1023
   20be8:	00000b93          	li	s7,0
   20bec:	014ad793          	srli	a5,s5,0x14
   20bf0:	00ca9413          	slli	s0,s5,0xc
   20bf4:	01579713          	slli	a4,a5,0x15
   20bf8:	00c45413          	srli	s0,s0,0xc
   20bfc:	7ff7f513          	andi	a0,a5,2047
   20c00:	01fada93          	srli	s5,s5,0x1f
   20c04:	10070063          	beqz	a4,20d04 <__muldf3+0x190>
   20c08:	7ff00793          	li	a5,2047
   20c0c:	16f50063          	beq	a0,a5,20d6c <__muldf3+0x1f8>
   20c10:	01d9d793          	srli	a5,s3,0x1d
   20c14:	00341413          	slli	s0,s0,0x3
   20c18:	0087e433          	or	s0,a5,s0
   20c1c:	008007b7          	lui	a5,0x800
   20c20:	00f46433          	or	s0,s0,a5
   20c24:	c0150513          	addi	a0,a0,-1023
   20c28:	00399793          	slli	a5,s3,0x3
   20c2c:	00000713          	li	a4,0
   20c30:	002b9693          	slli	a3,s7,0x2
   20c34:	00e6e6b3          	or	a3,a3,a4
   20c38:	00ab0b33          	add	s6,s6,a0
   20c3c:	fff68693          	addi	a3,a3,-1 # 7fefffff <__BSS_END__+0x7fed90d3>
   20c40:	00e00613          	li	a2,14
   20c44:	015a4833          	xor	a6,s4,s5
   20c48:	001b0893          	addi	a7,s6,1
   20c4c:	14d66c63          	bltu	a2,a3,20da4 <__muldf3+0x230>
   20c50:	00025637          	lui	a2,0x25
   20c54:	00269693          	slli	a3,a3,0x2
   20c58:	2bc60613          	addi	a2,a2,700 # 252bc <_ctype_+0x140>
   20c5c:	00c686b3          	add	a3,a3,a2
   20c60:	0006a683          	lw	a3,0(a3)
   20c64:	00068067          	jr	a3
   20c68:	00a4e933          	or	s2,s1,a0
   20c6c:	06090c63          	beqz	s2,20ce4 <__muldf3+0x170>
   20c70:	04048063          	beqz	s1,20cb0 <__muldf3+0x13c>
   20c74:	00048513          	mv	a0,s1
   20c78:	285030ef          	jal	ra,246fc <__clzsi2>
   20c7c:	ff550713          	addi	a4,a0,-11
   20c80:	01c00793          	li	a5,28
   20c84:	02e7cc63          	blt	a5,a4,20cbc <__muldf3+0x148>
   20c88:	01d00793          	li	a5,29
   20c8c:	ff850913          	addi	s2,a0,-8
   20c90:	40e787b3          	sub	a5,a5,a4
   20c94:	012494b3          	sll	s1,s1,s2
   20c98:	00f457b3          	srl	a5,s0,a5
   20c9c:	0097e4b3          	or	s1,a5,s1
   20ca0:	01241933          	sll	s2,s0,s2
   20ca4:	c0d00b13          	li	s6,-1011
   20ca8:	40ab0b33          	sub	s6,s6,a0
   20cac:	f3dff06f          	j	20be8 <__muldf3+0x74>
   20cb0:	24d030ef          	jal	ra,246fc <__clzsi2>
   20cb4:	02050513          	addi	a0,a0,32
   20cb8:	fc5ff06f          	j	20c7c <__muldf3+0x108>
   20cbc:	fd850493          	addi	s1,a0,-40
   20cc0:	009414b3          	sll	s1,s0,s1
   20cc4:	00000913          	li	s2,0
   20cc8:	fddff06f          	j	20ca4 <__muldf3+0x130>
   20ccc:	00a4e933          	or	s2,s1,a0
   20cd0:	02090263          	beqz	s2,20cf4 <__muldf3+0x180>
   20cd4:	00050913          	mv	s2,a0
   20cd8:	7ff00b13          	li	s6,2047
   20cdc:	00300b93          	li	s7,3
   20ce0:	f0dff06f          	j	20bec <__muldf3+0x78>
   20ce4:	00000493          	li	s1,0
   20ce8:	00000b13          	li	s6,0
   20cec:	00100b93          	li	s7,1
   20cf0:	efdff06f          	j	20bec <__muldf3+0x78>
   20cf4:	00000493          	li	s1,0
   20cf8:	7ff00b13          	li	s6,2047
   20cfc:	00200b93          	li	s7,2
   20d00:	eedff06f          	j	20bec <__muldf3+0x78>
   20d04:	013467b3          	or	a5,s0,s3
   20d08:	06078e63          	beqz	a5,20d84 <__muldf3+0x210>
   20d0c:	04040063          	beqz	s0,20d4c <__muldf3+0x1d8>
   20d10:	00040513          	mv	a0,s0
   20d14:	1e9030ef          	jal	ra,246fc <__clzsi2>
   20d18:	ff550693          	addi	a3,a0,-11
   20d1c:	01c00793          	li	a5,28
   20d20:	02d7ce63          	blt	a5,a3,20d5c <__muldf3+0x1e8>
   20d24:	01d00713          	li	a4,29
   20d28:	ff850793          	addi	a5,a0,-8
   20d2c:	40d70733          	sub	a4,a4,a3
   20d30:	00f41433          	sll	s0,s0,a5
   20d34:	00e9d733          	srl	a4,s3,a4
   20d38:	00876433          	or	s0,a4,s0
   20d3c:	00f997b3          	sll	a5,s3,a5
   20d40:	c0d00713          	li	a4,-1011
   20d44:	40a70533          	sub	a0,a4,a0
   20d48:	ee5ff06f          	j	20c2c <__muldf3+0xb8>
   20d4c:	00098513          	mv	a0,s3
   20d50:	1ad030ef          	jal	ra,246fc <__clzsi2>
   20d54:	02050513          	addi	a0,a0,32
   20d58:	fc1ff06f          	j	20d18 <__muldf3+0x1a4>
   20d5c:	fd850413          	addi	s0,a0,-40
   20d60:	00899433          	sll	s0,s3,s0
   20d64:	00000793          	li	a5,0
   20d68:	fd9ff06f          	j	20d40 <__muldf3+0x1cc>
   20d6c:	013467b3          	or	a5,s0,s3
   20d70:	02078263          	beqz	a5,20d94 <__muldf3+0x220>
   20d74:	00098793          	mv	a5,s3
   20d78:	7ff00513          	li	a0,2047
   20d7c:	00300713          	li	a4,3
   20d80:	eb1ff06f          	j	20c30 <__muldf3+0xbc>
   20d84:	00000413          	li	s0,0
   20d88:	00000513          	li	a0,0
   20d8c:	00100713          	li	a4,1
   20d90:	ea1ff06f          	j	20c30 <__muldf3+0xbc>
   20d94:	00000413          	li	s0,0
   20d98:	7ff00513          	li	a0,2047
   20d9c:	00200713          	li	a4,2
   20da0:	e91ff06f          	j	20c30 <__muldf3+0xbc>
   20da4:	00010ab7          	lui	s5,0x10
   20da8:	fffa8313          	addi	t1,s5,-1 # ffff <register_fini-0x75>
   20dac:	01095f93          	srli	t6,s2,0x10
   20db0:	0067f9b3          	and	s3,a5,t1
   20db4:	00697933          	and	s2,s2,t1
   20db8:	0107d293          	srli	t0,a5,0x10
   20dbc:	00090513          	mv	a0,s2
   20dc0:	00098593          	mv	a1,s3
   20dc4:	061030ef          	jal	ra,24624 <__mulsi3>
   20dc8:	00050a13          	mv	s4,a0
   20dcc:	00028593          	mv	a1,t0
   20dd0:	00090513          	mv	a0,s2
   20dd4:	051030ef          	jal	ra,24624 <__mulsi3>
   20dd8:	00050e93          	mv	t4,a0
   20ddc:	00098593          	mv	a1,s3
   20de0:	000f8513          	mv	a0,t6
   20de4:	041030ef          	jal	ra,24624 <__mulsi3>
   20de8:	00050393          	mv	t2,a0
   20dec:	00028593          	mv	a1,t0
   20df0:	000f8513          	mv	a0,t6
   20df4:	031030ef          	jal	ra,24624 <__mulsi3>
   20df8:	010a5713          	srli	a4,s4,0x10
   20dfc:	007e8eb3          	add	t4,t4,t2
   20e00:	01d70733          	add	a4,a4,t4
   20e04:	00050f13          	mv	t5,a0
   20e08:	00777463          	bgeu	a4,t2,20e10 <__muldf3+0x29c>
   20e0c:	01550f33          	add	t5,a0,s5
   20e10:	00677e33          	and	t3,a4,t1
   20e14:	006a7533          	and	a0,s4,t1
   20e18:	01045393          	srli	t2,s0,0x10
   20e1c:	010e1e13          	slli	t3,t3,0x10
   20e20:	00647433          	and	s0,s0,t1
   20e24:	00ae0e33          	add	t3,t3,a0
   20e28:	01075793          	srli	a5,a4,0x10
   20e2c:	00090513          	mv	a0,s2
   20e30:	00040593          	mv	a1,s0
   20e34:	7f0030ef          	jal	ra,24624 <__mulsi3>
   20e38:	00050e93          	mv	t4,a0
   20e3c:	00038593          	mv	a1,t2
   20e40:	00090513          	mv	a0,s2
   20e44:	7e0030ef          	jal	ra,24624 <__mulsi3>
   20e48:	00050313          	mv	t1,a0
   20e4c:	00040593          	mv	a1,s0
   20e50:	000f8513          	mv	a0,t6
   20e54:	7d0030ef          	jal	ra,24624 <__mulsi3>
   20e58:	00050913          	mv	s2,a0
   20e5c:	00038593          	mv	a1,t2
   20e60:	000f8513          	mv	a0,t6
   20e64:	7c0030ef          	jal	ra,24624 <__mulsi3>
   20e68:	010ed693          	srli	a3,t4,0x10
   20e6c:	01230333          	add	t1,t1,s2
   20e70:	006686b3          	add	a3,a3,t1
   20e74:	00050713          	mv	a4,a0
   20e78:	0126f663          	bgeu	a3,s2,20e84 <__muldf3+0x310>
   20e7c:	00010637          	lui	a2,0x10
   20e80:	00c50733          	add	a4,a0,a2
   20e84:	0106df93          	srli	t6,a3,0x10
   20e88:	00010bb7          	lui	s7,0x10
   20e8c:	00ef8fb3          	add	t6,t6,a4
   20e90:	fffb8713          	addi	a4,s7,-1 # ffff <register_fini-0x75>
   20e94:	00e6f6b3          	and	a3,a3,a4
   20e98:	01069693          	slli	a3,a3,0x10
   20e9c:	00eefeb3          	and	t4,t4,a4
   20ea0:	01d68eb3          	add	t4,a3,t4
   20ea4:	0104da93          	srli	s5,s1,0x10
   20ea8:	00e4f4b3          	and	s1,s1,a4
   20eac:	01d78933          	add	s2,a5,t4
   20eb0:	00048513          	mv	a0,s1
   20eb4:	00098593          	mv	a1,s3
   20eb8:	76c030ef          	jal	ra,24624 <__mulsi3>
   20ebc:	00050a13          	mv	s4,a0
   20ec0:	00028593          	mv	a1,t0
   20ec4:	00048513          	mv	a0,s1
   20ec8:	75c030ef          	jal	ra,24624 <__mulsi3>
   20ecc:	00050713          	mv	a4,a0
   20ed0:	00098593          	mv	a1,s3
   20ed4:	000a8513          	mv	a0,s5
   20ed8:	74c030ef          	jal	ra,24624 <__mulsi3>
   20edc:	00050313          	mv	t1,a0
   20ee0:	00028593          	mv	a1,t0
   20ee4:	000a8513          	mv	a0,s5
   20ee8:	73c030ef          	jal	ra,24624 <__mulsi3>
   20eec:	010a5793          	srli	a5,s4,0x10
   20ef0:	00670733          	add	a4,a4,t1
   20ef4:	00e787b3          	add	a5,a5,a4
   20ef8:	00050293          	mv	t0,a0
   20efc:	0067f463          	bgeu	a5,t1,20f04 <__muldf3+0x390>
   20f00:	017502b3          	add	t0,a0,s7
   20f04:	0107d513          	srli	a0,a5,0x10
   20f08:	00010bb7          	lui	s7,0x10
   20f0c:	005502b3          	add	t0,a0,t0
   20f10:	fffb8513          	addi	a0,s7,-1 # ffff <register_fini-0x75>
   20f14:	00a7f333          	and	t1,a5,a0
   20f18:	00aa7a33          	and	s4,s4,a0
   20f1c:	01031313          	slli	t1,t1,0x10
   20f20:	01430333          	add	t1,t1,s4
   20f24:	00048513          	mv	a0,s1
   20f28:	00040593          	mv	a1,s0
   20f2c:	6f8030ef          	jal	ra,24624 <__mulsi3>
   20f30:	00050993          	mv	s3,a0
   20f34:	00038593          	mv	a1,t2
   20f38:	00048513          	mv	a0,s1
   20f3c:	6e8030ef          	jal	ra,24624 <__mulsi3>
   20f40:	00050793          	mv	a5,a0
   20f44:	00040593          	mv	a1,s0
   20f48:	000a8513          	mv	a0,s5
   20f4c:	6d8030ef          	jal	ra,24624 <__mulsi3>
   20f50:	00050413          	mv	s0,a0
   20f54:	00038593          	mv	a1,t2
   20f58:	000a8513          	mv	a0,s5
   20f5c:	6c8030ef          	jal	ra,24624 <__mulsi3>
   20f60:	0109d593          	srli	a1,s3,0x10
   20f64:	008787b3          	add	a5,a5,s0
   20f68:	00f585b3          	add	a1,a1,a5
   20f6c:	0085f463          	bgeu	a1,s0,20f74 <__muldf3+0x400>
   20f70:	01750533          	add	a0,a0,s7
   20f74:	00010737          	lui	a4,0x10
   20f78:	fff70713          	addi	a4,a4,-1 # ffff <register_fini-0x75>
   20f7c:	00e5f6b3          	and	a3,a1,a4
   20f80:	01069693          	slli	a3,a3,0x10
   20f84:	00e9f733          	and	a4,s3,a4
   20f88:	01e90633          	add	a2,s2,t5
   20f8c:	00e686b3          	add	a3,a3,a4
   20f90:	01d63eb3          	sltu	t4,a2,t4
   20f94:	01f68733          	add	a4,a3,t6
   20f98:	01d706b3          	add	a3,a4,t4
   20f9c:	00660633          	add	a2,a2,t1
   20fa0:	00663333          	sltu	t1,a2,t1
   20fa4:	00568f33          	add	t5,a3,t0
   20fa8:	006f03b3          	add	t2,t5,t1
   20fac:	01f73733          	sltu	a4,a4,t6
   20fb0:	01d6beb3          	sltu	t4,a3,t4
   20fb4:	01d76733          	or	a4,a4,t4
   20fb8:	0105d593          	srli	a1,a1,0x10
   20fbc:	005f32b3          	sltu	t0,t5,t0
   20fc0:	0063b333          	sltu	t1,t2,t1
   20fc4:	00961793          	slli	a5,a2,0x9
   20fc8:	00b70733          	add	a4,a4,a1
   20fcc:	0062e333          	or	t1,t0,t1
   20fd0:	00670733          	add	a4,a4,t1
   20fd4:	01c7e7b3          	or	a5,a5,t3
   20fd8:	00a70533          	add	a0,a4,a0
   20fdc:	00f037b3          	snez	a5,a5
   20fe0:	01765613          	srli	a2,a2,0x17
   20fe4:	00951513          	slli	a0,a0,0x9
   20fe8:	00939713          	slli	a4,t2,0x9
   20fec:	00c7e7b3          	or	a5,a5,a2
   20ff0:	0173d413          	srli	s0,t2,0x17
   20ff4:	00e7e7b3          	or	a5,a5,a4
   20ff8:	00751713          	slli	a4,a0,0x7
   20ffc:	00856433          	or	s0,a0,s0
   21000:	10075463          	bgez	a4,21108 <__muldf3+0x594>
   21004:	0017d713          	srli	a4,a5,0x1
   21008:	0017f793          	andi	a5,a5,1
   2100c:	00f767b3          	or	a5,a4,a5
   21010:	01f41713          	slli	a4,s0,0x1f
   21014:	00e7e7b3          	or	a5,a5,a4
   21018:	00145413          	srli	s0,s0,0x1
   2101c:	3ff88693          	addi	a3,a7,1023
   21020:	0ed05863          	blez	a3,21110 <__muldf3+0x59c>
   21024:	0077f713          	andi	a4,a5,7
   21028:	02070063          	beqz	a4,21048 <__muldf3+0x4d4>
   2102c:	00f7f713          	andi	a4,a5,15
   21030:	00400613          	li	a2,4
   21034:	00c70a63          	beq	a4,a2,21048 <__muldf3+0x4d4>
   21038:	00478713          	addi	a4,a5,4 # 800004 <__BSS_END__+0x7d90d8>
   2103c:	00f737b3          	sltu	a5,a4,a5
   21040:	00f40433          	add	s0,s0,a5
   21044:	00070793          	mv	a5,a4
   21048:	00741713          	slli	a4,s0,0x7
   2104c:	00075a63          	bgez	a4,21060 <__muldf3+0x4ec>
   21050:	ff000737          	lui	a4,0xff000
   21054:	fff70713          	addi	a4,a4,-1 # feffffff <__BSS_END__+0xfefd90d3>
   21058:	00e47433          	and	s0,s0,a4
   2105c:	40088693          	addi	a3,a7,1024
   21060:	7fe00713          	li	a4,2046
   21064:	16d74863          	blt	a4,a3,211d4 <__muldf3+0x660>
   21068:	0037d713          	srli	a4,a5,0x3
   2106c:	01d41793          	slli	a5,s0,0x1d
   21070:	00e7e7b3          	or	a5,a5,a4
   21074:	00345413          	srli	s0,s0,0x3
   21078:	01469713          	slli	a4,a3,0x14
   2107c:	00c41413          	slli	s0,s0,0xc
   21080:	7ff006b7          	lui	a3,0x7ff00
   21084:	00d77733          	and	a4,a4,a3
   21088:	00c45413          	srli	s0,s0,0xc
   2108c:	00876433          	or	s0,a4,s0
   21090:	01f81813          	slli	a6,a6,0x1f
   21094:	02c12083          	lw	ra,44(sp)
   21098:	01046733          	or	a4,s0,a6
   2109c:	02812403          	lw	s0,40(sp)
   210a0:	02412483          	lw	s1,36(sp)
   210a4:	02012903          	lw	s2,32(sp)
   210a8:	01c12983          	lw	s3,28(sp)
   210ac:	01812a03          	lw	s4,24(sp)
   210b0:	01412a83          	lw	s5,20(sp)
   210b4:	01012b03          	lw	s6,16(sp)
   210b8:	00c12b83          	lw	s7,12(sp)
   210bc:	00078513          	mv	a0,a5
   210c0:	00070593          	mv	a1,a4
   210c4:	03010113          	addi	sp,sp,48
   210c8:	00008067          	ret
   210cc:	000a0813          	mv	a6,s4
   210d0:	00048413          	mv	s0,s1
   210d4:	00090793          	mv	a5,s2
   210d8:	000b8713          	mv	a4,s7
   210dc:	00200693          	li	a3,2
   210e0:	0ed70a63          	beq	a4,a3,211d4 <__muldf3+0x660>
   210e4:	00300693          	li	a3,3
   210e8:	0cd70c63          	beq	a4,a3,211c0 <__muldf3+0x64c>
   210ec:	00100693          	li	a3,1
   210f0:	f2d716e3          	bne	a4,a3,2101c <__muldf3+0x4a8>
   210f4:	00000413          	li	s0,0
   210f8:	00000793          	li	a5,0
   210fc:	0880006f          	j	21184 <__muldf3+0x610>
   21100:	000a8813          	mv	a6,s5
   21104:	fd9ff06f          	j	210dc <__muldf3+0x568>
   21108:	000b0893          	mv	a7,s6
   2110c:	f11ff06f          	j	2101c <__muldf3+0x4a8>
   21110:	00100613          	li	a2,1
   21114:	40d60633          	sub	a2,a2,a3
   21118:	03800713          	li	a4,56
   2111c:	fcc74ce3          	blt	a4,a2,210f4 <__muldf3+0x580>
   21120:	01f00713          	li	a4,31
   21124:	06c74463          	blt	a4,a2,2118c <__muldf3+0x618>
   21128:	41e88893          	addi	a7,a7,1054
   2112c:	01141733          	sll	a4,s0,a7
   21130:	00c7d6b3          	srl	a3,a5,a2
   21134:	011797b3          	sll	a5,a5,a7
   21138:	00d76733          	or	a4,a4,a3
   2113c:	00f037b3          	snez	a5,a5
   21140:	00f767b3          	or	a5,a4,a5
   21144:	00c45433          	srl	s0,s0,a2
   21148:	0077f713          	andi	a4,a5,7
   2114c:	02070063          	beqz	a4,2116c <__muldf3+0x5f8>
   21150:	00f7f713          	andi	a4,a5,15
   21154:	00400693          	li	a3,4
   21158:	00d70a63          	beq	a4,a3,2116c <__muldf3+0x5f8>
   2115c:	00478713          	addi	a4,a5,4
   21160:	00f737b3          	sltu	a5,a4,a5
   21164:	00f40433          	add	s0,s0,a5
   21168:	00070793          	mv	a5,a4
   2116c:	00841713          	slli	a4,s0,0x8
   21170:	06074a63          	bltz	a4,211e4 <__muldf3+0x670>
   21174:	01d41713          	slli	a4,s0,0x1d
   21178:	0037d793          	srli	a5,a5,0x3
   2117c:	00f767b3          	or	a5,a4,a5
   21180:	00345413          	srli	s0,s0,0x3
   21184:	00000693          	li	a3,0
   21188:	ef1ff06f          	j	21078 <__muldf3+0x504>
   2118c:	fe100713          	li	a4,-31
   21190:	40d70733          	sub	a4,a4,a3
   21194:	02000593          	li	a1,32
   21198:	00e45733          	srl	a4,s0,a4
   2119c:	00000693          	li	a3,0
   211a0:	00b60663          	beq	a2,a1,211ac <__muldf3+0x638>
   211a4:	43e88893          	addi	a7,a7,1086
   211a8:	011416b3          	sll	a3,s0,a7
   211ac:	00f6e7b3          	or	a5,a3,a5
   211b0:	00f037b3          	snez	a5,a5
   211b4:	00f767b3          	or	a5,a4,a5
   211b8:	00000413          	li	s0,0
   211bc:	f8dff06f          	j	21148 <__muldf3+0x5d4>
   211c0:	00080437          	lui	s0,0x80
   211c4:	00000793          	li	a5,0
   211c8:	7ff00693          	li	a3,2047
   211cc:	00000813          	li	a6,0
   211d0:	ea9ff06f          	j	21078 <__muldf3+0x504>
   211d4:	00000413          	li	s0,0
   211d8:	00000793          	li	a5,0
   211dc:	7ff00693          	li	a3,2047
   211e0:	e99ff06f          	j	21078 <__muldf3+0x504>
   211e4:	00000413          	li	s0,0
   211e8:	00000793          	li	a5,0
   211ec:	00100693          	li	a3,1
   211f0:	e89ff06f          	j	21078 <__muldf3+0x504>

000211f4 <__eqtf2>:
   211f4:	00c52783          	lw	a5,12(a0)
   211f8:	0005af03          	lw	t5,0(a1) # 80000 <__BSS_END__+0x590d4>
   211fc:	0045af83          	lw	t6,4(a1)
   21200:	0085a283          	lw	t0,8(a1)
   21204:	00c5a583          	lw	a1,12(a1)
   21208:	00008737          	lui	a4,0x8
   2120c:	0107d693          	srli	a3,a5,0x10
   21210:	fff70713          	addi	a4,a4,-1 # 7fff <register_fini-0x8075>
   21214:	01079813          	slli	a6,a5,0x10
   21218:	01059e93          	slli	t4,a1,0x10
   2121c:	01f7d613          	srli	a2,a5,0x1f
   21220:	00e6f6b3          	and	a3,a3,a4
   21224:	0105d793          	srli	a5,a1,0x10
   21228:	00052883          	lw	a7,0(a0)
   2122c:	00452303          	lw	t1,4(a0)
   21230:	00852e03          	lw	t3,8(a0)
   21234:	ff010113          	addi	sp,sp,-16
   21238:	01085813          	srli	a6,a6,0x10
   2123c:	010ede93          	srli	t4,t4,0x10
   21240:	00e7f7b3          	and	a5,a5,a4
   21244:	01f5d593          	srli	a1,a1,0x1f
   21248:	02e69063          	bne	a3,a4,21268 <__eqtf2+0x74>
   2124c:	0068e733          	or	a4,a7,t1
   21250:	01c76733          	or	a4,a4,t3
   21254:	01076733          	or	a4,a4,a6
   21258:	00100513          	li	a0,1
   2125c:	04071a63          	bnez	a4,212b0 <__eqtf2+0xbc>
   21260:	04d79863          	bne	a5,a3,212b0 <__eqtf2+0xbc>
   21264:	0080006f          	j	2126c <__eqtf2+0x78>
   21268:	00e79c63          	bne	a5,a4,21280 <__eqtf2+0x8c>
   2126c:	01ff6733          	or	a4,t5,t6
   21270:	00576733          	or	a4,a4,t0
   21274:	01d76733          	or	a4,a4,t4
   21278:	00100513          	li	a0,1
   2127c:	02071a63          	bnez	a4,212b0 <__eqtf2+0xbc>
   21280:	00100513          	li	a0,1
   21284:	02d79663          	bne	a5,a3,212b0 <__eqtf2+0xbc>
   21288:	03e89463          	bne	a7,t5,212b0 <__eqtf2+0xbc>
   2128c:	03f31263          	bne	t1,t6,212b0 <__eqtf2+0xbc>
   21290:	025e1063          	bne	t3,t0,212b0 <__eqtf2+0xbc>
   21294:	01d81e63          	bne	a6,t4,212b0 <__eqtf2+0xbc>
   21298:	02b60063          	beq	a2,a1,212b8 <__eqtf2+0xc4>
   2129c:	00079a63          	bnez	a5,212b0 <__eqtf2+0xbc>
   212a0:	0068e533          	or	a0,a7,t1
   212a4:	01c56533          	or	a0,a0,t3
   212a8:	01056533          	or	a0,a0,a6
   212ac:	00a03533          	snez	a0,a0
   212b0:	01010113          	addi	sp,sp,16
   212b4:	00008067          	ret
   212b8:	00000513          	li	a0,0
   212bc:	ff5ff06f          	j	212b0 <__eqtf2+0xbc>

000212c0 <__getf2>:
   212c0:	00052f83          	lw	t6,0(a0)
   212c4:	00452803          	lw	a6,4(a0)
   212c8:	00852e03          	lw	t3,8(a0)
   212cc:	00c52503          	lw	a0,12(a0)
   212d0:	00c5a683          	lw	a3,12(a1)
   212d4:	000087b7          	lui	a5,0x8
   212d8:	01055613          	srli	a2,a0,0x10
   212dc:	fff78793          	addi	a5,a5,-1 # 7fff <register_fini-0x8075>
   212e0:	01069313          	slli	t1,a3,0x10
   212e4:	0106d713          	srli	a4,a3,0x10
   212e8:	0005a283          	lw	t0,0(a1)
   212ec:	0045a883          	lw	a7,4(a1)
   212f0:	0085ae83          	lw	t4,8(a1)
   212f4:	00f67633          	and	a2,a2,a5
   212f8:	01051593          	slli	a1,a0,0x10
   212fc:	ff010113          	addi	sp,sp,-16
   21300:	0105d593          	srli	a1,a1,0x10
   21304:	01f55513          	srli	a0,a0,0x1f
   21308:	01035313          	srli	t1,t1,0x10
   2130c:	00f77733          	and	a4,a4,a5
   21310:	01f6d693          	srli	a3,a3,0x1f
   21314:	00f61e63          	bne	a2,a5,21330 <__getf2+0x70>
   21318:	010fe7b3          	or	a5,t6,a6
   2131c:	01c7e7b3          	or	a5,a5,t3
   21320:	00b7e7b3          	or	a5,a5,a1
   21324:	0c078863          	beqz	a5,213f4 <__getf2+0x134>
   21328:	ffe00513          	li	a0,-2
   2132c:	0640006f          	j	21390 <__getf2+0xd0>
   21330:	00f71a63          	bne	a4,a5,21344 <__getf2+0x84>
   21334:	0112e7b3          	or	a5,t0,a7
   21338:	01d7e7b3          	or	a5,a5,t4
   2133c:	0067e7b3          	or	a5,a5,t1
   21340:	fe0794e3          	bnez	a5,21328 <__getf2+0x68>
   21344:	0a061a63          	bnez	a2,213f8 <__getf2+0x138>
   21348:	010fe7b3          	or	a5,t6,a6
   2134c:	01c7e7b3          	or	a5,a5,t3
   21350:	00b7e7b3          	or	a5,a5,a1
   21354:	0017b793          	seqz	a5,a5
   21358:	00071a63          	bnez	a4,2136c <__getf2+0xac>
   2135c:	0112ef33          	or	t5,t0,a7
   21360:	01df6f33          	or	t5,t5,t4
   21364:	006f6f33          	or	t5,t5,t1
   21368:	060f0a63          	beqz	t5,213dc <__getf2+0x11c>
   2136c:	00079c63          	bnez	a5,21384 <__getf2+0xc4>
   21370:	00a69463          	bne	a3,a0,21378 <__getf2+0xb8>
   21374:	02c75263          	bge	a4,a2,21398 <__getf2+0xd8>
   21378:	04050e63          	beqz	a0,213d4 <__getf2+0x114>
   2137c:	fff00513          	li	a0,-1
   21380:	0100006f          	j	21390 <__getf2+0xd0>
   21384:	fff00513          	li	a0,-1
   21388:	00068463          	beqz	a3,21390 <__getf2+0xd0>
   2138c:	00068513          	mv	a0,a3
   21390:	01010113          	addi	sp,sp,16
   21394:	00008067          	ret
   21398:	00e65663          	bge	a2,a4,213a4 <__getf2+0xe4>
   2139c:	fe051ae3          	bnez	a0,21390 <__getf2+0xd0>
   213a0:	fddff06f          	j	2137c <__getf2+0xbc>
   213a4:	fcb36ae3          	bltu	t1,a1,21378 <__getf2+0xb8>
   213a8:	02659e63          	bne	a1,t1,213e4 <__getf2+0x124>
   213ac:	fdcee6e3          	bltu	t4,t3,21378 <__getf2+0xb8>
   213b0:	03de1e63          	bne	t3,t4,213ec <__getf2+0x12c>
   213b4:	fd08e2e3          	bltu	a7,a6,21378 <__getf2+0xb8>
   213b8:	01181463          	bne	a6,a7,213c0 <__getf2+0x100>
   213bc:	fbf2eee3          	bltu	t0,t6,21378 <__getf2+0xb8>
   213c0:	fd186ee3          	bltu	a6,a7,2139c <__getf2+0xdc>
   213c4:	01181463          	bne	a6,a7,213cc <__getf2+0x10c>
   213c8:	fc5feae3          	bltu	t6,t0,2139c <__getf2+0xdc>
   213cc:	00000513          	li	a0,0
   213d0:	fc1ff06f          	j	21390 <__getf2+0xd0>
   213d4:	00100513          	li	a0,1
   213d8:	fb9ff06f          	j	21390 <__getf2+0xd0>
   213dc:	fe0798e3          	bnez	a5,213cc <__getf2+0x10c>
   213e0:	f99ff06f          	j	21378 <__getf2+0xb8>
   213e4:	fa65ece3          	bltu	a1,t1,2139c <__getf2+0xdc>
   213e8:	fe5ff06f          	j	213cc <__getf2+0x10c>
   213ec:	fbde68e3          	bltu	t3,t4,2139c <__getf2+0xdc>
   213f0:	fddff06f          	j	213cc <__getf2+0x10c>
   213f4:	f4c700e3          	beq	a4,a2,21334 <__getf2+0x74>
   213f8:	f6071ce3          	bnez	a4,21370 <__getf2+0xb0>
   213fc:	00000793          	li	a5,0
   21400:	f5dff06f          	j	2135c <__getf2+0x9c>

00021404 <__letf2>:
   21404:	00052f83          	lw	t6,0(a0)
   21408:	00452803          	lw	a6,4(a0)
   2140c:	00852e03          	lw	t3,8(a0)
   21410:	00c52503          	lw	a0,12(a0)
   21414:	00c5a683          	lw	a3,12(a1)
   21418:	000087b7          	lui	a5,0x8
   2141c:	01055613          	srli	a2,a0,0x10
   21420:	fff78793          	addi	a5,a5,-1 # 7fff <register_fini-0x8075>
   21424:	01069313          	slli	t1,a3,0x10
   21428:	0106d713          	srli	a4,a3,0x10
   2142c:	0005a283          	lw	t0,0(a1)
   21430:	0045a883          	lw	a7,4(a1)
   21434:	0085ae83          	lw	t4,8(a1)
   21438:	00f67633          	and	a2,a2,a5
   2143c:	01051593          	slli	a1,a0,0x10
   21440:	ff010113          	addi	sp,sp,-16
   21444:	0105d593          	srli	a1,a1,0x10
   21448:	01f55513          	srli	a0,a0,0x1f
   2144c:	01035313          	srli	t1,t1,0x10
   21450:	00f77733          	and	a4,a4,a5
   21454:	01f6d693          	srli	a3,a3,0x1f
   21458:	00f61e63          	bne	a2,a5,21474 <__letf2+0x70>
   2145c:	010fe7b3          	or	a5,t6,a6
   21460:	01c7e7b3          	or	a5,a5,t3
   21464:	00b7e7b3          	or	a5,a5,a1
   21468:	0c078863          	beqz	a5,21538 <__letf2+0x134>
   2146c:	00200513          	li	a0,2
   21470:	0640006f          	j	214d4 <__letf2+0xd0>
   21474:	00f71a63          	bne	a4,a5,21488 <__letf2+0x84>
   21478:	0112e7b3          	or	a5,t0,a7
   2147c:	01d7e7b3          	or	a5,a5,t4
   21480:	0067e7b3          	or	a5,a5,t1
   21484:	fe0794e3          	bnez	a5,2146c <__letf2+0x68>
   21488:	0a061a63          	bnez	a2,2153c <__letf2+0x138>
   2148c:	010fe7b3          	or	a5,t6,a6
   21490:	01c7e7b3          	or	a5,a5,t3
   21494:	00b7e7b3          	or	a5,a5,a1
   21498:	0017b793          	seqz	a5,a5
   2149c:	00071a63          	bnez	a4,214b0 <__letf2+0xac>
   214a0:	0112ef33          	or	t5,t0,a7
   214a4:	01df6f33          	or	t5,t5,t4
   214a8:	006f6f33          	or	t5,t5,t1
   214ac:	060f0a63          	beqz	t5,21520 <__letf2+0x11c>
   214b0:	00079c63          	bnez	a5,214c8 <__letf2+0xc4>
   214b4:	00a69463          	bne	a3,a0,214bc <__letf2+0xb8>
   214b8:	02c75263          	bge	a4,a2,214dc <__letf2+0xd8>
   214bc:	04050e63          	beqz	a0,21518 <__letf2+0x114>
   214c0:	fff00513          	li	a0,-1
   214c4:	0100006f          	j	214d4 <__letf2+0xd0>
   214c8:	fff00513          	li	a0,-1
   214cc:	00068463          	beqz	a3,214d4 <__letf2+0xd0>
   214d0:	00068513          	mv	a0,a3
   214d4:	01010113          	addi	sp,sp,16
   214d8:	00008067          	ret
   214dc:	00e65663          	bge	a2,a4,214e8 <__letf2+0xe4>
   214e0:	fe051ae3          	bnez	a0,214d4 <__letf2+0xd0>
   214e4:	fddff06f          	j	214c0 <__letf2+0xbc>
   214e8:	fcb36ae3          	bltu	t1,a1,214bc <__letf2+0xb8>
   214ec:	02659e63          	bne	a1,t1,21528 <__letf2+0x124>
   214f0:	fdcee6e3          	bltu	t4,t3,214bc <__letf2+0xb8>
   214f4:	03de1e63          	bne	t3,t4,21530 <__letf2+0x12c>
   214f8:	fd08e2e3          	bltu	a7,a6,214bc <__letf2+0xb8>
   214fc:	01181463          	bne	a6,a7,21504 <__letf2+0x100>
   21500:	fbf2eee3          	bltu	t0,t6,214bc <__letf2+0xb8>
   21504:	fd186ee3          	bltu	a6,a7,214e0 <__letf2+0xdc>
   21508:	01181463          	bne	a6,a7,21510 <__letf2+0x10c>
   2150c:	fc5feae3          	bltu	t6,t0,214e0 <__letf2+0xdc>
   21510:	00000513          	li	a0,0
   21514:	fc1ff06f          	j	214d4 <__letf2+0xd0>
   21518:	00100513          	li	a0,1
   2151c:	fb9ff06f          	j	214d4 <__letf2+0xd0>
   21520:	fe0798e3          	bnez	a5,21510 <__letf2+0x10c>
   21524:	f99ff06f          	j	214bc <__letf2+0xb8>
   21528:	fa65ece3          	bltu	a1,t1,214e0 <__letf2+0xdc>
   2152c:	fe5ff06f          	j	21510 <__letf2+0x10c>
   21530:	fbde68e3          	bltu	t3,t4,214e0 <__letf2+0xdc>
   21534:	fddff06f          	j	21510 <__letf2+0x10c>
   21538:	f4c700e3          	beq	a4,a2,21478 <__letf2+0x74>
   2153c:	f6071ce3          	bnez	a4,214b4 <__letf2+0xb0>
   21540:	00000793          	li	a5,0
   21544:	f5dff06f          	j	214a0 <__letf2+0x9c>

00021548 <__multf3>:
   21548:	f6010113          	addi	sp,sp,-160
   2154c:	09312623          	sw	s3,140(sp)
   21550:	00c5a983          	lw	s3,12(a1)
   21554:	0005a683          	lw	a3,0(a1)
   21558:	0045a783          	lw	a5,4(a1)
   2155c:	08812c23          	sw	s0,152(sp)
   21560:	00050413          	mv	s0,a0
   21564:	0085a503          	lw	a0,8(a1)
   21568:	01099713          	slli	a4,s3,0x10
   2156c:	09212823          	sw	s2,144(sp)
   21570:	09412423          	sw	s4,136(sp)
   21574:	00c62903          	lw	s2,12(a2) # 1000c <register_fini-0x68>
   21578:	00062a03          	lw	s4,0(a2)
   2157c:	09512223          	sw	s5,132(sp)
   21580:	09612023          	sw	s6,128(sp)
   21584:	00862a83          	lw	s5,8(a2)
   21588:	00462b03          	lw	s6,4(a2)
   2158c:	00008637          	lui	a2,0x8
   21590:	08912a23          	sw	s1,148(sp)
   21594:	01075713          	srli	a4,a4,0x10
   21598:	0109d493          	srli	s1,s3,0x10
   2159c:	fff60613          	addi	a2,a2,-1 # 7fff <register_fini-0x8075>
   215a0:	05312623          	sw	s3,76(sp)
   215a4:	08112e23          	sw	ra,156(sp)
   215a8:	07712e23          	sw	s7,124(sp)
   215ac:	07812c23          	sw	s8,120(sp)
   215b0:	07912a23          	sw	s9,116(sp)
   215b4:	07a12823          	sw	s10,112(sp)
   215b8:	07b12623          	sw	s11,108(sp)
   215bc:	04d12023          	sw	a3,64(sp)
   215c0:	04f12223          	sw	a5,68(sp)
   215c4:	04a12423          	sw	a0,72(sp)
   215c8:	00d12823          	sw	a3,16(sp)
   215cc:	00f12a23          	sw	a5,20(sp)
   215d0:	00a12c23          	sw	a0,24(sp)
   215d4:	00e12e23          	sw	a4,28(sp)
   215d8:	00c4f4b3          	and	s1,s1,a2
   215dc:	01f9d993          	srli	s3,s3,0x1f
   215e0:	12048463          	beqz	s1,21708 <__multf3+0x1c0>
   215e4:	24c48063          	beq	s1,a2,21824 <__multf3+0x2dc>
   215e8:	000107b7          	lui	a5,0x10
   215ec:	00f767b3          	or	a5,a4,a5
   215f0:	00f12e23          	sw	a5,28(sp)
   215f4:	01010613          	addi	a2,sp,16
   215f8:	01c10793          	addi	a5,sp,28
   215fc:	0007a703          	lw	a4,0(a5) # 10000 <register_fini-0x74>
   21600:	ffc7a683          	lw	a3,-4(a5)
   21604:	ffc78793          	addi	a5,a5,-4
   21608:	00371713          	slli	a4,a4,0x3
   2160c:	01d6d693          	srli	a3,a3,0x1d
   21610:	00d76733          	or	a4,a4,a3
   21614:	00e7a223          	sw	a4,4(a5)
   21618:	fef612e3          	bne	a2,a5,215fc <__multf3+0xb4>
   2161c:	01012783          	lw	a5,16(sp)
   21620:	ffffc537          	lui	a0,0xffffc
   21624:	00150513          	addi	a0,a0,1 # ffffc001 <__BSS_END__+0xfffd50d5>
   21628:	00379793          	slli	a5,a5,0x3
   2162c:	00f12823          	sw	a5,16(sp)
   21630:	00a484b3          	add	s1,s1,a0
   21634:	00000b93          	li	s7,0
   21638:	01091513          	slli	a0,s2,0x10
   2163c:	00008737          	lui	a4,0x8
   21640:	01095793          	srli	a5,s2,0x10
   21644:	01055513          	srli	a0,a0,0x10
   21648:	fff70713          	addi	a4,a4,-1 # 7fff <register_fini-0x8075>
   2164c:	05212623          	sw	s2,76(sp)
   21650:	05412023          	sw	s4,64(sp)
   21654:	05612223          	sw	s6,68(sp)
   21658:	05512423          	sw	s5,72(sp)
   2165c:	03412023          	sw	s4,32(sp)
   21660:	03612223          	sw	s6,36(sp)
   21664:	03512423          	sw	s5,40(sp)
   21668:	02a12623          	sw	a0,44(sp)
   2166c:	00e7f7b3          	and	a5,a5,a4
   21670:	01f95913          	srli	s2,s2,0x1f
   21674:	1c078c63          	beqz	a5,2184c <__multf3+0x304>
   21678:	2ee78863          	beq	a5,a4,21968 <__multf3+0x420>
   2167c:	00010ab7          	lui	s5,0x10
   21680:	01556ab3          	or	s5,a0,s5
   21684:	03512623          	sw	s5,44(sp)
   21688:	02010593          	addi	a1,sp,32
   2168c:	02c10713          	addi	a4,sp,44
   21690:	00072683          	lw	a3,0(a4)
   21694:	ffc72603          	lw	a2,-4(a4)
   21698:	ffc70713          	addi	a4,a4,-4
   2169c:	00369693          	slli	a3,a3,0x3
   216a0:	01d65613          	srli	a2,a2,0x1d
   216a4:	00c6e6b3          	or	a3,a3,a2
   216a8:	00d72223          	sw	a3,4(a4)
   216ac:	fee592e3          	bne	a1,a4,21690 <__multf3+0x148>
   216b0:	02012703          	lw	a4,32(sp)
   216b4:	ffffc537          	lui	a0,0xffffc
   216b8:	00150513          	addi	a0,a0,1 # ffffc001 <__BSS_END__+0xfffd50d5>
   216bc:	00371713          	slli	a4,a4,0x3
   216c0:	02e12023          	sw	a4,32(sp)
   216c4:	00a787b3          	add	a5,a5,a0
   216c8:	00000713          	li	a4,0
   216cc:	009787b3          	add	a5,a5,s1
   216d0:	00f12423          	sw	a5,8(sp)
   216d4:	00178c93          	addi	s9,a5,1
   216d8:	002b9793          	slli	a5,s7,0x2
   216dc:	00e7e7b3          	or	a5,a5,a4
   216e0:	fff78793          	addi	a5,a5,-1
   216e4:	00e00693          	li	a3,14
   216e8:	0129c3b3          	xor	t2,s3,s2
   216ec:	2af6e263          	bltu	a3,a5,21990 <__multf3+0x448>
   216f0:	000256b7          	lui	a3,0x25
   216f4:	00279793          	slli	a5,a5,0x2
   216f8:	2f868693          	addi	a3,a3,760 # 252f8 <_ctype_+0x17c>
   216fc:	00d787b3          	add	a5,a5,a3
   21700:	0007a783          	lw	a5,0(a5)
   21704:	00078067          	jr	a5
   21708:	00d7e633          	or	a2,a5,a3
   2170c:	00a66633          	or	a2,a2,a0
   21710:	00e66633          	or	a2,a2,a4
   21714:	12060663          	beqz	a2,21840 <__multf3+0x2f8>
   21718:	06070063          	beqz	a4,21778 <__multf3+0x230>
   2171c:	00070513          	mv	a0,a4
   21720:	7dd020ef          	jal	ra,246fc <__clzsi2>
   21724:	ff450693          	addi	a3,a0,-12
   21728:	4056d713          	srai	a4,a3,0x5
   2172c:	01f6f693          	andi	a3,a3,31
   21730:	40e007b3          	neg	a5,a4
   21734:	06068c63          	beqz	a3,217ac <__multf3+0x264>
   21738:	00279793          	slli	a5,a5,0x2
   2173c:	01010313          	addi	t1,sp,16
   21740:	00c78793          	addi	a5,a5,12
   21744:	02000813          	li	a6,32
   21748:	00f307b3          	add	a5,t1,a5
   2174c:	00271593          	slli	a1,a4,0x2
   21750:	40d80833          	sub	a6,a6,a3
   21754:	08f31263          	bne	t1,a5,217d8 <__multf3+0x290>
   21758:	fff70793          	addi	a5,a4,-1
   2175c:	06010713          	addi	a4,sp,96
   21760:	00b705b3          	add	a1,a4,a1
   21764:	01012703          	lw	a4,16(sp)
   21768:	00d716b3          	sll	a3,a4,a3
   2176c:	fad5a823          	sw	a3,-80(a1)
   21770:	fff00693          	li	a3,-1
   21774:	09c0006f          	j	21810 <__multf3+0x2c8>
   21778:	00050863          	beqz	a0,21788 <__multf3+0x240>
   2177c:	781020ef          	jal	ra,246fc <__clzsi2>
   21780:	02050513          	addi	a0,a0,32
   21784:	fa1ff06f          	j	21724 <__multf3+0x1dc>
   21788:	00078a63          	beqz	a5,2179c <__multf3+0x254>
   2178c:	00078513          	mv	a0,a5
   21790:	76d020ef          	jal	ra,246fc <__clzsi2>
   21794:	04050513          	addi	a0,a0,64
   21798:	f8dff06f          	j	21724 <__multf3+0x1dc>
   2179c:	00068513          	mv	a0,a3
   217a0:	75d020ef          	jal	ra,246fc <__clzsi2>
   217a4:	06050513          	addi	a0,a0,96
   217a8:	f7dff06f          	j	21724 <__multf3+0x1dc>
   217ac:	01c10693          	addi	a3,sp,28
   217b0:	00279793          	slli	a5,a5,0x2
   217b4:	00300613          	li	a2,3
   217b8:	00f685b3          	add	a1,a3,a5
   217bc:	0005a583          	lw	a1,0(a1)
   217c0:	fff60613          	addi	a2,a2,-1
   217c4:	ffc68693          	addi	a3,a3,-4
   217c8:	00b6a223          	sw	a1,4(a3)
   217cc:	fee656e3          	bge	a2,a4,217b8 <__multf3+0x270>
   217d0:	fff70793          	addi	a5,a4,-1
   217d4:	f9dff06f          	j	21770 <__multf3+0x228>
   217d8:	ffc7a603          	lw	a2,-4(a5)
   217dc:	0007a883          	lw	a7,0(a5)
   217e0:	00b78e33          	add	t3,a5,a1
   217e4:	01065633          	srl	a2,a2,a6
   217e8:	00d898b3          	sll	a7,a7,a3
   217ec:	01166633          	or	a2,a2,a7
   217f0:	00ce2023          	sw	a2,0(t3)
   217f4:	ffc78793          	addi	a5,a5,-4
   217f8:	f5dff06f          	j	21754 <__multf3+0x20c>
   217fc:	00279713          	slli	a4,a5,0x2
   21800:	01010613          	addi	a2,sp,16
   21804:	00e60733          	add	a4,a2,a4
   21808:	00072023          	sw	zero,0(a4)
   2180c:	fff78793          	addi	a5,a5,-1
   21810:	fed796e3          	bne	a5,a3,217fc <__multf3+0x2b4>
   21814:	ffffc4b7          	lui	s1,0xffffc
   21818:	01148493          	addi	s1,s1,17 # ffffc011 <__BSS_END__+0xfffd50e5>
   2181c:	40a484b3          	sub	s1,s1,a0
   21820:	e15ff06f          	j	21634 <__multf3+0xec>
   21824:	00d7e7b3          	or	a5,a5,a3
   21828:	00a7e7b3          	or	a5,a5,a0
   2182c:	00e7e7b3          	or	a5,a5,a4
   21830:	00300b93          	li	s7,3
   21834:	e00792e3          	bnez	a5,21638 <__multf3+0xf0>
   21838:	00200b93          	li	s7,2
   2183c:	dfdff06f          	j	21638 <__multf3+0xf0>
   21840:	00000493          	li	s1,0
   21844:	00100b93          	li	s7,1
   21848:	df1ff06f          	j	21638 <__multf3+0xf0>
   2184c:	016a67b3          	or	a5,s4,s6
   21850:	0157e7b3          	or	a5,a5,s5
   21854:	00a7e7b3          	or	a5,a5,a0
   21858:	12078663          	beqz	a5,21984 <__multf3+0x43c>
   2185c:	04050e63          	beqz	a0,218b8 <__multf3+0x370>
   21860:	69d020ef          	jal	ra,246fc <__clzsi2>
   21864:	ff450693          	addi	a3,a0,-12
   21868:	4056d793          	srai	a5,a3,0x5
   2186c:	01f6f693          	andi	a3,a3,31
   21870:	40f00733          	neg	a4,a5
   21874:	06068e63          	beqz	a3,218f0 <__multf3+0x3a8>
   21878:	00271713          	slli	a4,a4,0x2
   2187c:	02010313          	addi	t1,sp,32
   21880:	00c70713          	addi	a4,a4,12
   21884:	02000813          	li	a6,32
   21888:	00e30733          	add	a4,t1,a4
   2188c:	00279593          	slli	a1,a5,0x2
   21890:	40d80833          	sub	a6,a6,a3
   21894:	08e31463          	bne	t1,a4,2191c <__multf3+0x3d4>
   21898:	06010713          	addi	a4,sp,96
   2189c:	00b705b3          	add	a1,a4,a1
   218a0:	02012703          	lw	a4,32(sp)
   218a4:	fff78793          	addi	a5,a5,-1
   218a8:	00d716b3          	sll	a3,a4,a3
   218ac:	fcd5a023          	sw	a3,-64(a1)
   218b0:	fff00693          	li	a3,-1
   218b4:	0a00006f          	j	21954 <__multf3+0x40c>
   218b8:	000a8a63          	beqz	s5,218cc <__multf3+0x384>
   218bc:	000a8513          	mv	a0,s5
   218c0:	63d020ef          	jal	ra,246fc <__clzsi2>
   218c4:	02050513          	addi	a0,a0,32
   218c8:	f9dff06f          	j	21864 <__multf3+0x31c>
   218cc:	000b0a63          	beqz	s6,218e0 <__multf3+0x398>
   218d0:	000b0513          	mv	a0,s6
   218d4:	629020ef          	jal	ra,246fc <__clzsi2>
   218d8:	04050513          	addi	a0,a0,64
   218dc:	f89ff06f          	j	21864 <__multf3+0x31c>
   218e0:	000a0513          	mv	a0,s4
   218e4:	619020ef          	jal	ra,246fc <__clzsi2>
   218e8:	06050513          	addi	a0,a0,96
   218ec:	f79ff06f          	j	21864 <__multf3+0x31c>
   218f0:	02c10693          	addi	a3,sp,44
   218f4:	00271713          	slli	a4,a4,0x2
   218f8:	00300613          	li	a2,3
   218fc:	00e685b3          	add	a1,a3,a4
   21900:	0005a583          	lw	a1,0(a1)
   21904:	fff60613          	addi	a2,a2,-1
   21908:	ffc68693          	addi	a3,a3,-4
   2190c:	00b6a223          	sw	a1,4(a3)
   21910:	fef656e3          	bge	a2,a5,218fc <__multf3+0x3b4>
   21914:	fff78793          	addi	a5,a5,-1
   21918:	f99ff06f          	j	218b0 <__multf3+0x368>
   2191c:	ffc72603          	lw	a2,-4(a4)
   21920:	00072883          	lw	a7,0(a4)
   21924:	00b70e33          	add	t3,a4,a1
   21928:	01065633          	srl	a2,a2,a6
   2192c:	00d898b3          	sll	a7,a7,a3
   21930:	01166633          	or	a2,a2,a7
   21934:	00ce2023          	sw	a2,0(t3)
   21938:	ffc70713          	addi	a4,a4,-4
   2193c:	f59ff06f          	j	21894 <__multf3+0x34c>
   21940:	00279713          	slli	a4,a5,0x2
   21944:	02010613          	addi	a2,sp,32
   21948:	00e60733          	add	a4,a2,a4
   2194c:	00072023          	sw	zero,0(a4)
   21950:	fff78793          	addi	a5,a5,-1
   21954:	fed796e3          	bne	a5,a3,21940 <__multf3+0x3f8>
   21958:	ffffc7b7          	lui	a5,0xffffc
   2195c:	01178793          	addi	a5,a5,17 # ffffc011 <__BSS_END__+0xfffd50e5>
   21960:	40a787b3          	sub	a5,a5,a0
   21964:	d65ff06f          	j	216c8 <__multf3+0x180>
   21968:	016a6a33          	or	s4,s4,s6
   2196c:	015a6ab3          	or	s5,s4,s5
   21970:	00aaeab3          	or	s5,s5,a0
   21974:	00300713          	li	a4,3
   21978:	d40a9ae3          	bnez	s5,216cc <__multf3+0x184>
   2197c:	00200713          	li	a4,2
   21980:	d4dff06f          	j	216cc <__multf3+0x184>
   21984:	00000793          	li	a5,0
   21988:	00100713          	li	a4,1
   2198c:	d41ff06f          	j	216cc <__multf3+0x184>
   21990:	01012283          	lw	t0,16(sp)
   21994:	02012f83          	lw	t6,32(sp)
   21998:	00010e37          	lui	t3,0x10
   2199c:	fffe0793          	addi	a5,t3,-1 # ffff <register_fini-0x75>
   219a0:	00f2f833          	and	a6,t0,a5
   219a4:	00fff7b3          	and	a5,t6,a5
   219a8:	0102df13          	srli	t5,t0,0x10
   219ac:	010fde93          	srli	t4,t6,0x10
   219b0:	00080513          	mv	a0,a6
   219b4:	00078593          	mv	a1,a5
   219b8:	46d020ef          	jal	ra,24624 <__mulsi3>
   219bc:	00050893          	mv	a7,a0
   219c0:	000e8593          	mv	a1,t4
   219c4:	00080513          	mv	a0,a6
   219c8:	45d020ef          	jal	ra,24624 <__mulsi3>
   219cc:	00050813          	mv	a6,a0
   219d0:	00078593          	mv	a1,a5
   219d4:	000f0513          	mv	a0,t5
   219d8:	44d020ef          	jal	ra,24624 <__mulsi3>
   219dc:	00050313          	mv	t1,a0
   219e0:	000e8593          	mv	a1,t4
   219e4:	000f0513          	mv	a0,t5
   219e8:	43d020ef          	jal	ra,24624 <__mulsi3>
   219ec:	0108d713          	srli	a4,a7,0x10
   219f0:	00680833          	add	a6,a6,t1
   219f4:	01070733          	add	a4,a4,a6
   219f8:	00050793          	mv	a5,a0
   219fc:	00677463          	bgeu	a4,t1,21a04 <__multf3+0x4bc>
   21a00:	01c507b3          	add	a5,a0,t3
   21a04:	01075513          	srli	a0,a4,0x10
   21a08:	00f507b3          	add	a5,a0,a5
   21a0c:	00010f37          	lui	t5,0x10
   21a10:	02412e83          	lw	t4,36(sp)
   21a14:	04f12223          	sw	a5,68(sp)
   21a18:	ffff0793          	addi	a5,t5,-1 # ffff <register_fini-0x75>
   21a1c:	00f77733          	and	a4,a4,a5
   21a20:	00f8f8b3          	and	a7,a7,a5
   21a24:	01071713          	slli	a4,a4,0x10
   21a28:	01170733          	add	a4,a4,a7
   21a2c:	00f2f833          	and	a6,t0,a5
   21a30:	00fefe33          	and	t3,t4,a5
   21a34:	04e12023          	sw	a4,64(sp)
   21a38:	010ed493          	srli	s1,t4,0x10
   21a3c:	0102d713          	srli	a4,t0,0x10
   21a40:	00080513          	mv	a0,a6
   21a44:	000e0593          	mv	a1,t3
   21a48:	3dd020ef          	jal	ra,24624 <__mulsi3>
   21a4c:	00050313          	mv	t1,a0
   21a50:	00048593          	mv	a1,s1
   21a54:	00080513          	mv	a0,a6
   21a58:	3cd020ef          	jal	ra,24624 <__mulsi3>
   21a5c:	00050813          	mv	a6,a0
   21a60:	000e0593          	mv	a1,t3
   21a64:	00070513          	mv	a0,a4
   21a68:	3bd020ef          	jal	ra,24624 <__mulsi3>
   21a6c:	00050e13          	mv	t3,a0
   21a70:	00048593          	mv	a1,s1
   21a74:	00070513          	mv	a0,a4
   21a78:	3ad020ef          	jal	ra,24624 <__mulsi3>
   21a7c:	01035713          	srli	a4,t1,0x10
   21a80:	01c80833          	add	a6,a6,t3
   21a84:	01070733          	add	a4,a4,a6
   21a88:	00050a13          	mv	s4,a0
   21a8c:	01c77463          	bgeu	a4,t3,21a94 <__multf3+0x54c>
   21a90:	01e50a33          	add	s4,a0,t5
   21a94:	01412f03          	lw	t5,20(sp)
   21a98:	00f778b3          	and	a7,a4,a5
   21a9c:	01075693          	srli	a3,a4,0x10
   21aa0:	00f37333          	and	t1,t1,a5
   21aa4:	00ff7733          	and	a4,t5,a5
   21aa8:	01089893          	slli	a7,a7,0x10
   21aac:	00fff7b3          	and	a5,t6,a5
   21ab0:	00d12623          	sw	a3,12(sp)
   21ab4:	006888b3          	add	a7,a7,t1
   21ab8:	010f5493          	srli	s1,t5,0x10
   21abc:	010fde13          	srli	t3,t6,0x10
   21ac0:	00070513          	mv	a0,a4
   21ac4:	00078593          	mv	a1,a5
   21ac8:	35d020ef          	jal	ra,24624 <__mulsi3>
   21acc:	00050813          	mv	a6,a0
   21ad0:	000e0593          	mv	a1,t3
   21ad4:	00070513          	mv	a0,a4
   21ad8:	34d020ef          	jal	ra,24624 <__mulsi3>
   21adc:	00050713          	mv	a4,a0
   21ae0:	00078593          	mv	a1,a5
   21ae4:	00048513          	mv	a0,s1
   21ae8:	33d020ef          	jal	ra,24624 <__mulsi3>
   21aec:	00050313          	mv	t1,a0
   21af0:	000e0593          	mv	a1,t3
   21af4:	00048513          	mv	a0,s1
   21af8:	32d020ef          	jal	ra,24624 <__mulsi3>
   21afc:	01085793          	srli	a5,a6,0x10
   21b00:	00670733          	add	a4,a4,t1
   21b04:	00e787b3          	add	a5,a5,a4
   21b08:	00050b93          	mv	s7,a0
   21b0c:	0067f663          	bgeu	a5,t1,21b18 <__multf3+0x5d0>
   21b10:	00010737          	lui	a4,0x10
   21b14:	00e50bb3          	add	s7,a0,a4
   21b18:	00010e37          	lui	t3,0x10
   21b1c:	fffe0593          	addi	a1,t3,-1 # ffff <register_fini-0x75>
   21b20:	00b7f333          	and	t1,a5,a1
   21b24:	0107d513          	srli	a0,a5,0x10
   21b28:	00b87833          	and	a6,a6,a1
   21b2c:	00bf77b3          	and	a5,t5,a1
   21b30:	00bef9b3          	and	s3,t4,a1
   21b34:	01031313          	slli	t1,t1,0x10
   21b38:	01750bb3          	add	s7,a0,s7
   21b3c:	01030333          	add	t1,t1,a6
   21b40:	010f5913          	srli	s2,t5,0x10
   21b44:	010ed493          	srli	s1,t4,0x10
   21b48:	00078513          	mv	a0,a5
   21b4c:	00098593          	mv	a1,s3
   21b50:	2d5020ef          	jal	ra,24624 <__mulsi3>
   21b54:	00050713          	mv	a4,a0
   21b58:	00048593          	mv	a1,s1
   21b5c:	00078513          	mv	a0,a5
   21b60:	2c5020ef          	jal	ra,24624 <__mulsi3>
   21b64:	00050813          	mv	a6,a0
   21b68:	00098593          	mv	a1,s3
   21b6c:	00090513          	mv	a0,s2
   21b70:	2b5020ef          	jal	ra,24624 <__mulsi3>
   21b74:	00050993          	mv	s3,a0
   21b78:	00048593          	mv	a1,s1
   21b7c:	00090513          	mv	a0,s2
   21b80:	2a5020ef          	jal	ra,24624 <__mulsi3>
   21b84:	01075793          	srli	a5,a4,0x10
   21b88:	01380833          	add	a6,a6,s3
   21b8c:	010787b3          	add	a5,a5,a6
   21b90:	00050b13          	mv	s6,a0
   21b94:	0137f463          	bgeu	a5,s3,21b9c <__multf3+0x654>
   21b98:	01c50b33          	add	s6,a0,t3
   21b9c:	02812483          	lw	s1,40(sp)
   21ba0:	00010937          	lui	s2,0x10
   21ba4:	fff90593          	addi	a1,s2,-1 # ffff <register_fini-0x75>
   21ba8:	00b7f833          	and	a6,a5,a1
   21bac:	0107d513          	srli	a0,a5,0x10
   21bb0:	00b77733          	and	a4,a4,a1
   21bb4:	00b2fc33          	and	s8,t0,a1
   21bb8:	00b4f9b3          	and	s3,s1,a1
   21bbc:	01081813          	slli	a6,a6,0x10
   21bc0:	01650b33          	add	s6,a0,s6
   21bc4:	00e80833          	add	a6,a6,a4
   21bc8:	0102d793          	srli	a5,t0,0x10
   21bcc:	0104da93          	srli	s5,s1,0x10
   21bd0:	000c0513          	mv	a0,s8
   21bd4:	00098593          	mv	a1,s3
   21bd8:	24d020ef          	jal	ra,24624 <__mulsi3>
   21bdc:	00050e13          	mv	t3,a0
   21be0:	000a8593          	mv	a1,s5
   21be4:	000c0513          	mv	a0,s8
   21be8:	23d020ef          	jal	ra,24624 <__mulsi3>
   21bec:	00050713          	mv	a4,a0
   21bf0:	00098593          	mv	a1,s3
   21bf4:	00078513          	mv	a0,a5
   21bf8:	22d020ef          	jal	ra,24624 <__mulsi3>
   21bfc:	00050993          	mv	s3,a0
   21c00:	000a8593          	mv	a1,s5
   21c04:	00078513          	mv	a0,a5
   21c08:	21d020ef          	jal	ra,24624 <__mulsi3>
   21c0c:	010e5793          	srli	a5,t3,0x10
   21c10:	01370733          	add	a4,a4,s3
   21c14:	00e787b3          	add	a5,a5,a4
   21c18:	00050a93          	mv	s5,a0
   21c1c:	0137f463          	bgeu	a5,s3,21c24 <__multf3+0x6dc>
   21c20:	01250ab3          	add	s5,a0,s2
   21c24:	00010d37          	lui	s10,0x10
   21c28:	fffd0913          	addi	s2,s10,-1 # ffff <register_fini-0x75>
   21c2c:	0127f733          	and	a4,a5,s2
   21c30:	012e7e33          	and	t3,t3,s2
   21c34:	01071713          	slli	a4,a4,0x10
   21c38:	01c70733          	add	a4,a4,t3
   21c3c:	01812e03          	lw	t3,24(sp)
   21c40:	0107d513          	srli	a0,a5,0x10
   21c44:	01550ab3          	add	s5,a0,s5
   21c48:	012e77b3          	and	a5,t3,s2
   21c4c:	012ff933          	and	s2,t6,s2
   21c50:	010e5d93          	srli	s11,t3,0x10
   21c54:	010fdc13          	srli	s8,t6,0x10
   21c58:	00078513          	mv	a0,a5
   21c5c:	00090593          	mv	a1,s2
   21c60:	1c5020ef          	jal	ra,24624 <__mulsi3>
   21c64:	00050993          	mv	s3,a0
   21c68:	000c0593          	mv	a1,s8
   21c6c:	00078513          	mv	a0,a5
   21c70:	1b5020ef          	jal	ra,24624 <__mulsi3>
   21c74:	00050793          	mv	a5,a0
   21c78:	00090593          	mv	a1,s2
   21c7c:	000d8513          	mv	a0,s11
   21c80:	1a5020ef          	jal	ra,24624 <__mulsi3>
   21c84:	00050913          	mv	s2,a0
   21c88:	000c0593          	mv	a1,s8
   21c8c:	000d8513          	mv	a0,s11
   21c90:	195020ef          	jal	ra,24624 <__mulsi3>
   21c94:	012787b3          	add	a5,a5,s2
   21c98:	0109d693          	srli	a3,s3,0x10
   21c9c:	00d787b3          	add	a5,a5,a3
   21ca0:	0127f463          	bgeu	a5,s2,21ca8 <__multf3+0x760>
   21ca4:	01a50533          	add	a0,a0,s10
   21ca8:	04412603          	lw	a2,68(sp)
   21cac:	0107d693          	srli	a3,a5,0x10
   21cb0:	00a686b3          	add	a3,a3,a0
   21cb4:	00c12503          	lw	a0,12(sp)
   21cb8:	00c88633          	add	a2,a7,a2
   21cbc:	011630b3          	sltu	ra,a2,a7
   21cc0:	001508b3          	add	a7,a0,ra
   21cc4:	00010937          	lui	s2,0x10
   21cc8:	fff90593          	addi	a1,s2,-1 # ffff <register_fini-0x75>
   21ccc:	01488a33          	add	s4,a7,s4
   21cd0:	00660633          	add	a2,a2,t1
   21cd4:	00663333          	sltu	t1,a2,t1
   21cd8:	00b7f7b3          	and	a5,a5,a1
   21cdc:	04c12223          	sw	a2,68(sp)
   21ce0:	017a0633          	add	a2,s4,s7
   21ce4:	006608b3          	add	a7,a2,t1
   21ce8:	00b9f9b3          	and	s3,s3,a1
   21cec:	01079793          	slli	a5,a5,0x10
   21cf0:	013787b3          	add	a5,a5,s3
   21cf4:	01763bb3          	sltu	s7,a2,s7
   21cf8:	010889b3          	add	s3,a7,a6
   21cfc:	0068b8b3          	sltu	a7,a7,t1
   21d00:	001a3a33          	sltu	s4,s4,ra
   21d04:	011be8b3          	or	a7,s7,a7
   21d08:	014888b3          	add	a7,a7,s4
   21d0c:	0109b833          	sltu	a6,s3,a6
   21d10:	016888b3          	add	a7,a7,s6
   21d14:	010880b3          	add	ra,a7,a6
   21d18:	00e989b3          	add	s3,s3,a4
   21d1c:	00e9b733          	sltu	a4,s3,a4
   21d20:	01508633          	add	a2,ra,s5
   21d24:	00e60333          	add	t1,a2,a4
   21d28:	00f989b3          	add	s3,s3,a5
   21d2c:	05312423          	sw	s3,72(sp)
   21d30:	00f9b9b3          	sltu	s3,s3,a5
   21d34:	00d307b3          	add	a5,t1,a3
   21d38:	01378a33          	add	s4,a5,s3
   21d3c:	0168b8b3          	sltu	a7,a7,s6
   21d40:	0100b833          	sltu	a6,ra,a6
   21d44:	01563ab3          	sltu	s5,a2,s5
   21d48:	00e33733          	sltu	a4,t1,a4
   21d4c:	00eae733          	or	a4,s5,a4
   21d50:	00d7b6b3          	sltu	a3,a5,a3
   21d54:	0108e8b3          	or	a7,a7,a6
   21d58:	013a39b3          	sltu	s3,s4,s3
   21d5c:	00e888b3          	add	a7,a7,a4
   21d60:	0136e9b3          	or	s3,a3,s3
   21d64:	013889b3          	add	s3,a7,s3
   21d68:	02c12883          	lw	a7,44(sp)
   21d6c:	05312823          	sw	s3,80(sp)
   21d70:	0102d993          	srli	s3,t0,0x10
   21d74:	00b8f733          	and	a4,a7,a1
   21d78:	00b2f2b3          	and	t0,t0,a1
   21d7c:	05412623          	sw	s4,76(sp)
   21d80:	0108d793          	srli	a5,a7,0x10
   21d84:	00028513          	mv	a0,t0
   21d88:	00070593          	mv	a1,a4
   21d8c:	099020ef          	jal	ra,24624 <__mulsi3>
   21d90:	00050313          	mv	t1,a0
   21d94:	00078593          	mv	a1,a5
   21d98:	00028513          	mv	a0,t0
   21d9c:	089020ef          	jal	ra,24624 <__mulsi3>
   21da0:	00050813          	mv	a6,a0
   21da4:	00070593          	mv	a1,a4
   21da8:	00098513          	mv	a0,s3
   21dac:	079020ef          	jal	ra,24624 <__mulsi3>
   21db0:	00050713          	mv	a4,a0
   21db4:	00078593          	mv	a1,a5
   21db8:	00098513          	mv	a0,s3
   21dbc:	069020ef          	jal	ra,24624 <__mulsi3>
   21dc0:	01035793          	srli	a5,t1,0x10
   21dc4:	00e80833          	add	a6,a6,a4
   21dc8:	010787b3          	add	a5,a5,a6
   21dcc:	00050a13          	mv	s4,a0
   21dd0:	00e7f463          	bgeu	a5,a4,21dd8 <__multf3+0x890>
   21dd4:	01250a33          	add	s4,a0,s2
   21dd8:	00010737          	lui	a4,0x10
   21ddc:	fff70693          	addi	a3,a4,-1 # ffff <register_fini-0x75>
   21de0:	0107d813          	srli	a6,a5,0x10
   21de4:	01480a33          	add	s4,a6,s4
   21de8:	00d37833          	and	a6,t1,a3
   21dec:	01c12303          	lw	t1,28(sp)
   21df0:	00d7f633          	and	a2,a5,a3
   21df4:	01061613          	slli	a2,a2,0x10
   21df8:	010fd793          	srli	a5,t6,0x10
   21dfc:	00d372b3          	and	t0,t1,a3
   21e00:	00dfffb3          	and	t6,t6,a3
   21e04:	01060833          	add	a6,a2,a6
   21e08:	01035913          	srli	s2,t1,0x10
   21e0c:	00028513          	mv	a0,t0
   21e10:	000f8593          	mv	a1,t6
   21e14:	011020ef          	jal	ra,24624 <__mulsi3>
   21e18:	00050b13          	mv	s6,a0
   21e1c:	00078593          	mv	a1,a5
   21e20:	00028513          	mv	a0,t0
   21e24:	001020ef          	jal	ra,24624 <__mulsi3>
   21e28:	00050293          	mv	t0,a0
   21e2c:	000f8593          	mv	a1,t6
   21e30:	00090513          	mv	a0,s2
   21e34:	7f0020ef          	jal	ra,24624 <__mulsi3>
   21e38:	00050f93          	mv	t6,a0
   21e3c:	00078593          	mv	a1,a5
   21e40:	00090513          	mv	a0,s2
   21e44:	7e0020ef          	jal	ra,24624 <__mulsi3>
   21e48:	010b5793          	srli	a5,s6,0x10
   21e4c:	01f282b3          	add	t0,t0,t6
   21e50:	005787b3          	add	a5,a5,t0
   21e54:	00050993          	mv	s3,a0
   21e58:	01f7f463          	bgeu	a5,t6,21e60 <__multf3+0x918>
   21e5c:	00e509b3          	add	s3,a0,a4
   21e60:	000102b7          	lui	t0,0x10
   21e64:	fff28713          	addi	a4,t0,-1 # ffff <register_fini-0x75>
   21e68:	00e7f6b3          	and	a3,a5,a4
   21e6c:	0107d513          	srli	a0,a5,0x10
   21e70:	01069693          	slli	a3,a3,0x10
   21e74:	00eb7b33          	and	s6,s6,a4
   21e78:	00ef77b3          	and	a5,t5,a4
   21e7c:	00e4fab3          	and	s5,s1,a4
   21e80:	013509b3          	add	s3,a0,s3
   21e84:	01668b33          	add	s6,a3,s6
   21e88:	010f5913          	srli	s2,t5,0x10
   21e8c:	0104db93          	srli	s7,s1,0x10
   21e90:	00078513          	mv	a0,a5
   21e94:	000a8593          	mv	a1,s5
   21e98:	78c020ef          	jal	ra,24624 <__mulsi3>
   21e9c:	00050f93          	mv	t6,a0
   21ea0:	000b8593          	mv	a1,s7
   21ea4:	00078513          	mv	a0,a5
   21ea8:	77c020ef          	jal	ra,24624 <__mulsi3>
   21eac:	00050713          	mv	a4,a0
   21eb0:	000a8593          	mv	a1,s5
   21eb4:	00090513          	mv	a0,s2
   21eb8:	76c020ef          	jal	ra,24624 <__mulsi3>
   21ebc:	00050a93          	mv	s5,a0
   21ec0:	000b8593          	mv	a1,s7
   21ec4:	00090513          	mv	a0,s2
   21ec8:	75c020ef          	jal	ra,24624 <__mulsi3>
   21ecc:	010fd793          	srli	a5,t6,0x10
   21ed0:	01570733          	add	a4,a4,s5
   21ed4:	00e787b3          	add	a5,a5,a4
   21ed8:	00050913          	mv	s2,a0
   21edc:	0157f463          	bgeu	a5,s5,21ee4 <__multf3+0x99c>
   21ee0:	00550933          	add	s2,a0,t0
   21ee4:	000102b7          	lui	t0,0x10
   21ee8:	fff28693          	addi	a3,t0,-1 # ffff <register_fini-0x75>
   21eec:	00d7f733          	and	a4,a5,a3
   21ef0:	0107d593          	srli	a1,a5,0x10
   21ef4:	00dfffb3          	and	t6,t6,a3
   21ef8:	00de7ab3          	and	s5,t3,a3
   21efc:	00defbb3          	and	s7,t4,a3
   21f00:	01071713          	slli	a4,a4,0x10
   21f04:	01258933          	add	s2,a1,s2
   21f08:	01f70733          	add	a4,a4,t6
   21f0c:	010e5d13          	srli	s10,t3,0x10
   21f10:	010edc13          	srli	s8,t4,0x10
   21f14:	000a8513          	mv	a0,s5
   21f18:	000b8593          	mv	a1,s7
   21f1c:	708020ef          	jal	ra,24624 <__mulsi3>
   21f20:	00050f93          	mv	t6,a0
   21f24:	000c0593          	mv	a1,s8
   21f28:	000a8513          	mv	a0,s5
   21f2c:	6f8020ef          	jal	ra,24624 <__mulsi3>
   21f30:	00050a93          	mv	s5,a0
   21f34:	000b8593          	mv	a1,s7
   21f38:	000d0513          	mv	a0,s10
   21f3c:	6e8020ef          	jal	ra,24624 <__mulsi3>
   21f40:	00050793          	mv	a5,a0
   21f44:	000c0593          	mv	a1,s8
   21f48:	000d0513          	mv	a0,s10
   21f4c:	6d8020ef          	jal	ra,24624 <__mulsi3>
   21f50:	010fd693          	srli	a3,t6,0x10
   21f54:	00fa8ab3          	add	s5,s5,a5
   21f58:	015686b3          	add	a3,a3,s5
   21f5c:	00050b93          	mv	s7,a0
   21f60:	00f6f463          	bgeu	a3,a5,21f68 <__multf3+0xa20>
   21f64:	00550bb3          	add	s7,a0,t0
   21f68:	00010ab7          	lui	s5,0x10
   21f6c:	fffa8293          	addi	t0,s5,-1 # ffff <register_fini-0x75>
   21f70:	0106d513          	srli	a0,a3,0x10
   21f74:	0056f6b3          	and	a3,a3,t0
   21f78:	01069793          	slli	a5,a3,0x10
   21f7c:	005fffb3          	and	t6,t6,t0
   21f80:	01f78fb3          	add	t6,a5,t6
   21f84:	04c12783          	lw	a5,76(sp)
   21f88:	01750bb3          	add	s7,a0,s7
   21f8c:	00f807b3          	add	a5,a6,a5
   21f90:	0107b633          	sltu	a2,a5,a6
   21f94:	05012803          	lw	a6,80(sp)
   21f98:	016787b3          	add	a5,a5,s6
   21f9c:	0167b6b3          	sltu	a3,a5,s6
   21fa0:	010a0833          	add	a6,s4,a6
   21fa4:	00c80db3          	add	s11,a6,a2
   21fa8:	013d8b33          	add	s6,s11,s3
   21fac:	00db0d33          	add	s10,s6,a3
   21fb0:	00e787b3          	add	a5,a5,a4
   21fb4:	00e7b733          	sltu	a4,a5,a4
   21fb8:	012d05b3          	add	a1,s10,s2
   21fbc:	00e58c33          	add	s8,a1,a4
   21fc0:	01f787b3          	add	a5,a5,t6
   21fc4:	04f12623          	sw	a5,76(sp)
   21fc8:	01483833          	sltu	a6,a6,s4
   21fcc:	01f7b7b3          	sltu	a5,a5,t6
   21fd0:	00cdb633          	sltu	a2,s11,a2
   21fd4:	017c0fb3          	add	t6,s8,s7
   21fd8:	013b39b3          	sltu	s3,s6,s3
   21fdc:	00dd36b3          	sltu	a3,s10,a3
   21fe0:	00ff80b3          	add	ra,t6,a5
   21fe4:	00ec3733          	sltu	a4,s8,a4
   21fe8:	00c86833          	or	a6,a6,a2
   21fec:	00d9e9b3          	or	s3,s3,a3
   21ff0:	0125b5b3          	sltu	a1,a1,s2
   21ff4:	017fbbb3          	sltu	s7,t6,s7
   21ff8:	01380833          	add	a6,a6,s3
   21ffc:	00e5e5b3          	or	a1,a1,a4
   22000:	00f0b7b3          	sltu	a5,ra,a5
   22004:	00b805b3          	add	a1,a6,a1
   22008:	00fbe7b3          	or	a5,s7,a5
   2200c:	00f587b3          	add	a5,a1,a5
   22010:	005e7fb3          	and	t6,t3,t0
   22014:	0054f2b3          	and	t0,s1,t0
   22018:	04f12a23          	sw	a5,84(sp)
   2201c:	04112823          	sw	ra,80(sp)
   22020:	010e5713          	srli	a4,t3,0x10
   22024:	0104d793          	srli	a5,s1,0x10
   22028:	000f8513          	mv	a0,t6
   2202c:	00028593          	mv	a1,t0
   22030:	5f4020ef          	jal	ra,24624 <__mulsi3>
   22034:	00050813          	mv	a6,a0
   22038:	00078593          	mv	a1,a5
   2203c:	000f8513          	mv	a0,t6
   22040:	5e4020ef          	jal	ra,24624 <__mulsi3>
   22044:	00050f93          	mv	t6,a0
   22048:	00028593          	mv	a1,t0
   2204c:	00070513          	mv	a0,a4
   22050:	5d4020ef          	jal	ra,24624 <__mulsi3>
   22054:	00050293          	mv	t0,a0
   22058:	00078593          	mv	a1,a5
   2205c:	00070513          	mv	a0,a4
   22060:	5c4020ef          	jal	ra,24624 <__mulsi3>
   22064:	01085793          	srli	a5,a6,0x10
   22068:	005f8fb3          	add	t6,t6,t0
   2206c:	01f787b3          	add	a5,a5,t6
   22070:	00050713          	mv	a4,a0
   22074:	0057f463          	bgeu	a5,t0,2207c <__multf3+0xb34>
   22078:	01550733          	add	a4,a0,s5
   2207c:	00010fb7          	lui	t6,0x10
   22080:	ffff8693          	addi	a3,t6,-1 # ffff <register_fini-0x75>
   22084:	00d7f633          	and	a2,a5,a3
   22088:	0107da13          	srli	s4,a5,0x10
   2208c:	00ea0a33          	add	s4,s4,a4
   22090:	01061613          	slli	a2,a2,0x10
   22094:	00d87733          	and	a4,a6,a3
   22098:	010f5293          	srli	t0,t5,0x10
   2209c:	00d8f833          	and	a6,a7,a3
   220a0:	00df7f33          	and	t5,t5,a3
   220a4:	00e60733          	add	a4,a2,a4
   220a8:	0108d793          	srli	a5,a7,0x10
   220ac:	000f0513          	mv	a0,t5
   220b0:	00080593          	mv	a1,a6
   220b4:	570020ef          	jal	ra,24624 <__mulsi3>
   220b8:	00050a93          	mv	s5,a0
   220bc:	00078593          	mv	a1,a5
   220c0:	000f0513          	mv	a0,t5
   220c4:	560020ef          	jal	ra,24624 <__mulsi3>
   220c8:	00050f13          	mv	t5,a0
   220cc:	00080593          	mv	a1,a6
   220d0:	00028513          	mv	a0,t0
   220d4:	550020ef          	jal	ra,24624 <__mulsi3>
   220d8:	00050813          	mv	a6,a0
   220dc:	00078593          	mv	a1,a5
   220e0:	00028513          	mv	a0,t0
   220e4:	540020ef          	jal	ra,24624 <__mulsi3>
   220e8:	010ad793          	srli	a5,s5,0x10
   220ec:	010f0f33          	add	t5,t5,a6
   220f0:	01e787b3          	add	a5,a5,t5
   220f4:	00050993          	mv	s3,a0
   220f8:	0107f463          	bgeu	a5,a6,22100 <__multf3+0xbb8>
   220fc:	01f509b3          	add	s3,a0,t6
   22100:	00010837          	lui	a6,0x10
   22104:	fff80613          	addi	a2,a6,-1 # ffff <register_fini-0x75>
   22108:	00c7f6b3          	and	a3,a5,a2
   2210c:	0107d513          	srli	a0,a5,0x10
   22110:	01069693          	slli	a3,a3,0x10
   22114:	00cafab3          	and	s5,s5,a2
   22118:	010ed913          	srli	s2,t4,0x10
   2211c:	00c377b3          	and	a5,t1,a2
   22120:	00cefeb3          	and	t4,t4,a2
   22124:	013509b3          	add	s3,a0,s3
   22128:	01568ab3          	add	s5,a3,s5
   2212c:	01035f13          	srli	t5,t1,0x10
   22130:	00078513          	mv	a0,a5
   22134:	000e8593          	mv	a1,t4
   22138:	4ec020ef          	jal	ra,24624 <__mulsi3>
   2213c:	00050f93          	mv	t6,a0
   22140:	00090593          	mv	a1,s2
   22144:	00078513          	mv	a0,a5
   22148:	4dc020ef          	jal	ra,24624 <__mulsi3>
   2214c:	00050293          	mv	t0,a0
   22150:	000e8593          	mv	a1,t4
   22154:	000f0513          	mv	a0,t5
   22158:	4cc020ef          	jal	ra,24624 <__mulsi3>
   2215c:	00050793          	mv	a5,a0
   22160:	00090593          	mv	a1,s2
   22164:	000f0513          	mv	a0,t5
   22168:	4bc020ef          	jal	ra,24624 <__mulsi3>
   2216c:	010fd693          	srli	a3,t6,0x10
   22170:	00f282b3          	add	t0,t0,a5
   22174:	005686b3          	add	a3,a3,t0
   22178:	00050913          	mv	s2,a0
   2217c:	00f6f463          	bgeu	a3,a5,22184 <__multf3+0xc3c>
   22180:	01050933          	add	s2,a0,a6
   22184:	00010eb7          	lui	t4,0x10
   22188:	fffe8793          	addi	a5,t4,-1 # ffff <register_fini-0x75>
   2218c:	0106d513          	srli	a0,a3,0x10
   22190:	00f6f6b3          	and	a3,a3,a5
   22194:	01069593          	slli	a1,a3,0x10
   22198:	00ffffb3          	and	t6,t6,a5
   2219c:	010e5293          	srli	t0,t3,0x10
   221a0:	00fe7e33          	and	t3,t3,a5
   221a4:	00f8f7b3          	and	a5,a7,a5
   221a8:	01250933          	add	s2,a0,s2
   221ac:	01f58fb3          	add	t6,a1,t6
   221b0:	0108d813          	srli	a6,a7,0x10
   221b4:	000e0513          	mv	a0,t3
   221b8:	00078593          	mv	a1,a5
   221bc:	468020ef          	jal	ra,24624 <__mulsi3>
   221c0:	00050f13          	mv	t5,a0
   221c4:	00080593          	mv	a1,a6
   221c8:	000e0513          	mv	a0,t3
   221cc:	458020ef          	jal	ra,24624 <__mulsi3>
   221d0:	00050e13          	mv	t3,a0
   221d4:	00078593          	mv	a1,a5
   221d8:	00028513          	mv	a0,t0
   221dc:	448020ef          	jal	ra,24624 <__mulsi3>
   221e0:	00050793          	mv	a5,a0
   221e4:	00080593          	mv	a1,a6
   221e8:	00028513          	mv	a0,t0
   221ec:	438020ef          	jal	ra,24624 <__mulsi3>
   221f0:	00fe06b3          	add	a3,t3,a5
   221f4:	010f5813          	srli	a6,t5,0x10
   221f8:	010686b3          	add	a3,a3,a6
   221fc:	00f6f463          	bgeu	a3,a5,22204 <__multf3+0xcbc>
   22200:	01d50533          	add	a0,a0,t4
   22204:	00010e37          	lui	t3,0x10
   22208:	fffe0593          	addi	a1,t3,-1 # ffff <register_fini-0x75>
   2220c:	00b6f833          	and	a6,a3,a1
   22210:	0106d793          	srli	a5,a3,0x10
   22214:	00bf7f33          	and	t5,t5,a1
   22218:	00b37eb3          	and	t4,t1,a1
   2221c:	0104db93          	srli	s7,s1,0x10
   22220:	01081813          	slli	a6,a6,0x10
   22224:	00b4f4b3          	and	s1,s1,a1
   22228:	00a782b3          	add	t0,a5,a0
   2222c:	01e80833          	add	a6,a6,t5
   22230:	01035793          	srli	a5,t1,0x10
   22234:	000e8513          	mv	a0,t4
   22238:	00048593          	mv	a1,s1
   2223c:	3e8020ef          	jal	ra,24624 <__mulsi3>
   22240:	00050b13          	mv	s6,a0
   22244:	000b8593          	mv	a1,s7
   22248:	000e8513          	mv	a0,t4
   2224c:	3d8020ef          	jal	ra,24624 <__mulsi3>
   22250:	00050f13          	mv	t5,a0
   22254:	00048593          	mv	a1,s1
   22258:	00078513          	mv	a0,a5
   2225c:	3c8020ef          	jal	ra,24624 <__mulsi3>
   22260:	00050e93          	mv	t4,a0
   22264:	000b8593          	mv	a1,s7
   22268:	00078513          	mv	a0,a5
   2226c:	3b8020ef          	jal	ra,24624 <__mulsi3>
   22270:	010b5693          	srli	a3,s6,0x10
   22274:	01df0f33          	add	t5,t5,t4
   22278:	01e686b3          	add	a3,a3,t5
   2227c:	00050493          	mv	s1,a0
   22280:	01d6f463          	bgeu	a3,t4,22288 <__multf3+0xd40>
   22284:	01c504b3          	add	s1,a0,t3
   22288:	05012583          	lw	a1,80(sp)
   2228c:	00010eb7          	lui	t4,0x10
   22290:	fffe8e13          	addi	t3,t4,-1 # ffff <register_fini-0x75>
   22294:	00b705b3          	add	a1,a4,a1
   22298:	00e5b633          	sltu	a2,a1,a4
   2229c:	05412703          	lw	a4,84(sp)
   222a0:	01c6ff33          	and	t5,a3,t3
   222a4:	01cb7b33          	and	s6,s6,t3
   222a8:	00ea0733          	add	a4,s4,a4
   222ac:	00c70533          	add	a0,a4,a2
   222b0:	015585b3          	add	a1,a1,s5
   222b4:	010f1f13          	slli	t5,t5,0x10
   222b8:	0106d793          	srli	a5,a3,0x10
   222bc:	016f0f33          	add	t5,t5,s6
   222c0:	0155b6b3          	sltu	a3,a1,s5
   222c4:	01350b33          	add	s6,a0,s3
   222c8:	00db0c33          	add	s8,s6,a3
   222cc:	01f585b3          	add	a1,a1,t6
   222d0:	012c0ab3          	add	s5,s8,s2
   222d4:	00c53633          	sltu	a2,a0,a2
   222d8:	00dc36b3          	sltu	a3,s8,a3
   222dc:	04b12823          	sw	a1,80(sp)
   222e0:	01473733          	sltu	a4,a4,s4
   222e4:	01f5b5b3          	sltu	a1,a1,t6
   222e8:	013b39b3          	sltu	s3,s6,s3
   222ec:	00ba8bb3          	add	s7,s5,a1
   222f0:	009784b3          	add	s1,a5,s1
   222f4:	00c76733          	or	a4,a4,a2
   222f8:	00d9e7b3          	or	a5,s3,a3
   222fc:	00f70733          	add	a4,a4,a5
   22300:	012ab933          	sltu	s2,s5,s2
   22304:	00bbb7b3          	sltu	a5,s7,a1
   22308:	00f967b3          	or	a5,s2,a5
   2230c:	010b8fb3          	add	t6,s7,a6
   22310:	00f70733          	add	a4,a4,a5
   22314:	005707b3          	add	a5,a4,t0
   22318:	010fb833          	sltu	a6,t6,a6
   2231c:	010786b3          	add	a3,a5,a6
   22320:	01ef8fb3          	add	t6,t6,t5
   22324:	00968733          	add	a4,a3,s1
   22328:	01efbf33          	sltu	t5,t6,t5
   2232c:	05f12a23          	sw	t6,84(sp)
   22330:	01e70fb3          	add	t6,a4,t5
   22334:	0057b7b3          	sltu	a5,a5,t0
   22338:	0106b833          	sltu	a6,a3,a6
   2233c:	009734b3          	sltu	s1,a4,s1
   22340:	01efbf33          	sltu	t5,t6,t5
   22344:	01e4ef33          	or	t5,s1,t5
   22348:	0107e7b3          	or	a5,a5,a6
   2234c:	01e787b3          	add	a5,a5,t5
   22350:	04f12e23          	sw	a5,92(sp)
   22354:	01035f13          	srli	t5,t1,0x10
   22358:	0108d793          	srli	a5,a7,0x10
   2235c:	01c37333          	and	t1,t1,t3
   22360:	01c8f8b3          	and	a7,a7,t3
   22364:	05f12c23          	sw	t6,88(sp)
   22368:	00030513          	mv	a0,t1
   2236c:	00088593          	mv	a1,a7
   22370:	2b4020ef          	jal	ra,24624 <__mulsi3>
   22374:	00050813          	mv	a6,a0
   22378:	00078593          	mv	a1,a5
   2237c:	00030513          	mv	a0,t1
   22380:	2a4020ef          	jal	ra,24624 <__mulsi3>
   22384:	00050713          	mv	a4,a0
   22388:	00088593          	mv	a1,a7
   2238c:	000f0513          	mv	a0,t5
   22390:	294020ef          	jal	ra,24624 <__mulsi3>
   22394:	00050893          	mv	a7,a0
   22398:	00078593          	mv	a1,a5
   2239c:	000f0513          	mv	a0,t5
   223a0:	284020ef          	jal	ra,24624 <__mulsi3>
   223a4:	01085793          	srli	a5,a6,0x10
   223a8:	01170733          	add	a4,a4,a7
   223ac:	00e787b3          	add	a5,a5,a4
   223b0:	0117f463          	bgeu	a5,a7,223b8 <__multf3+0xe70>
   223b4:	01d50533          	add	a0,a0,t4
   223b8:	01c7f733          	and	a4,a5,t3
   223bc:	01071713          	slli	a4,a4,0x10
   223c0:	01c87e33          	and	t3,a6,t3
   223c4:	01c70e33          	add	t3,a4,t3
   223c8:	05812703          	lw	a4,88(sp)
   223cc:	05c12683          	lw	a3,92(sp)
   223d0:	0107d793          	srli	a5,a5,0x10
   223d4:	00ee0733          	add	a4,t3,a4
   223d8:	01c73e33          	sltu	t3,a4,t3
   223dc:	00d787b3          	add	a5,a5,a3
   223e0:	01c787b3          	add	a5,a5,t3
   223e4:	00a78533          	add	a0,a5,a0
   223e8:	04e12c23          	sw	a4,88(sp)
   223ec:	04412783          	lw	a5,68(sp)
   223f0:	04012703          	lw	a4,64(sp)
   223f4:	04a12e23          	sw	a0,92(sp)
   223f8:	05010593          	addi	a1,sp,80
   223fc:	00e7e7b3          	or	a5,a5,a4
   22400:	04812703          	lw	a4,72(sp)
   22404:	00e7e733          	or	a4,a5,a4
   22408:	04c12783          	lw	a5,76(sp)
   2240c:	00d79793          	slli	a5,a5,0xd
   22410:	00e7e7b3          	or	a5,a5,a4
   22414:	04010713          	addi	a4,sp,64
   22418:	00c72683          	lw	a3,12(a4)
   2241c:	01072603          	lw	a2,16(a4)
   22420:	00470713          	addi	a4,a4,4
   22424:	0136d693          	srli	a3,a3,0x13
   22428:	00d61613          	slli	a2,a2,0xd
   2242c:	00c6e6b3          	or	a3,a3,a2
   22430:	fed72e23          	sw	a3,-4(a4)
   22434:	fee592e3          	bne	a1,a4,22418 <__multf3+0xed0>
   22438:	04012703          	lw	a4,64(sp)
   2243c:	04812683          	lw	a3,72(sp)
   22440:	00f037b3          	snez	a5,a5
   22444:	00e7e7b3          	or	a5,a5,a4
   22448:	02d12c23          	sw	a3,56(sp)
   2244c:	04c12703          	lw	a4,76(sp)
   22450:	04412683          	lw	a3,68(sp)
   22454:	02f12823          	sw	a5,48(sp)
   22458:	02e12e23          	sw	a4,60(sp)
   2245c:	02d12a23          	sw	a3,52(sp)
   22460:	00b71693          	slli	a3,a4,0xb
   22464:	2006d463          	bgez	a3,2266c <__multf3+0x1124>
   22468:	01f79793          	slli	a5,a5,0x1f
   2246c:	03010713          	addi	a4,sp,48
   22470:	03c10593          	addi	a1,sp,60
   22474:	00072683          	lw	a3,0(a4)
   22478:	00472603          	lw	a2,4(a4)
   2247c:	00470713          	addi	a4,a4,4
   22480:	0016d693          	srli	a3,a3,0x1
   22484:	01f61613          	slli	a2,a2,0x1f
   22488:	00c6e6b3          	or	a3,a3,a2
   2248c:	fed72e23          	sw	a3,-4(a4)
   22490:	fee592e3          	bne	a1,a4,22474 <__multf3+0xf2c>
   22494:	03c12703          	lw	a4,60(sp)
   22498:	00f037b3          	snez	a5,a5
   2249c:	00175713          	srli	a4,a4,0x1
   224a0:	02e12e23          	sw	a4,60(sp)
   224a4:	03012703          	lw	a4,48(sp)
   224a8:	00f767b3          	or	a5,a4,a5
   224ac:	02f12823          	sw	a5,48(sp)
   224b0:	000047b7          	lui	a5,0x4
   224b4:	fff78793          	addi	a5,a5,-1 # 3fff <register_fini-0xc075>
   224b8:	00fc87b3          	add	a5,s9,a5
   224bc:	1cf05863          	blez	a5,2268c <__multf3+0x1144>
   224c0:	03012703          	lw	a4,48(sp)
   224c4:	00777693          	andi	a3,a4,7
   224c8:	04068463          	beqz	a3,22510 <__multf3+0xfc8>
   224cc:	00f77693          	andi	a3,a4,15
   224d0:	00400613          	li	a2,4
   224d4:	02c68e63          	beq	a3,a2,22510 <__multf3+0xfc8>
   224d8:	03412683          	lw	a3,52(sp)
   224dc:	00470713          	addi	a4,a4,4
   224e0:	02e12823          	sw	a4,48(sp)
   224e4:	00473713          	sltiu	a4,a4,4
   224e8:	00d706b3          	add	a3,a4,a3
   224ec:	00e6b733          	sltu	a4,a3,a4
   224f0:	02d12a23          	sw	a3,52(sp)
   224f4:	03812683          	lw	a3,56(sp)
   224f8:	00d706b3          	add	a3,a4,a3
   224fc:	02d12c23          	sw	a3,56(sp)
   22500:	00e6b6b3          	sltu	a3,a3,a4
   22504:	03c12703          	lw	a4,60(sp)
   22508:	00e686b3          	add	a3,a3,a4
   2250c:	02d12e23          	sw	a3,60(sp)
   22510:	03c12703          	lw	a4,60(sp)
   22514:	00b71693          	slli	a3,a4,0xb
   22518:	0006de63          	bgez	a3,22534 <__multf3+0xfec>
   2251c:	fff007b7          	lui	a5,0xfff00
   22520:	fff78793          	addi	a5,a5,-1 # ffefffff <__BSS_END__+0xffed90d3>
   22524:	00f77733          	and	a4,a4,a5
   22528:	000047b7          	lui	a5,0x4
   2252c:	02e12e23          	sw	a4,60(sp)
   22530:	00fc87b3          	add	a5,s9,a5
   22534:	03010713          	addi	a4,sp,48
   22538:	03c10593          	addi	a1,sp,60
   2253c:	00072683          	lw	a3,0(a4)
   22540:	00472603          	lw	a2,4(a4)
   22544:	00470713          	addi	a4,a4,4
   22548:	0036d693          	srli	a3,a3,0x3
   2254c:	01d61613          	slli	a2,a2,0x1d
   22550:	00c6e6b3          	or	a3,a3,a2
   22554:	fed72e23          	sw	a3,-4(a4)
   22558:	feb712e3          	bne	a4,a1,2253c <__multf3+0xff4>
   2255c:	00008737          	lui	a4,0x8
   22560:	ffe70693          	addi	a3,a4,-2 # 7ffe <register_fini-0x8076>
   22564:	10f6c863          	blt	a3,a5,22674 <__multf3+0x112c>
   22568:	03c12703          	lw	a4,60(sp)
   2256c:	00375713          	srli	a4,a4,0x3
   22570:	02e12e23          	sw	a4,60(sp)
   22574:	01179793          	slli	a5,a5,0x11
   22578:	00f39393          	slli	t2,t2,0xf
   2257c:	0117d793          	srli	a5,a5,0x11
   22580:	00f3e7b3          	or	a5,t2,a5
   22584:	04f11723          	sh	a5,78(sp)
   22588:	03012783          	lw	a5,48(sp)
   2258c:	03c12703          	lw	a4,60(sp)
   22590:	09c12083          	lw	ra,156(sp)
   22594:	00f42023          	sw	a5,0(s0) # 80000 <__BSS_END__+0x590d4>
   22598:	03412783          	lw	a5,52(sp)
   2259c:	04e11623          	sh	a4,76(sp)
   225a0:	00040513          	mv	a0,s0
   225a4:	00f42223          	sw	a5,4(s0)
   225a8:	03812783          	lw	a5,56(sp)
   225ac:	09412483          	lw	s1,148(sp)
   225b0:	09012903          	lw	s2,144(sp)
   225b4:	00f42423          	sw	a5,8(s0)
   225b8:	04c12783          	lw	a5,76(sp)
   225bc:	08c12983          	lw	s3,140(sp)
   225c0:	08812a03          	lw	s4,136(sp)
   225c4:	00f42623          	sw	a5,12(s0)
   225c8:	09812403          	lw	s0,152(sp)
   225cc:	08412a83          	lw	s5,132(sp)
   225d0:	08012b03          	lw	s6,128(sp)
   225d4:	07c12b83          	lw	s7,124(sp)
   225d8:	07812c03          	lw	s8,120(sp)
   225dc:	07412c83          	lw	s9,116(sp)
   225e0:	07012d03          	lw	s10,112(sp)
   225e4:	06c12d83          	lw	s11,108(sp)
   225e8:	0a010113          	addi	sp,sp,160
   225ec:	00008067          	ret
   225f0:	00098393          	mv	t2,s3
   225f4:	01012783          	lw	a5,16(sp)
   225f8:	02f12823          	sw	a5,48(sp)
   225fc:	01412783          	lw	a5,20(sp)
   22600:	02f12a23          	sw	a5,52(sp)
   22604:	01812783          	lw	a5,24(sp)
   22608:	02f12c23          	sw	a5,56(sp)
   2260c:	01c12783          	lw	a5,28(sp)
   22610:	02f12e23          	sw	a5,60(sp)
   22614:	00200793          	li	a5,2
   22618:	28fb8863          	beq	s7,a5,228a8 <__multf3+0x1360>
   2261c:	00300793          	li	a5,3
   22620:	2afb8263          	beq	s7,a5,228c4 <__multf3+0x137c>
   22624:	00100793          	li	a5,1
   22628:	e8fb94e3          	bne	s7,a5,224b0 <__multf3+0xf68>
   2262c:	02012e23          	sw	zero,60(sp)
   22630:	02012c23          	sw	zero,56(sp)
   22634:	02012a23          	sw	zero,52(sp)
   22638:	02012823          	sw	zero,48(sp)
   2263c:	22c0006f          	j	22868 <__multf3+0x1320>
   22640:	00090393          	mv	t2,s2
   22644:	02012783          	lw	a5,32(sp)
   22648:	00070b93          	mv	s7,a4
   2264c:	02f12823          	sw	a5,48(sp)
   22650:	02412783          	lw	a5,36(sp)
   22654:	02f12a23          	sw	a5,52(sp)
   22658:	02812783          	lw	a5,40(sp)
   2265c:	02f12c23          	sw	a5,56(sp)
   22660:	02c12783          	lw	a5,44(sp)
   22664:	02f12e23          	sw	a5,60(sp)
   22668:	fadff06f          	j	22614 <__multf3+0x10cc>
   2266c:	00812c83          	lw	s9,8(sp)
   22670:	e41ff06f          	j	224b0 <__multf3+0xf68>
   22674:	02012e23          	sw	zero,60(sp)
   22678:	02012c23          	sw	zero,56(sp)
   2267c:	02012a23          	sw	zero,52(sp)
   22680:	02012823          	sw	zero,48(sp)
   22684:	fff70793          	addi	a5,a4,-1
   22688:	eedff06f          	j	22574 <__multf3+0x102c>
   2268c:	00100693          	li	a3,1
   22690:	40f686b3          	sub	a3,a3,a5
   22694:	07400793          	li	a5,116
   22698:	1cd7cc63          	blt	a5,a3,22870 <__multf3+0x1328>
   2269c:	4056d313          	srai	t1,a3,0x5
   226a0:	00000793          	li	a5,0
   226a4:	00000613          	li	a2,0
   226a8:	04661863          	bne	a2,t1,226f8 <__multf3+0x11b0>
   226ac:	01f6f693          	andi	a3,a3,31
   226b0:	00231593          	slli	a1,t1,0x2
   226b4:	06069063          	bnez	a3,22714 <__multf3+0x11cc>
   226b8:	00300693          	li	a3,3
   226bc:	03010613          	addi	a2,sp,48
   226c0:	00000713          	li	a4,0
   226c4:	406686b3          	sub	a3,a3,t1
   226c8:	00b60533          	add	a0,a2,a1
   226cc:	00052503          	lw	a0,0(a0)
   226d0:	00170713          	addi	a4,a4,1
   226d4:	00460613          	addi	a2,a2,4
   226d8:	fea62e23          	sw	a0,-4(a2)
   226dc:	fee6d6e3          	bge	a3,a4,226c8 <__multf3+0x1180>
   226e0:	00400693          	li	a3,4
   226e4:	406686b3          	sub	a3,a3,t1
   226e8:	00100713          	li	a4,1
   226ec:	08d05063          	blez	a3,2276c <__multf3+0x1224>
   226f0:	00068713          	mv	a4,a3
   226f4:	0780006f          	j	2276c <__multf3+0x1224>
   226f8:	00261713          	slli	a4,a2,0x2
   226fc:	03010593          	addi	a1,sp,48
   22700:	00e58733          	add	a4,a1,a4
   22704:	00072703          	lw	a4,0(a4)
   22708:	00160613          	addi	a2,a2,1
   2270c:	00e7e7b3          	or	a5,a5,a4
   22710:	f99ff06f          	j	226a8 <__multf3+0x1160>
   22714:	06010713          	addi	a4,sp,96
   22718:	00b70733          	add	a4,a4,a1
   2271c:	fd072703          	lw	a4,-48(a4)
   22720:	02000893          	li	a7,32
   22724:	40d888b3          	sub	a7,a7,a3
   22728:	01171733          	sll	a4,a4,a7
   2272c:	00e7e7b3          	or	a5,a5,a4
   22730:	00300613          	li	a2,3
   22734:	03010713          	addi	a4,sp,48
   22738:	00b705b3          	add	a1,a4,a1
   2273c:	00000813          	li	a6,0
   22740:	40660633          	sub	a2,a2,t1
   22744:	00458593          	addi	a1,a1,4
   22748:	02c84663          	blt	a6,a2,22774 <__multf3+0x122c>
   2274c:	06010593          	addi	a1,sp,96
   22750:	00261613          	slli	a2,a2,0x2
   22754:	00c58633          	add	a2,a1,a2
   22758:	03c12583          	lw	a1,60(sp)
   2275c:	00400713          	li	a4,4
   22760:	40670733          	sub	a4,a4,t1
   22764:	00d5d6b3          	srl	a3,a1,a3
   22768:	fcd62823          	sw	a3,-48(a2)
   2276c:	00400613          	li	a2,4
   22770:	0440006f          	j	227b4 <__multf3+0x126c>
   22774:	00281713          	slli	a4,a6,0x2
   22778:	03010513          	addi	a0,sp,48
   2277c:	0005ae03          	lw	t3,0(a1)
   22780:	00e50733          	add	a4,a0,a4
   22784:	ffc5a503          	lw	a0,-4(a1)
   22788:	011e1e33          	sll	t3,t3,a7
   2278c:	00180813          	addi	a6,a6,1
   22790:	00d55533          	srl	a0,a0,a3
   22794:	01c56533          	or	a0,a0,t3
   22798:	00a72023          	sw	a0,0(a4)
   2279c:	fa9ff06f          	j	22744 <__multf3+0x11fc>
   227a0:	00271693          	slli	a3,a4,0x2
   227a4:	03010593          	addi	a1,sp,48
   227a8:	00d586b3          	add	a3,a1,a3
   227ac:	0006a023          	sw	zero,0(a3)
   227b0:	00170713          	addi	a4,a4,1
   227b4:	fec716e3          	bne	a4,a2,227a0 <__multf3+0x1258>
   227b8:	03012683          	lw	a3,48(sp)
   227bc:	00f037b3          	snez	a5,a5
   227c0:	00d7e7b3          	or	a5,a5,a3
   227c4:	02f12823          	sw	a5,48(sp)
   227c8:	0077f693          	andi	a3,a5,7
   227cc:	04068263          	beqz	a3,22810 <__multf3+0x12c8>
   227d0:	00f7f693          	andi	a3,a5,15
   227d4:	02e68e63          	beq	a3,a4,22810 <__multf3+0x12c8>
   227d8:	03412703          	lw	a4,52(sp)
   227dc:	00478793          	addi	a5,a5,4 # 4004 <register_fini-0xc070>
   227e0:	02f12823          	sw	a5,48(sp)
   227e4:	0047b793          	sltiu	a5,a5,4
   227e8:	00e78733          	add	a4,a5,a4
   227ec:	00f737b3          	sltu	a5,a4,a5
   227f0:	02e12a23          	sw	a4,52(sp)
   227f4:	03812703          	lw	a4,56(sp)
   227f8:	00e78733          	add	a4,a5,a4
   227fc:	02e12c23          	sw	a4,56(sp)
   22800:	00f73733          	sltu	a4,a4,a5
   22804:	03c12783          	lw	a5,60(sp)
   22808:	00f70733          	add	a4,a4,a5
   2280c:	02e12e23          	sw	a4,60(sp)
   22810:	03c12783          	lw	a5,60(sp)
   22814:	00c79713          	slli	a4,a5,0xc
   22818:	00075e63          	bgez	a4,22834 <__multf3+0x12ec>
   2281c:	02012e23          	sw	zero,60(sp)
   22820:	02012c23          	sw	zero,56(sp)
   22824:	02012a23          	sw	zero,52(sp)
   22828:	02012823          	sw	zero,48(sp)
   2282c:	00100793          	li	a5,1
   22830:	d45ff06f          	j	22574 <__multf3+0x102c>
   22834:	03010793          	addi	a5,sp,48
   22838:	03c10613          	addi	a2,sp,60
   2283c:	0007a703          	lw	a4,0(a5)
   22840:	0047a683          	lw	a3,4(a5)
   22844:	00478793          	addi	a5,a5,4
   22848:	00375713          	srli	a4,a4,0x3
   2284c:	01d69693          	slli	a3,a3,0x1d
   22850:	00d76733          	or	a4,a4,a3
   22854:	fee7ae23          	sw	a4,-4(a5)
   22858:	fef612e3          	bne	a2,a5,2283c <__multf3+0x12f4>
   2285c:	03c12783          	lw	a5,60(sp)
   22860:	0037d793          	srli	a5,a5,0x3
   22864:	02f12e23          	sw	a5,60(sp)
   22868:	00000793          	li	a5,0
   2286c:	d09ff06f          	j	22574 <__multf3+0x102c>
   22870:	03412783          	lw	a5,52(sp)
   22874:	03012703          	lw	a4,48(sp)
   22878:	00f76733          	or	a4,a4,a5
   2287c:	03812783          	lw	a5,56(sp)
   22880:	00f76733          	or	a4,a4,a5
   22884:	03c12783          	lw	a5,60(sp)
   22888:	00f76733          	or	a4,a4,a5
   2288c:	00000793          	li	a5,0
   22890:	ce0702e3          	beqz	a4,22574 <__multf3+0x102c>
   22894:	02012e23          	sw	zero,60(sp)
   22898:	02012c23          	sw	zero,56(sp)
   2289c:	02012a23          	sw	zero,52(sp)
   228a0:	02012823          	sw	zero,48(sp)
   228a4:	cd1ff06f          	j	22574 <__multf3+0x102c>
   228a8:	000087b7          	lui	a5,0x8
   228ac:	02012e23          	sw	zero,60(sp)
   228b0:	02012c23          	sw	zero,56(sp)
   228b4:	02012a23          	sw	zero,52(sp)
   228b8:	02012823          	sw	zero,48(sp)
   228bc:	fff78793          	addi	a5,a5,-1 # 7fff <register_fini-0x8075>
   228c0:	cb5ff06f          	j	22574 <__multf3+0x102c>
   228c4:	000087b7          	lui	a5,0x8
   228c8:	02f12e23          	sw	a5,60(sp)
   228cc:	02012c23          	sw	zero,56(sp)
   228d0:	02012a23          	sw	zero,52(sp)
   228d4:	02012823          	sw	zero,48(sp)
   228d8:	fff78793          	addi	a5,a5,-1 # 7fff <register_fini-0x8075>
   228dc:	00000393          	li	t2,0
   228e0:	c95ff06f          	j	22574 <__multf3+0x102c>

000228e4 <__subtf3>:
   228e4:	fa010113          	addi	sp,sp,-96
   228e8:	0085a783          	lw	a5,8(a1)
   228ec:	05212823          	sw	s2,80(sp)
   228f0:	00c5a903          	lw	s2,12(a1)
   228f4:	0005a803          	lw	a6,0(a1)
   228f8:	0045a703          	lw	a4,4(a1)
   228fc:	04912a23          	sw	s1,84(sp)
   22900:	02f12c23          	sw	a5,56(sp)
   22904:	00050493          	mv	s1,a0
   22908:	00f12c23          	sw	a5,24(sp)
   2290c:	00062503          	lw	a0,0(a2)
   22910:	01091793          	slli	a5,s2,0x10
   22914:	00462583          	lw	a1,4(a2)
   22918:	00862683          	lw	a3,8(a2)
   2291c:	00c62883          	lw	a7,12(a2)
   22920:	04812c23          	sw	s0,88(sp)
   22924:	0107d793          	srli	a5,a5,0x10
   22928:	00191413          	slli	s0,s2,0x1
   2292c:	03212e23          	sw	s2,60(sp)
   22930:	04112e23          	sw	ra,92(sp)
   22934:	05312623          	sw	s3,76(sp)
   22938:	05412423          	sw	s4,72(sp)
   2293c:	05512223          	sw	s5,68(sp)
   22940:	05612023          	sw	s6,64(sp)
   22944:	03012823          	sw	a6,48(sp)
   22948:	02e12a23          	sw	a4,52(sp)
   2294c:	01012823          	sw	a6,16(sp)
   22950:	00e12a23          	sw	a4,20(sp)
   22954:	00f12e23          	sw	a5,28(sp)
   22958:	01145413          	srli	s0,s0,0x11
   2295c:	01f95913          	srli	s2,s2,0x1f
   22960:	01010e93          	addi	t4,sp,16
   22964:	01c10f13          	addi	t5,sp,28
   22968:	000f2783          	lw	a5,0(t5)
   2296c:	ffcf2703          	lw	a4,-4(t5)
   22970:	ffcf0f13          	addi	t5,t5,-4
   22974:	00379793          	slli	a5,a5,0x3
   22978:	01d75713          	srli	a4,a4,0x1d
   2297c:	00e7e7b3          	or	a5,a5,a4
   22980:	00ff2223          	sw	a5,4(t5)
   22984:	ffee92e3          	bne	t4,t5,22968 <__subtf3+0x84>
   22988:	01012703          	lw	a4,16(sp)
   2298c:	01089793          	slli	a5,a7,0x10
   22990:	00189313          	slli	t1,a7,0x1
   22994:	00371713          	slli	a4,a4,0x3
   22998:	0107d793          	srli	a5,a5,0x10
   2299c:	03112e23          	sw	a7,60(sp)
   229a0:	00e12823          	sw	a4,16(sp)
   229a4:	02a12823          	sw	a0,48(sp)
   229a8:	02b12a23          	sw	a1,52(sp)
   229ac:	02d12c23          	sw	a3,56(sp)
   229b0:	02a12023          	sw	a0,32(sp)
   229b4:	02b12223          	sw	a1,36(sp)
   229b8:	02d12423          	sw	a3,40(sp)
   229bc:	02f12623          	sw	a5,44(sp)
   229c0:	01135313          	srli	t1,t1,0x11
   229c4:	01f8d893          	srli	a7,a7,0x1f
   229c8:	02010813          	addi	a6,sp,32
   229cc:	02c10f93          	addi	t6,sp,44
   229d0:	000fa783          	lw	a5,0(t6)
   229d4:	ffcfa683          	lw	a3,-4(t6)
   229d8:	ffcf8f93          	addi	t6,t6,-4
   229dc:	00379793          	slli	a5,a5,0x3
   229e0:	01d6d693          	srli	a3,a3,0x1d
   229e4:	00d7e7b3          	or	a5,a5,a3
   229e8:	00ffa223          	sw	a5,4(t6)
   229ec:	fff812e3          	bne	a6,t6,229d0 <__subtf3+0xec>
   229f0:	02012783          	lw	a5,32(sp)
   229f4:	000086b7          	lui	a3,0x8
   229f8:	fff68693          	addi	a3,a3,-1 # 7fff <register_fini-0x8075>
   229fc:	00379793          	slli	a5,a5,0x3
   22a00:	02f12023          	sw	a5,32(sp)
   22a04:	02d31063          	bne	t1,a3,22a24 <__subtf3+0x140>
   22a08:	02812603          	lw	a2,40(sp)
   22a0c:	02412683          	lw	a3,36(sp)
   22a10:	00c6e6b3          	or	a3,a3,a2
   22a14:	02c12603          	lw	a2,44(sp)
   22a18:	00c6e6b3          	or	a3,a3,a2
   22a1c:	00f6e6b3          	or	a3,a3,a5
   22a20:	00069463          	bnez	a3,22a28 <__subtf3+0x144>
   22a24:	0018c893          	xori	a7,a7,1
   22a28:	406406b3          	sub	a3,s0,t1
   22a2c:	11289ce3          	bne	a7,s2,23344 <__subtf3+0xa60>
   22a30:	44d05a63          	blez	a3,22e84 <__subtf3+0x5a0>
   22a34:	01412e83          	lw	t4,20(sp)
   22a38:	01812e03          	lw	t3,24(sp)
   22a3c:	01c12883          	lw	a7,28(sp)
   22a40:	0a031c63          	bnez	t1,22af8 <__subtf3+0x214>
   22a44:	02412503          	lw	a0,36(sp)
   22a48:	02812603          	lw	a2,40(sp)
   22a4c:	02c12303          	lw	t1,44(sp)
   22a50:	00c565b3          	or	a1,a0,a2
   22a54:	0065e5b3          	or	a1,a1,t1
   22a58:	00f5e5b3          	or	a1,a1,a5
   22a5c:	00059e63          	bnez	a1,22a78 <__subtf3+0x194>
   22a60:	02e12823          	sw	a4,48(sp)
   22a64:	03d12a23          	sw	t4,52(sp)
   22a68:	03c12c23          	sw	t3,56(sp)
   22a6c:	03112e23          	sw	a7,60(sp)
   22a70:	00068413          	mv	s0,a3
   22a74:	0a00006f          	j	22b14 <__subtf3+0x230>
   22a78:	fff68593          	addi	a1,a3,-1
   22a7c:	04059a63          	bnez	a1,22ad0 <__subtf3+0x1ec>
   22a80:	00f707b3          	add	a5,a4,a5
   22a84:	00e7b733          	sltu	a4,a5,a4
   22a88:	01d505b3          	add	a1,a0,t4
   22a8c:	02f12823          	sw	a5,48(sp)
   22a90:	00e587b3          	add	a5,a1,a4
   22a94:	00e7b733          	sltu	a4,a5,a4
   22a98:	01d5b5b3          	sltu	a1,a1,t4
   22a9c:	00e5e733          	or	a4,a1,a4
   22aa0:	02f12a23          	sw	a5,52(sp)
   22aa4:	01c607b3          	add	a5,a2,t3
   22aa8:	00e786b3          	add	a3,a5,a4
   22aac:	00e6b733          	sltu	a4,a3,a4
   22ab0:	01c7b7b3          	sltu	a5,a5,t3
   22ab4:	00e7e7b3          	or	a5,a5,a4
   22ab8:	011308b3          	add	a7,t1,a7
   22abc:	011787b3          	add	a5,a5,a7
   22ac0:	02d12c23          	sw	a3,56(sp)
   22ac4:	02f12e23          	sw	a5,60(sp)
   22ac8:	00100413          	li	s0,1
   22acc:	32c0006f          	j	22df8 <__subtf3+0x514>
   22ad0:	000087b7          	lui	a5,0x8
   22ad4:	fff78793          	addi	a5,a5,-1 # 7fff <register_fini-0x8075>
   22ad8:	f8f684e3          	beq	a3,a5,22a60 <__subtf3+0x17c>
   22adc:	07400793          	li	a5,116
   22ae0:	1ab7d463          	bge	a5,a1,22c88 <__subtf3+0x3a4>
   22ae4:	02012623          	sw	zero,44(sp)
   22ae8:	02012423          	sw	zero,40(sp)
   22aec:	02012223          	sw	zero,36(sp)
   22af0:	00100793          	li	a5,1
   22af4:	2a80006f          	j	22d9c <__subtf3+0x4b8>
   22af8:	000087b7          	lui	a5,0x8
   22afc:	fff78793          	addi	a5,a5,-1 # 7fff <register_fini-0x8075>
   22b00:	16f41663          	bne	s0,a5,22c6c <__subtf3+0x388>
   22b04:	02e12823          	sw	a4,48(sp)
   22b08:	03d12a23          	sw	t4,52(sp)
   22b0c:	03c12c23          	sw	t3,56(sp)
   22b10:	03112e23          	sw	a7,60(sp)
   22b14:	03012783          	lw	a5,48(sp)
   22b18:	0077f713          	andi	a4,a5,7
   22b1c:	04070463          	beqz	a4,22b64 <__subtf3+0x280>
   22b20:	00f7f713          	andi	a4,a5,15
   22b24:	00400693          	li	a3,4
   22b28:	02d70e63          	beq	a4,a3,22b64 <__subtf3+0x280>
   22b2c:	03412703          	lw	a4,52(sp)
   22b30:	00478793          	addi	a5,a5,4
   22b34:	02f12823          	sw	a5,48(sp)
   22b38:	0047b793          	sltiu	a5,a5,4
   22b3c:	00e78733          	add	a4,a5,a4
   22b40:	00f737b3          	sltu	a5,a4,a5
   22b44:	02e12a23          	sw	a4,52(sp)
   22b48:	03812703          	lw	a4,56(sp)
   22b4c:	00e78733          	add	a4,a5,a4
   22b50:	02e12c23          	sw	a4,56(sp)
   22b54:	00f73733          	sltu	a4,a4,a5
   22b58:	03c12783          	lw	a5,60(sp)
   22b5c:	00f70733          	add	a4,a4,a5
   22b60:	02e12e23          	sw	a4,60(sp)
   22b64:	03c12783          	lw	a5,60(sp)
   22b68:	00c79713          	slli	a4,a5,0xc
   22b6c:	02075463          	bgez	a4,22b94 <__subtf3+0x2b0>
   22b70:	00008737          	lui	a4,0x8
   22b74:	00140413          	addi	s0,s0,1
   22b78:	fff70713          	addi	a4,a4,-1 # 7fff <register_fini-0x8075>
   22b7c:	00e41463          	bne	s0,a4,22b84 <__subtf3+0x2a0>
   22b80:	2f00106f          	j	23e70 <__subtf3+0x158c>
   22b84:	fff80737          	lui	a4,0xfff80
   22b88:	fff70713          	addi	a4,a4,-1 # fff7ffff <__BSS_END__+0xfff590d3>
   22b8c:	00e7f7b3          	and	a5,a5,a4
   22b90:	02f12e23          	sw	a5,60(sp)
   22b94:	03010793          	addi	a5,sp,48
   22b98:	03c10613          	addi	a2,sp,60
   22b9c:	0007a703          	lw	a4,0(a5)
   22ba0:	0047a683          	lw	a3,4(a5)
   22ba4:	00478793          	addi	a5,a5,4
   22ba8:	00375713          	srli	a4,a4,0x3
   22bac:	01d69693          	slli	a3,a3,0x1d
   22bb0:	00d76733          	or	a4,a4,a3
   22bb4:	fee7ae23          	sw	a4,-4(a5)
   22bb8:	fef612e3          	bne	a2,a5,22b9c <__subtf3+0x2b8>
   22bbc:	03c12783          	lw	a5,60(sp)
   22bc0:	000086b7          	lui	a3,0x8
   22bc4:	0037d713          	srli	a4,a5,0x3
   22bc8:	02e12e23          	sw	a4,60(sp)
   22bcc:	fff68793          	addi	a5,a3,-1 # 7fff <register_fini-0x8075>
   22bd0:	02f41a63          	bne	s0,a5,22c04 <__subtf3+0x320>
   22bd4:	03412603          	lw	a2,52(sp)
   22bd8:	03012783          	lw	a5,48(sp)
   22bdc:	00c7e7b3          	or	a5,a5,a2
   22be0:	03812603          	lw	a2,56(sp)
   22be4:	00c7e7b3          	or	a5,a5,a2
   22be8:	00e7e7b3          	or	a5,a5,a4
   22bec:	00078c63          	beqz	a5,22c04 <__subtf3+0x320>
   22bf0:	02d12e23          	sw	a3,60(sp)
   22bf4:	02012c23          	sw	zero,56(sp)
   22bf8:	02012a23          	sw	zero,52(sp)
   22bfc:	02012823          	sw	zero,48(sp)
   22c00:	00000913          	li	s2,0
   22c04:	03c12783          	lw	a5,60(sp)
   22c08:	01141413          	slli	s0,s0,0x11
   22c0c:	01145413          	srli	s0,s0,0x11
   22c10:	00f11623          	sh	a5,12(sp)
   22c14:	03012783          	lw	a5,48(sp)
   22c18:	00f91913          	slli	s2,s2,0xf
   22c1c:	00896933          	or	s2,s2,s0
   22c20:	00f4a023          	sw	a5,0(s1)
   22c24:	03412783          	lw	a5,52(sp)
   22c28:	01211723          	sh	s2,14(sp)
   22c2c:	05c12083          	lw	ra,92(sp)
   22c30:	00f4a223          	sw	a5,4(s1)
   22c34:	03812783          	lw	a5,56(sp)
   22c38:	05812403          	lw	s0,88(sp)
   22c3c:	05012903          	lw	s2,80(sp)
   22c40:	00f4a423          	sw	a5,8(s1)
   22c44:	00c12783          	lw	a5,12(sp)
   22c48:	04c12983          	lw	s3,76(sp)
   22c4c:	04812a03          	lw	s4,72(sp)
   22c50:	00f4a623          	sw	a5,12(s1)
   22c54:	04412a83          	lw	s5,68(sp)
   22c58:	04012b03          	lw	s6,64(sp)
   22c5c:	00048513          	mv	a0,s1
   22c60:	05412483          	lw	s1,84(sp)
   22c64:	06010113          	addi	sp,sp,96
   22c68:	00008067          	ret
   22c6c:	02c12783          	lw	a5,44(sp)
   22c70:	00080637          	lui	a2,0x80
   22c74:	00c7e7b3          	or	a5,a5,a2
   22c78:	02f12623          	sw	a5,44(sp)
   22c7c:	07400793          	li	a5,116
   22c80:	e6d7c2e3          	blt	a5,a3,22ae4 <__subtf3+0x200>
   22c84:	00068593          	mv	a1,a3
   22c88:	4055d693          	srai	a3,a1,0x5
   22c8c:	00000793          	li	a5,0
   22c90:	00000613          	li	a2,0
   22c94:	04d61663          	bne	a2,a3,22ce0 <__subtf3+0x3fc>
   22c98:	01f5f593          	andi	a1,a1,31
   22c9c:	00269313          	slli	t1,a3,0x2
   22ca0:	04059c63          	bnez	a1,22cf8 <__subtf3+0x414>
   22ca4:	00300593          	li	a1,3
   22ca8:	00000613          	li	a2,0
   22cac:	40d585b3          	sub	a1,a1,a3
   22cb0:	006f8533          	add	a0,t6,t1
   22cb4:	00052503          	lw	a0,0(a0)
   22cb8:	00160613          	addi	a2,a2,1 # 80001 <__BSS_END__+0x590d5>
   22cbc:	004f8f93          	addi	t6,t6,4
   22cc0:	feafae23          	sw	a0,-4(t6)
   22cc4:	fec5d6e3          	bge	a1,a2,22cb0 <__subtf3+0x3cc>
   22cc8:	00400613          	li	a2,4
   22ccc:	40d606b3          	sub	a3,a2,a3
   22cd0:	00100613          	li	a2,1
   22cd4:	06d05c63          	blez	a3,22d4c <__subtf3+0x468>
   22cd8:	00068613          	mv	a2,a3
   22cdc:	0700006f          	j	22d4c <__subtf3+0x468>
   22ce0:	00261513          	slli	a0,a2,0x2
   22ce4:	00a80533          	add	a0,a6,a0
   22ce8:	00052503          	lw	a0,0(a0)
   22cec:	00160613          	addi	a2,a2,1
   22cf0:	00a7e7b3          	or	a5,a5,a0
   22cf4:	fa1ff06f          	j	22c94 <__subtf3+0x3b0>
   22cf8:	04010613          	addi	a2,sp,64
   22cfc:	00660633          	add	a2,a2,t1
   22d00:	fe062603          	lw	a2,-32(a2)
   22d04:	02000f93          	li	t6,32
   22d08:	40bf8fb3          	sub	t6,t6,a1
   22d0c:	01f61633          	sll	a2,a2,t6
   22d10:	00300513          	li	a0,3
   22d14:	00c7e7b3          	or	a5,a5,a2
   22d18:	00680333          	add	t1,a6,t1
   22d1c:	00000f13          	li	t5,0
   22d20:	40d50533          	sub	a0,a0,a3
   22d24:	00430313          	addi	t1,t1,4
   22d28:	02af4663          	blt	t5,a0,22d54 <__subtf3+0x470>
   22d2c:	00400613          	li	a2,4
   22d30:	40d60633          	sub	a2,a2,a3
   22d34:	00251513          	slli	a0,a0,0x2
   22d38:	04010693          	addi	a3,sp,64
   22d3c:	00a68533          	add	a0,a3,a0
   22d40:	02c12683          	lw	a3,44(sp)
   22d44:	00b6d5b3          	srl	a1,a3,a1
   22d48:	feb52023          	sw	a1,-32(a0)
   22d4c:	00400593          	li	a1,4
   22d50:	03c0006f          	j	22d8c <__subtf3+0x4a8>
   22d54:	ffc32603          	lw	a2,-4(t1)
   22d58:	00032383          	lw	t2,0(t1)
   22d5c:	002f1293          	slli	t0,t5,0x2
   22d60:	00b65633          	srl	a2,a2,a1
   22d64:	01f393b3          	sll	t2,t2,t6
   22d68:	005802b3          	add	t0,a6,t0
   22d6c:	00766633          	or	a2,a2,t2
   22d70:	00c2a023          	sw	a2,0(t0)
   22d74:	001f0f13          	addi	t5,t5,1
   22d78:	fadff06f          	j	22d24 <__subtf3+0x440>
   22d7c:	00261693          	slli	a3,a2,0x2
   22d80:	00d806b3          	add	a3,a6,a3
   22d84:	0006a023          	sw	zero,0(a3)
   22d88:	00160613          	addi	a2,a2,1
   22d8c:	feb618e3          	bne	a2,a1,22d7c <__subtf3+0x498>
   22d90:	02012683          	lw	a3,32(sp)
   22d94:	00f037b3          	snez	a5,a5
   22d98:	00f6e7b3          	or	a5,a3,a5
   22d9c:	02f12023          	sw	a5,32(sp)
   22da0:	02012583          	lw	a1,32(sp)
   22da4:	02412603          	lw	a2,36(sp)
   22da8:	00b705b3          	add	a1,a4,a1
   22dac:	00e5b733          	sltu	a4,a1,a4
   22db0:	00ce8633          	add	a2,t4,a2
   22db4:	00e606b3          	add	a3,a2,a4
   22db8:	02b12823          	sw	a1,48(sp)
   22dbc:	01d635b3          	sltu	a1,a2,t4
   22dc0:	02812603          	lw	a2,40(sp)
   22dc4:	00e6b733          	sltu	a4,a3,a4
   22dc8:	00e5e5b3          	or	a1,a1,a4
   22dcc:	02d12a23          	sw	a3,52(sp)
   22dd0:	00ce06b3          	add	a3,t3,a2
   22dd4:	00b687b3          	add	a5,a3,a1
   22dd8:	00b7b5b3          	sltu	a1,a5,a1
   22ddc:	02f12c23          	sw	a5,56(sp)
   22de0:	02c12783          	lw	a5,44(sp)
   22de4:	01c6b6b3          	sltu	a3,a3,t3
   22de8:	00b6e6b3          	or	a3,a3,a1
   22dec:	00f888b3          	add	a7,a7,a5
   22df0:	011686b3          	add	a3,a3,a7
   22df4:	02d12e23          	sw	a3,60(sp)
   22df8:	03c12783          	lw	a5,60(sp)
   22dfc:	00c79713          	slli	a4,a5,0xc
   22e00:	d0075ae3          	bgez	a4,22b14 <__subtf3+0x230>
   22e04:	fff80737          	lui	a4,0xfff80
   22e08:	fff70713          	addi	a4,a4,-1 # fff7ffff <__BSS_END__+0xfff590d3>
   22e0c:	00e7f7b3          	and	a5,a5,a4
   22e10:	02f12e23          	sw	a5,60(sp)
   22e14:	03012783          	lw	a5,48(sp)
   22e18:	00140413          	addi	s0,s0,1
   22e1c:	03c10593          	addi	a1,sp,60
   22e20:	01f79713          	slli	a4,a5,0x1f
   22e24:	03010793          	addi	a5,sp,48
   22e28:	0007a683          	lw	a3,0(a5)
   22e2c:	0047a603          	lw	a2,4(a5)
   22e30:	00478793          	addi	a5,a5,4
   22e34:	0016d693          	srli	a3,a3,0x1
   22e38:	01f61613          	slli	a2,a2,0x1f
   22e3c:	00c6e6b3          	or	a3,a3,a2
   22e40:	fed7ae23          	sw	a3,-4(a5)
   22e44:	fef592e3          	bne	a1,a5,22e28 <__subtf3+0x544>
   22e48:	03c12783          	lw	a5,60(sp)
   22e4c:	0017d793          	srli	a5,a5,0x1
   22e50:	02f12e23          	sw	a5,60(sp)
   22e54:	00e037b3          	snez	a5,a4
   22e58:	03012703          	lw	a4,48(sp)
   22e5c:	00f767b3          	or	a5,a4,a5
   22e60:	02f12823          	sw	a5,48(sp)
   22e64:	000087b7          	lui	a5,0x8
   22e68:	fff78793          	addi	a5,a5,-1 # 7fff <register_fini-0x8075>
   22e6c:	caf414e3          	bne	s0,a5,22b14 <__subtf3+0x230>
   22e70:	02012e23          	sw	zero,60(sp)
   22e74:	02012c23          	sw	zero,56(sp)
   22e78:	02012a23          	sw	zero,52(sp)
   22e7c:	02012823          	sw	zero,48(sp)
   22e80:	c95ff06f          	j	22b14 <__subtf3+0x230>
   22e84:	02412603          	lw	a2,36(sp)
   22e88:	02812583          	lw	a1,40(sp)
   22e8c:	02c12503          	lw	a0,44(sp)
   22e90:	2a068463          	beqz	a3,23138 <__subtf3+0x854>
   22e94:	408308b3          	sub	a7,t1,s0
   22e98:	0a041a63          	bnez	s0,22f4c <__subtf3+0x668>
   22e9c:	01412803          	lw	a6,20(sp)
   22ea0:	01812683          	lw	a3,24(sp)
   22ea4:	01c12f83          	lw	t6,28(sp)
   22ea8:	00d86e33          	or	t3,a6,a3
   22eac:	01fe6e33          	or	t3,t3,t6
   22eb0:	00ee6e33          	or	t3,t3,a4
   22eb4:	000e1e63          	bnez	t3,22ed0 <__subtf3+0x5ec>
   22eb8:	02f12823          	sw	a5,48(sp)
   22ebc:	02c12a23          	sw	a2,52(sp)
   22ec0:	02b12c23          	sw	a1,56(sp)
   22ec4:	02a12e23          	sw	a0,60(sp)
   22ec8:	00088413          	mv	s0,a7
   22ecc:	c49ff06f          	j	22b14 <__subtf3+0x230>
   22ed0:	fff88e13          	addi	t3,a7,-1
   22ed4:	040e1863          	bnez	t3,22f24 <__subtf3+0x640>
   22ed8:	00f70733          	add	a4,a4,a5
   22edc:	00f737b3          	sltu	a5,a4,a5
   22ee0:	00c80833          	add	a6,a6,a2
   22ee4:	02e12823          	sw	a4,48(sp)
   22ee8:	00f80733          	add	a4,a6,a5
   22eec:	00f737b3          	sltu	a5,a4,a5
   22ef0:	00c83633          	sltu	a2,a6,a2
   22ef4:	00f66633          	or	a2,a2,a5
   22ef8:	02e12a23          	sw	a4,52(sp)
   22efc:	00b68733          	add	a4,a3,a1
   22f00:	00c707b3          	add	a5,a4,a2
   22f04:	00c7b633          	sltu	a2,a5,a2
   22f08:	00b73733          	sltu	a4,a4,a1
   22f0c:	00c76733          	or	a4,a4,a2
   22f10:	00af8533          	add	a0,t6,a0
   22f14:	00a70533          	add	a0,a4,a0
   22f18:	02f12c23          	sw	a5,56(sp)
   22f1c:	02a12e23          	sw	a0,60(sp)
   22f20:	ba9ff06f          	j	22ac8 <__subtf3+0x1e4>
   22f24:	00008737          	lui	a4,0x8
   22f28:	fff70713          	addi	a4,a4,-1 # 7fff <register_fini-0x8075>
   22f2c:	f8e886e3          	beq	a7,a4,22eb8 <__subtf3+0x5d4>
   22f30:	07400713          	li	a4,116
   22f34:	05c75c63          	bge	a4,t3,22f8c <__subtf3+0x6a8>
   22f38:	00012e23          	sw	zero,28(sp)
   22f3c:	00012c23          	sw	zero,24(sp)
   22f40:	00012a23          	sw	zero,20(sp)
   22f44:	00100713          	li	a4,1
   22f48:	18c0006f          	j	230d4 <__subtf3+0x7f0>
   22f4c:	00008737          	lui	a4,0x8
   22f50:	fff70713          	addi	a4,a4,-1 # 7fff <register_fini-0x8075>
   22f54:	00e31e63          	bne	t1,a4,22f70 <__subtf3+0x68c>
   22f58:	02f12823          	sw	a5,48(sp)
   22f5c:	02c12a23          	sw	a2,52(sp)
   22f60:	02b12c23          	sw	a1,56(sp)
   22f64:	02a12e23          	sw	a0,60(sp)
   22f68:	00030413          	mv	s0,t1
   22f6c:	ba9ff06f          	j	22b14 <__subtf3+0x230>
   22f70:	01c12703          	lw	a4,28(sp)
   22f74:	000806b7          	lui	a3,0x80
   22f78:	00d76733          	or	a4,a4,a3
   22f7c:	00e12e23          	sw	a4,28(sp)
   22f80:	07400713          	li	a4,116
   22f84:	fb174ae3          	blt	a4,a7,22f38 <__subtf3+0x654>
   22f88:	00088e13          	mv	t3,a7
   22f8c:	41fe5693          	srai	a3,t3,0x1f
   22f90:	01f6f693          	andi	a3,a3,31
   22f94:	01c686b3          	add	a3,a3,t3
   22f98:	4056df93          	srai	t6,a3,0x5
   22f9c:	00000293          	li	t0,0
   22fa0:	00000713          	li	a4,0
   22fa4:	05f74a63          	blt	a4,t6,22ff8 <__subtf3+0x714>
   22fa8:	000f8813          	mv	a6,t6
   22fac:	000fd463          	bgez	t6,22fb4 <__subtf3+0x6d0>
   22fb0:	00000813          	li	a6,0
   22fb4:	01fe7713          	andi	a4,t3,31
   22fb8:	002f9893          	slli	a7,t6,0x2
   22fbc:	04071a63          	bnez	a4,23010 <__subtf3+0x72c>
   22fc0:	00300693          	li	a3,3
   22fc4:	41f686b3          	sub	a3,a3,t6
   22fc8:	011f0833          	add	a6,t5,a7
   22fcc:	00082803          	lw	a6,0(a6)
   22fd0:	00170713          	addi	a4,a4,1
   22fd4:	004f0f13          	addi	t5,t5,4
   22fd8:	ff0f2e23          	sw	a6,-4(t5)
   22fdc:	fee6d6e3          	bge	a3,a4,22fc8 <__subtf3+0x6e4>
   22fe0:	00400693          	li	a3,4
   22fe4:	41f68fb3          	sub	t6,a3,t6
   22fe8:	00100693          	li	a3,1
   22fec:	09f05c63          	blez	t6,23084 <__subtf3+0x7a0>
   22ff0:	000f8693          	mv	a3,t6
   22ff4:	0900006f          	j	23084 <__subtf3+0x7a0>
   22ff8:	00271693          	slli	a3,a4,0x2
   22ffc:	00de86b3          	add	a3,t4,a3
   23000:	0006a683          	lw	a3,0(a3) # 80000 <__BSS_END__+0x590d4>
   23004:	00170713          	addi	a4,a4,1
   23008:	00d2e2b3          	or	t0,t0,a3
   2300c:	f99ff06f          	j	22fa4 <__subtf3+0x6c0>
   23010:	80000737          	lui	a4,0x80000
   23014:	01f70713          	addi	a4,a4,31 # 8000001f <__BSS_END__+0x7ffd90f3>
   23018:	00ee7733          	and	a4,t3,a4
   2301c:	00075863          	bgez	a4,2302c <__subtf3+0x748>
   23020:	fff70713          	addi	a4,a4,-1
   23024:	fe076713          	ori	a4,a4,-32
   23028:	00170713          	addi	a4,a4,1
   2302c:	04010693          	addi	a3,sp,64
   23030:	00281813          	slli	a6,a6,0x2
   23034:	01068833          	add	a6,a3,a6
   23038:	fd082683          	lw	a3,-48(a6)
   2303c:	02000f13          	li	t5,32
   23040:	40ef0f33          	sub	t5,t5,a4
   23044:	01e696b3          	sll	a3,a3,t5
   23048:	00300813          	li	a6,3
   2304c:	00d2e2b3          	or	t0,t0,a3
   23050:	011e88b3          	add	a7,t4,a7
   23054:	00000e13          	li	t3,0
   23058:	41f80833          	sub	a6,a6,t6
   2305c:	00488893          	addi	a7,a7,4
   23060:	030e4663          	blt	t3,a6,2308c <__subtf3+0x7a8>
   23064:	04010893          	addi	a7,sp,64
   23068:	00281813          	slli	a6,a6,0x2
   2306c:	01088833          	add	a6,a7,a6
   23070:	01c12883          	lw	a7,28(sp)
   23074:	00400693          	li	a3,4
   23078:	41f686b3          	sub	a3,a3,t6
   2307c:	00e8d733          	srl	a4,a7,a4
   23080:	fce82823          	sw	a4,-48(a6)
   23084:	00300813          	li	a6,3
   23088:	03c0006f          	j	230c4 <__subtf3+0x7e0>
   2308c:	ffc8a683          	lw	a3,-4(a7)
   23090:	0008a403          	lw	s0,0(a7)
   23094:	002e1393          	slli	t2,t3,0x2
   23098:	00e6d6b3          	srl	a3,a3,a4
   2309c:	01e41433          	sll	s0,s0,t5
   230a0:	007e83b3          	add	t2,t4,t2
   230a4:	0086e6b3          	or	a3,a3,s0
   230a8:	00d3a023          	sw	a3,0(t2)
   230ac:	001e0e13          	addi	t3,t3,1
   230b0:	fadff06f          	j	2305c <__subtf3+0x778>
   230b4:	00269713          	slli	a4,a3,0x2
   230b8:	00ee8733          	add	a4,t4,a4
   230bc:	00072023          	sw	zero,0(a4)
   230c0:	00168693          	addi	a3,a3,1
   230c4:	fed858e3          	bge	a6,a3,230b4 <__subtf3+0x7d0>
   230c8:	01012683          	lw	a3,16(sp)
   230cc:	00503733          	snez	a4,t0
   230d0:	00e6e733          	or	a4,a3,a4
   230d4:	00e12823          	sw	a4,16(sp)
   230d8:	01012703          	lw	a4,16(sp)
   230dc:	01412683          	lw	a3,20(sp)
   230e0:	00030413          	mv	s0,t1
   230e4:	00e78733          	add	a4,a5,a4
   230e8:	00f737b3          	sltu	a5,a4,a5
   230ec:	00d606b3          	add	a3,a2,a3
   230f0:	02e12823          	sw	a4,48(sp)
   230f4:	00f68733          	add	a4,a3,a5
   230f8:	00f737b3          	sltu	a5,a4,a5
   230fc:	02e12a23          	sw	a4,52(sp)
   23100:	01812703          	lw	a4,24(sp)
   23104:	00c6b633          	sltu	a2,a3,a2
   23108:	00f66633          	or	a2,a2,a5
   2310c:	00e58733          	add	a4,a1,a4
   23110:	00c707b3          	add	a5,a4,a2
   23114:	00b73733          	sltu	a4,a4,a1
   23118:	01c12583          	lw	a1,28(sp)
   2311c:	00c7b633          	sltu	a2,a5,a2
   23120:	00c76733          	or	a4,a4,a2
   23124:	00b50533          	add	a0,a0,a1
   23128:	00a70533          	add	a0,a4,a0
   2312c:	02f12c23          	sw	a5,56(sp)
   23130:	02a12e23          	sw	a0,60(sp)
   23134:	cc5ff06f          	j	22df8 <__subtf3+0x514>
   23138:	00008fb7          	lui	t6,0x8
   2313c:	00140693          	addi	a3,s0,1
   23140:	ffef8813          	addi	a6,t6,-2 # 7ffe <register_fini-0x8076>
   23144:	0106f833          	and	a6,a3,a6
   23148:	01412f03          	lw	t5,20(sp)
   2314c:	01812e83          	lw	t4,24(sp)
   23150:	01c12e03          	lw	t3,28(sp)
   23154:	03010893          	addi	a7,sp,48
   23158:	03c10313          	addi	t1,sp,60
   2315c:	14081663          	bnez	a6,232a8 <__subtf3+0x9c4>
   23160:	01df6833          	or	a6,t5,t4
   23164:	01c86833          	or	a6,a6,t3
   23168:	00e86833          	or	a6,a6,a4
   2316c:	0a041663          	bnez	s0,23218 <__subtf3+0x934>
   23170:	00081c63          	bnez	a6,23188 <__subtf3+0x8a4>
   23174:	02f12823          	sw	a5,48(sp)
   23178:	02c12a23          	sw	a2,52(sp)
   2317c:	02b12c23          	sw	a1,56(sp)
   23180:	02a12e23          	sw	a0,60(sp)
   23184:	991ff06f          	j	22b14 <__subtf3+0x230>
   23188:	00b666b3          	or	a3,a2,a1
   2318c:	00a6e6b3          	or	a3,a3,a0
   23190:	00f6e6b3          	or	a3,a3,a5
   23194:	00069c63          	bnez	a3,231ac <__subtf3+0x8c8>
   23198:	02e12823          	sw	a4,48(sp)
   2319c:	03e12a23          	sw	t5,52(sp)
   231a0:	03d12c23          	sw	t4,56(sp)
   231a4:	03c12e23          	sw	t3,60(sp)
   231a8:	96dff06f          	j	22b14 <__subtf3+0x230>
   231ac:	00f707b3          	add	a5,a4,a5
   231b0:	00e7b733          	sltu	a4,a5,a4
   231b4:	00cf06b3          	add	a3,t5,a2
   231b8:	02f12823          	sw	a5,48(sp)
   231bc:	00e687b3          	add	a5,a3,a4
   231c0:	01e6b633          	sltu	a2,a3,t5
   231c4:	00e7b733          	sltu	a4,a5,a4
   231c8:	00e66733          	or	a4,a2,a4
   231cc:	00be85b3          	add	a1,t4,a1
   231d0:	00e58633          	add	a2,a1,a4
   231d4:	00e63733          	sltu	a4,a2,a4
   231d8:	01d5b5b3          	sltu	a1,a1,t4
   231dc:	00e5e5b3          	or	a1,a1,a4
   231e0:	00ae0533          	add	a0,t3,a0
   231e4:	00a585b3          	add	a1,a1,a0
   231e8:	02f12a23          	sw	a5,52(sp)
   231ec:	02c12c23          	sw	a2,56(sp)
   231f0:	00c59793          	slli	a5,a1,0xc
   231f4:	0007c663          	bltz	a5,23200 <__subtf3+0x91c>
   231f8:	02b12e23          	sw	a1,60(sp)
   231fc:	919ff06f          	j	22b14 <__subtf3+0x230>
   23200:	fff807b7          	lui	a5,0xfff80
   23204:	fff78793          	addi	a5,a5,-1 # fff7ffff <__BSS_END__+0xfff590d3>
   23208:	00f5f5b3          	and	a1,a1,a5
   2320c:	02b12e23          	sw	a1,60(sp)
   23210:	00100413          	li	s0,1
   23214:	901ff06f          	j	22b14 <__subtf3+0x230>
   23218:	00081e63          	bnez	a6,23234 <__subtf3+0x950>
   2321c:	02f12823          	sw	a5,48(sp)
   23220:	02c12a23          	sw	a2,52(sp)
   23224:	02b12c23          	sw	a1,56(sp)
   23228:	02a12e23          	sw	a0,60(sp)
   2322c:	ffff8413          	addi	s0,t6,-1
   23230:	8e5ff06f          	j	22b14 <__subtf3+0x230>
   23234:	00b66633          	or	a2,a2,a1
   23238:	00a66533          	or	a0,a2,a0
   2323c:	00f567b3          	or	a5,a0,a5
   23240:	00079c63          	bnez	a5,23258 <__subtf3+0x974>
   23244:	02e12823          	sw	a4,48(sp)
   23248:	03e12a23          	sw	t5,52(sp)
   2324c:	03d12c23          	sw	t4,56(sp)
   23250:	03c12e23          	sw	t3,60(sp)
   23254:	fd9ff06f          	j	2322c <__subtf3+0x948>
   23258:	03f12e23          	sw	t6,60(sp)
   2325c:	02012c23          	sw	zero,56(sp)
   23260:	02012a23          	sw	zero,52(sp)
   23264:	02012823          	sw	zero,48(sp)
   23268:	00030713          	mv	a4,t1
   2326c:	00072783          	lw	a5,0(a4)
   23270:	ffc72683          	lw	a3,-4(a4)
   23274:	ffc70713          	addi	a4,a4,-4
   23278:	00379793          	slli	a5,a5,0x3
   2327c:	01d6d693          	srli	a3,a3,0x1d
   23280:	00d7e7b3          	or	a5,a5,a3
   23284:	00f72223          	sw	a5,4(a4)
   23288:	fee892e3          	bne	a7,a4,2326c <__subtf3+0x988>
   2328c:	03012783          	lw	a5,48(sp)
   23290:	00008437          	lui	s0,0x8
   23294:	00000913          	li	s2,0
   23298:	00379793          	slli	a5,a5,0x3
   2329c:	02f12823          	sw	a5,48(sp)
   232a0:	fff40413          	addi	s0,s0,-1 # 7fff <register_fini-0x8075>
   232a4:	871ff06f          	j	22b14 <__subtf3+0x230>
   232a8:	00f707b3          	add	a5,a4,a5
   232ac:	00e7b733          	sltu	a4,a5,a4
   232b0:	00cf0633          	add	a2,t5,a2
   232b4:	02f12823          	sw	a5,48(sp)
   232b8:	00e607b3          	add	a5,a2,a4
   232bc:	00e7b733          	sltu	a4,a5,a4
   232c0:	01e63633          	sltu	a2,a2,t5
   232c4:	00e66733          	or	a4,a2,a4
   232c8:	00be8633          	add	a2,t4,a1
   232cc:	02f12a23          	sw	a5,52(sp)
   232d0:	00e607b3          	add	a5,a2,a4
   232d4:	01d635b3          	sltu	a1,a2,t4
   232d8:	00e7b633          	sltu	a2,a5,a4
   232dc:	00c5e633          	or	a2,a1,a2
   232e0:	00ae0533          	add	a0,t3,a0
   232e4:	00a60533          	add	a0,a2,a0
   232e8:	02f12c23          	sw	a5,56(sp)
   232ec:	02a12e23          	sw	a0,60(sp)
   232f0:	00088793          	mv	a5,a7
   232f4:	0007a703          	lw	a4,0(a5)
   232f8:	0047a603          	lw	a2,4(a5)
   232fc:	00478793          	addi	a5,a5,4
   23300:	00175713          	srli	a4,a4,0x1
   23304:	01f61613          	slli	a2,a2,0x1f
   23308:	00c76733          	or	a4,a4,a2
   2330c:	fee7ae23          	sw	a4,-4(a5)
   23310:	fef312e3          	bne	t1,a5,232f4 <__subtf3+0xa10>
   23314:	000087b7          	lui	a5,0x8
   23318:	fff78793          	addi	a5,a5,-1 # 7fff <register_fini-0x8075>
   2331c:	00f68a63          	beq	a3,a5,23330 <__subtf3+0xa4c>
   23320:	03c12783          	lw	a5,60(sp)
   23324:	0017d793          	srli	a5,a5,0x1
   23328:	02f12e23          	sw	a5,60(sp)
   2332c:	f44ff06f          	j	22a70 <__subtf3+0x18c>
   23330:	02012e23          	sw	zero,60(sp)
   23334:	02012c23          	sw	zero,56(sp)
   23338:	02012a23          	sw	zero,52(sp)
   2333c:	02012823          	sw	zero,48(sp)
   23340:	f30ff06f          	j	22a70 <__subtf3+0x18c>
   23344:	2ad05e63          	blez	a3,23600 <__subtf3+0xd1c>
   23348:	01412883          	lw	a7,20(sp)
   2334c:	01812e03          	lw	t3,24(sp)
   23350:	01c12e83          	lw	t4,28(sp)
   23354:	0c031463          	bnez	t1,2341c <__subtf3+0xb38>
   23358:	02412303          	lw	t1,36(sp)
   2335c:	02812503          	lw	a0,40(sp)
   23360:	02c12583          	lw	a1,44(sp)
   23364:	00a36633          	or	a2,t1,a0
   23368:	00b66633          	or	a2,a2,a1
   2336c:	00f66633          	or	a2,a2,a5
   23370:	00061c63          	bnez	a2,23388 <__subtf3+0xaa4>
   23374:	02e12823          	sw	a4,48(sp)
   23378:	03112a23          	sw	a7,52(sp)
   2337c:	03c12c23          	sw	t3,56(sp)
   23380:	03d12e23          	sw	t4,60(sp)
   23384:	eecff06f          	j	22a70 <__subtf3+0x18c>
   23388:	fff68613          	addi	a2,a3,-1
   2338c:	06061463          	bnez	a2,233f4 <__subtf3+0xb10>
   23390:	40f707b3          	sub	a5,a4,a5
   23394:	406886b3          	sub	a3,a7,t1
   23398:	00f73833          	sltu	a6,a4,a5
   2339c:	00d8bf33          	sltu	t5,a7,a3
   233a0:	41068833          	sub	a6,a3,a6
   233a4:	00000693          	li	a3,0
   233a8:	00f77663          	bgeu	a4,a5,233b4 <__subtf3+0xad0>
   233ac:	411308b3          	sub	a7,t1,a7
   233b0:	0018b693          	seqz	a3,a7
   233b4:	01e6e8b3          	or	a7,a3,t5
   233b8:	40ae06b3          	sub	a3,t3,a0
   233bc:	00de3333          	sltu	t1,t3,a3
   233c0:	411686b3          	sub	a3,a3,a7
   233c4:	00088663          	beqz	a7,233d0 <__subtf3+0xaec>
   233c8:	41c50633          	sub	a2,a0,t3
   233cc:	00163613          	seqz	a2,a2
   233d0:	40be8733          	sub	a4,t4,a1
   233d4:	00666633          	or	a2,a2,t1
   233d8:	40c70733          	sub	a4,a4,a2
   233dc:	02e12e23          	sw	a4,60(sp)
   233e0:	02d12c23          	sw	a3,56(sp)
   233e4:	03012a23          	sw	a6,52(sp)
   233e8:	02f12823          	sw	a5,48(sp)
   233ec:	00100413          	li	s0,1
   233f0:	1f00006f          	j	235e0 <__subtf3+0xcfc>
   233f4:	000087b7          	lui	a5,0x8
   233f8:	fff78793          	addi	a5,a5,-1 # 7fff <register_fini-0x8075>
   233fc:	f6f68ce3          	beq	a3,a5,23374 <__subtf3+0xa90>
   23400:	07400793          	li	a5,116
   23404:	04c7da63          	bge	a5,a2,23458 <__subtf3+0xb74>
   23408:	02012623          	sw	zero,44(sp)
   2340c:	02012423          	sw	zero,40(sp)
   23410:	02012223          	sw	zero,36(sp)
   23414:	00100793          	li	a5,1
   23418:	1540006f          	j	2356c <__subtf3+0xc88>
   2341c:	000087b7          	lui	a5,0x8
   23420:	fff78793          	addi	a5,a5,-1 # 7fff <register_fini-0x8075>
   23424:	00f41c63          	bne	s0,a5,2343c <__subtf3+0xb58>
   23428:	02e12823          	sw	a4,48(sp)
   2342c:	03112a23          	sw	a7,52(sp)
   23430:	03c12c23          	sw	t3,56(sp)
   23434:	03d12e23          	sw	t4,60(sp)
   23438:	edcff06f          	j	22b14 <__subtf3+0x230>
   2343c:	02c12783          	lw	a5,44(sp)
   23440:	00080637          	lui	a2,0x80
   23444:	00c7e7b3          	or	a5,a5,a2
   23448:	02f12623          	sw	a5,44(sp)
   2344c:	07400793          	li	a5,116
   23450:	fad7cce3          	blt	a5,a3,23408 <__subtf3+0xb24>
   23454:	00068613          	mv	a2,a3
   23458:	40565513          	srai	a0,a2,0x5
   2345c:	00000f13          	li	t5,0
   23460:	00000793          	li	a5,0
   23464:	04a79663          	bne	a5,a0,234b0 <__subtf3+0xbcc>
   23468:	01f67593          	andi	a1,a2,31
   2346c:	00251613          	slli	a2,a0,0x2
   23470:	04059c63          	bnez	a1,234c8 <__subtf3+0xbe4>
   23474:	00300693          	li	a3,3
   23478:	00000793          	li	a5,0
   2347c:	40a686b3          	sub	a3,a3,a0
   23480:	00cf85b3          	add	a1,t6,a2
   23484:	0005a583          	lw	a1,0(a1)
   23488:	00178793          	addi	a5,a5,1
   2348c:	004f8f93          	addi	t6,t6,4
   23490:	febfae23          	sw	a1,-4(t6)
   23494:	fef6d6e3          	bge	a3,a5,23480 <__subtf3+0xb9c>
   23498:	00400793          	li	a5,4
   2349c:	40a78533          	sub	a0,a5,a0
   234a0:	00100793          	li	a5,1
   234a4:	06a05c63          	blez	a0,2351c <__subtf3+0xc38>
   234a8:	00050793          	mv	a5,a0
   234ac:	0700006f          	j	2351c <__subtf3+0xc38>
   234b0:	00279693          	slli	a3,a5,0x2
   234b4:	00d806b3          	add	a3,a6,a3
   234b8:	0006a683          	lw	a3,0(a3)
   234bc:	00178793          	addi	a5,a5,1
   234c0:	00df6f33          	or	t5,t5,a3
   234c4:	fa1ff06f          	j	23464 <__subtf3+0xb80>
   234c8:	04010793          	addi	a5,sp,64
   234cc:	00c787b3          	add	a5,a5,a2
   234d0:	fe07a783          	lw	a5,-32(a5)
   234d4:	02000f93          	li	t6,32
   234d8:	40bf8fb3          	sub	t6,t6,a1
   234dc:	01f797b3          	sll	a5,a5,t6
   234e0:	00300693          	li	a3,3
   234e4:	00ff6f33          	or	t5,t5,a5
   234e8:	00c80633          	add	a2,a6,a2
   234ec:	00000793          	li	a5,0
   234f0:	40a686b3          	sub	a3,a3,a0
   234f4:	00460613          	addi	a2,a2,4 # 80004 <__BSS_END__+0x590d8>
   234f8:	02d7c663          	blt	a5,a3,23524 <__subtf3+0xc40>
   234fc:	04010613          	addi	a2,sp,64
   23500:	00269693          	slli	a3,a3,0x2
   23504:	00d606b3          	add	a3,a2,a3
   23508:	02c12603          	lw	a2,44(sp)
   2350c:	00400793          	li	a5,4
   23510:	40a787b3          	sub	a5,a5,a0
   23514:	00b65633          	srl	a2,a2,a1
   23518:	fec6a023          	sw	a2,-32(a3)
   2351c:	00400613          	li	a2,4
   23520:	03c0006f          	j	2355c <__subtf3+0xc78>
   23524:	ffc62303          	lw	t1,-4(a2)
   23528:	00062383          	lw	t2,0(a2)
   2352c:	00279293          	slli	t0,a5,0x2
   23530:	00b35333          	srl	t1,t1,a1
   23534:	01f393b3          	sll	t2,t2,t6
   23538:	005802b3          	add	t0,a6,t0
   2353c:	00736333          	or	t1,t1,t2
   23540:	0062a023          	sw	t1,0(t0)
   23544:	00178793          	addi	a5,a5,1
   23548:	fadff06f          	j	234f4 <__subtf3+0xc10>
   2354c:	00279693          	slli	a3,a5,0x2
   23550:	00d806b3          	add	a3,a6,a3
   23554:	0006a023          	sw	zero,0(a3)
   23558:	00178793          	addi	a5,a5,1
   2355c:	fec798e3          	bne	a5,a2,2354c <__subtf3+0xc68>
   23560:	02012683          	lw	a3,32(sp)
   23564:	01e037b3          	snez	a5,t5
   23568:	00f6e7b3          	or	a5,a3,a5
   2356c:	02f12023          	sw	a5,32(sp)
   23570:	02012783          	lw	a5,32(sp)
   23574:	02412583          	lw	a1,36(sp)
   23578:	40f707b3          	sub	a5,a4,a5
   2357c:	40b88633          	sub	a2,a7,a1
   23580:	00f736b3          	sltu	a3,a4,a5
   23584:	00c8b533          	sltu	a0,a7,a2
   23588:	40d60633          	sub	a2,a2,a3
   2358c:	00000693          	li	a3,0
   23590:	00f77663          	bgeu	a4,a5,2359c <__subtf3+0xcb8>
   23594:	411588b3          	sub	a7,a1,a7
   23598:	0018b693          	seqz	a3,a7
   2359c:	00a6e8b3          	or	a7,a3,a0
   235a0:	02812503          	lw	a0,40(sp)
   235a4:	00000593          	li	a1,0
   235a8:	40ae06b3          	sub	a3,t3,a0
   235ac:	00de3833          	sltu	a6,t3,a3
   235b0:	411686b3          	sub	a3,a3,a7
   235b4:	00088663          	beqz	a7,235c0 <__subtf3+0xcdc>
   235b8:	41c50e33          	sub	t3,a0,t3
   235bc:	001e3593          	seqz	a1,t3
   235c0:	02c12703          	lw	a4,44(sp)
   235c4:	0105e5b3          	or	a1,a1,a6
   235c8:	02d12c23          	sw	a3,56(sp)
   235cc:	40ee8733          	sub	a4,t4,a4
   235d0:	40b70733          	sub	a4,a4,a1
   235d4:	02e12e23          	sw	a4,60(sp)
   235d8:	02c12a23          	sw	a2,52(sp)
   235dc:	02f12823          	sw	a5,48(sp)
   235e0:	03c12783          	lw	a5,60(sp)
   235e4:	00c79713          	slli	a4,a5,0xc
   235e8:	d2075663          	bgez	a4,22b14 <__subtf3+0x230>
   235ec:	00080737          	lui	a4,0x80
   235f0:	fff70713          	addi	a4,a4,-1 # 7ffff <__BSS_END__+0x590d3>
   235f4:	00e7f7b3          	and	a5,a5,a4
   235f8:	02f12e23          	sw	a5,60(sp)
   235fc:	5a40006f          	j	23ba0 <__subtf3+0x12bc>
   23600:	02412503          	lw	a0,36(sp)
   23604:	02812803          	lw	a6,40(sp)
   23608:	02c12e03          	lw	t3,44(sp)
   2360c:	2e068263          	beqz	a3,238f0 <__subtf3+0x100c>
   23610:	40830fb3          	sub	t6,t1,s0
   23614:	0c041263          	bnez	s0,236d8 <__subtf3+0xdf4>
   23618:	01412283          	lw	t0,20(sp)
   2361c:	01812583          	lw	a1,24(sp)
   23620:	01c12683          	lw	a3,28(sp)
   23624:	00b2e633          	or	a2,t0,a1
   23628:	00d66633          	or	a2,a2,a3
   2362c:	00e66633          	or	a2,a2,a4
   23630:	02061063          	bnez	a2,23650 <__subtf3+0xd6c>
   23634:	02f12823          	sw	a5,48(sp)
   23638:	02a12a23          	sw	a0,52(sp)
   2363c:	03012c23          	sw	a6,56(sp)
   23640:	03c12e23          	sw	t3,60(sp)
   23644:	000f8413          	mv	s0,t6
   23648:	00088913          	mv	s2,a7
   2364c:	cc8ff06f          	j	22b14 <__subtf3+0x230>
   23650:	ffff8613          	addi	a2,t6,-1
   23654:	06061463          	bnez	a2,236bc <__subtf3+0xdd8>
   23658:	40e78733          	sub	a4,a5,a4
   2365c:	40550333          	sub	t1,a0,t0
   23660:	00e7beb3          	sltu	t4,a5,a4
   23664:	00653f33          	sltu	t5,a0,t1
   23668:	41d30eb3          	sub	t4,t1,t4
   2366c:	00000313          	li	t1,0
   23670:	00e7f663          	bgeu	a5,a4,2367c <__subtf3+0xd98>
   23674:	40a28533          	sub	a0,t0,a0
   23678:	00153313          	seqz	t1,a0
   2367c:	01e36533          	or	a0,t1,t5
   23680:	40b80333          	sub	t1,a6,a1
   23684:	006837b3          	sltu	a5,a6,t1
   23688:	40a30333          	sub	t1,t1,a0
   2368c:	00050663          	beqz	a0,23698 <__subtf3+0xdb4>
   23690:	41058833          	sub	a6,a1,a6
   23694:	00183613          	seqz	a2,a6
   23698:	40de0e33          	sub	t3,t3,a3
   2369c:	00f66633          	or	a2,a2,a5
   236a0:	40ce0e33          	sub	t3,t3,a2
   236a4:	03c12e23          	sw	t3,60(sp)
   236a8:	02612c23          	sw	t1,56(sp)
   236ac:	03d12a23          	sw	t4,52(sp)
   236b0:	02e12823          	sw	a4,48(sp)
   236b4:	00088913          	mv	s2,a7
   236b8:	d35ff06f          	j	233ec <__subtf3+0xb08>
   236bc:	00008737          	lui	a4,0x8
   236c0:	fff70713          	addi	a4,a4,-1 # 7fff <register_fini-0x8075>
   236c4:	f6ef88e3          	beq	t6,a4,23634 <__subtf3+0xd50>
   236c8:	07400713          	li	a4,116
   236cc:	20c74863          	blt	a4,a2,238dc <__subtf3+0xff8>
   236d0:	00060f93          	mv	t6,a2
   236d4:	0400006f          	j	23714 <__subtf3+0xe30>
   236d8:	00008737          	lui	a4,0x8
   236dc:	fff70713          	addi	a4,a4,-1 # 7fff <register_fini-0x8075>
   236e0:	00e31e63          	bne	t1,a4,236fc <__subtf3+0xe18>
   236e4:	02f12823          	sw	a5,48(sp)
   236e8:	02a12a23          	sw	a0,52(sp)
   236ec:	03012c23          	sw	a6,56(sp)
   236f0:	03c12e23          	sw	t3,60(sp)
   236f4:	00030413          	mv	s0,t1
   236f8:	f51ff06f          	j	23648 <__subtf3+0xd64>
   236fc:	01c12703          	lw	a4,28(sp)
   23700:	000806b7          	lui	a3,0x80
   23704:	00d76733          	or	a4,a4,a3
   23708:	00e12e23          	sw	a4,28(sp)
   2370c:	07400713          	li	a4,116
   23710:	1df74663          	blt	a4,t6,238dc <__subtf3+0xff8>
   23714:	41ffd693          	srai	a3,t6,0x1f
   23718:	01f6f693          	andi	a3,a3,31
   2371c:	01f686b3          	add	a3,a3,t6
   23720:	4056d293          	srai	t0,a3,0x5
   23724:	00000393          	li	t2,0
   23728:	00000713          	li	a4,0
   2372c:	04574a63          	blt	a4,t0,23780 <__subtf3+0xe9c>
   23730:	00028613          	mv	a2,t0
   23734:	0002d463          	bgez	t0,2373c <__subtf3+0xe58>
   23738:	00000613          	li	a2,0
   2373c:	01fff713          	andi	a4,t6,31
   23740:	00229593          	slli	a1,t0,0x2
   23744:	04071a63          	bnez	a4,23798 <__subtf3+0xeb4>
   23748:	00300693          	li	a3,3
   2374c:	405686b3          	sub	a3,a3,t0
   23750:	00bf0633          	add	a2,t5,a1
   23754:	00062603          	lw	a2,0(a2)
   23758:	00170713          	addi	a4,a4,1
   2375c:	004f0f13          	addi	t5,t5,4
   23760:	fecf2e23          	sw	a2,-4(t5)
   23764:	fee6d6e3          	bge	a3,a4,23750 <__subtf3+0xe6c>
   23768:	00400693          	li	a3,4
   2376c:	405682b3          	sub	t0,a3,t0
   23770:	00100693          	li	a3,1
   23774:	08505c63          	blez	t0,2380c <__subtf3+0xf28>
   23778:	00028693          	mv	a3,t0
   2377c:	0900006f          	j	2380c <__subtf3+0xf28>
   23780:	00271693          	slli	a3,a4,0x2
   23784:	00de86b3          	add	a3,t4,a3
   23788:	0006a683          	lw	a3,0(a3) # 80000 <__BSS_END__+0x590d4>
   2378c:	00170713          	addi	a4,a4,1
   23790:	00d3e3b3          	or	t2,t2,a3
   23794:	f99ff06f          	j	2372c <__subtf3+0xe48>
   23798:	80000737          	lui	a4,0x80000
   2379c:	01f70713          	addi	a4,a4,31 # 8000001f <__BSS_END__+0x7ffd90f3>
   237a0:	00eff733          	and	a4,t6,a4
   237a4:	00075863          	bgez	a4,237b4 <__subtf3+0xed0>
   237a8:	fff70713          	addi	a4,a4,-1
   237ac:	fe076713          	ori	a4,a4,-32
   237b0:	00170713          	addi	a4,a4,1
   237b4:	04010693          	addi	a3,sp,64
   237b8:	00261613          	slli	a2,a2,0x2
   237bc:	00c68633          	add	a2,a3,a2
   237c0:	fd062683          	lw	a3,-48(a2)
   237c4:	02000f93          	li	t6,32
   237c8:	40ef8fb3          	sub	t6,t6,a4
   237cc:	01f696b3          	sll	a3,a3,t6
   237d0:	00300613          	li	a2,3
   237d4:	00d3e3b3          	or	t2,t2,a3
   237d8:	00be85b3          	add	a1,t4,a1
   237dc:	00000f13          	li	t5,0
   237e0:	40560633          	sub	a2,a2,t0
   237e4:	00458593          	addi	a1,a1,4
   237e8:	02cf4663          	blt	t5,a2,23814 <__subtf3+0xf30>
   237ec:	04010593          	addi	a1,sp,64
   237f0:	00261613          	slli	a2,a2,0x2
   237f4:	00c58633          	add	a2,a1,a2
   237f8:	01c12583          	lw	a1,28(sp)
   237fc:	00400693          	li	a3,4
   23800:	405686b3          	sub	a3,a3,t0
   23804:	00e5d733          	srl	a4,a1,a4
   23808:	fce62823          	sw	a4,-48(a2)
   2380c:	00300613          	li	a2,3
   23810:	03c0006f          	j	2384c <__subtf3+0xf68>
   23814:	ffc5a683          	lw	a3,-4(a1)
   23818:	0005a903          	lw	s2,0(a1)
   2381c:	002f1413          	slli	s0,t5,0x2
   23820:	00e6d6b3          	srl	a3,a3,a4
   23824:	01f91933          	sll	s2,s2,t6
   23828:	008e8433          	add	s0,t4,s0
   2382c:	0126e6b3          	or	a3,a3,s2
   23830:	00d42023          	sw	a3,0(s0)
   23834:	001f0f13          	addi	t5,t5,1
   23838:	fadff06f          	j	237e4 <__subtf3+0xf00>
   2383c:	00269713          	slli	a4,a3,0x2
   23840:	00ee8733          	add	a4,t4,a4
   23844:	00072023          	sw	zero,0(a4)
   23848:	00168693          	addi	a3,a3,1
   2384c:	fed658e3          	bge	a2,a3,2383c <__subtf3+0xf58>
   23850:	01012683          	lw	a3,16(sp)
   23854:	00703733          	snez	a4,t2
   23858:	00e6e733          	or	a4,a3,a4
   2385c:	00e12823          	sw	a4,16(sp)
   23860:	01012703          	lw	a4,16(sp)
   23864:	01412583          	lw	a1,20(sp)
   23868:	40e78733          	sub	a4,a5,a4
   2386c:	40b50633          	sub	a2,a0,a1
   23870:	00e7b6b3          	sltu	a3,a5,a4
   23874:	00c53eb3          	sltu	t4,a0,a2
   23878:	40d60633          	sub	a2,a2,a3
   2387c:	00000693          	li	a3,0
   23880:	00e7f663          	bgeu	a5,a4,2388c <__subtf3+0xfa8>
   23884:	40a58533          	sub	a0,a1,a0
   23888:	00153693          	seqz	a3,a0
   2388c:	01812583          	lw	a1,24(sp)
   23890:	01d6e533          	or	a0,a3,t4
   23894:	00000693          	li	a3,0
   23898:	40b807b3          	sub	a5,a6,a1
   2389c:	00f83eb3          	sltu	t4,a6,a5
   238a0:	40a787b3          	sub	a5,a5,a0
   238a4:	00050663          	beqz	a0,238b0 <__subtf3+0xfcc>
   238a8:	41058833          	sub	a6,a1,a6
   238ac:	00183693          	seqz	a3,a6
   238b0:	01c12503          	lw	a0,28(sp)
   238b4:	01d6e6b3          	or	a3,a3,t4
   238b8:	02f12c23          	sw	a5,56(sp)
   238bc:	40ae0e33          	sub	t3,t3,a0
   238c0:	40de0e33          	sub	t3,t3,a3
   238c4:	03c12e23          	sw	t3,60(sp)
   238c8:	02c12a23          	sw	a2,52(sp)
   238cc:	02e12823          	sw	a4,48(sp)
   238d0:	00030413          	mv	s0,t1
   238d4:	00088913          	mv	s2,a7
   238d8:	d09ff06f          	j	235e0 <__subtf3+0xcfc>
   238dc:	00012e23          	sw	zero,28(sp)
   238e0:	00012c23          	sw	zero,24(sp)
   238e4:	00012a23          	sw	zero,20(sp)
   238e8:	00100713          	li	a4,1
   238ec:	f71ff06f          	j	2385c <__subtf3+0xf78>
   238f0:	00008eb7          	lui	t4,0x8
   238f4:	ffee8613          	addi	a2,t4,-2 # 7ffe <register_fini-0x8076>
   238f8:	00140313          	addi	t1,s0,1
   238fc:	00c37333          	and	t1,t1,a2
   23900:	01812583          	lw	a1,24(sp)
   23904:	01412603          	lw	a2,20(sp)
   23908:	01c12f03          	lw	t5,28(sp)
   2390c:	1c031e63          	bnez	t1,23ae8 <__subtf3+0x1204>
   23910:	01056333          	or	t1,a0,a6
   23914:	00b666b3          	or	a3,a2,a1
   23918:	01c36333          	or	t1,t1,t3
   2391c:	01e6e6b3          	or	a3,a3,t5
   23920:	00f36333          	or	t1,t1,a5
   23924:	00e6e6b3          	or	a3,a3,a4
   23928:	10041863          	bnez	s0,23a38 <__subtf3+0x1154>
   2392c:	02069463          	bnez	a3,23954 <__subtf3+0x1070>
   23930:	02f12823          	sw	a5,48(sp)
   23934:	02a12a23          	sw	a0,52(sp)
   23938:	03012c23          	sw	a6,56(sp)
   2393c:	03c12e23          	sw	t3,60(sp)
   23940:	00088913          	mv	s2,a7
   23944:	9c031863          	bnez	t1,22b14 <__subtf3+0x230>
   23948:	00000413          	li	s0,0
   2394c:	00000913          	li	s2,0
   23950:	9c4ff06f          	j	22b14 <__subtf3+0x230>
   23954:	00031c63          	bnez	t1,2396c <__subtf3+0x1088>
   23958:	02e12823          	sw	a4,48(sp)
   2395c:	02c12a23          	sw	a2,52(sp)
   23960:	02b12c23          	sw	a1,56(sp)
   23964:	03e12e23          	sw	t5,60(sp)
   23968:	9acff06f          	j	22b14 <__subtf3+0x230>
   2396c:	40f70333          	sub	t1,a4,a5
   23970:	40a603b3          	sub	t2,a2,a0
   23974:	00673fb3          	sltu	t6,a4,t1
   23978:	00763eb3          	sltu	t4,a2,t2
   2397c:	41f38fb3          	sub	t6,t2,t6
   23980:	00000693          	li	a3,0
   23984:	00677463          	bgeu	a4,t1,2398c <__subtf3+0x10a8>
   23988:	0013b693          	seqz	a3,t2
   2398c:	410582b3          	sub	t0,a1,a6
   23990:	01d6e6b3          	or	a3,a3,t4
   23994:	0055bab3          	sltu	s5,a1,t0
   23998:	40d28a33          	sub	s4,t0,a3
   2399c:	00000993          	li	s3,0
   239a0:	00068463          	beqz	a3,239a8 <__subtf3+0x10c4>
   239a4:	0012b993          	seqz	s3,t0
   239a8:	41cf0eb3          	sub	t4,t5,t3
   239ac:	0159e9b3          	or	s3,s3,s5
   239b0:	413e8eb3          	sub	t4,t4,s3
   239b4:	03d12e23          	sw	t4,60(sp)
   239b8:	03412c23          	sw	s4,56(sp)
   239bc:	03f12a23          	sw	t6,52(sp)
   239c0:	02612823          	sw	t1,48(sp)
   239c4:	00ce9693          	slli	a3,t4,0xc
   239c8:	0606d063          	bgez	a3,23a28 <__subtf3+0x1144>
   239cc:	40e78733          	sub	a4,a5,a4
   239d0:	40c50633          	sub	a2,a0,a2
   239d4:	00e7b6b3          	sltu	a3,a5,a4
   239d8:	00c53533          	sltu	a0,a0,a2
   239dc:	40d60633          	sub	a2,a2,a3
   239e0:	00000693          	li	a3,0
   239e4:	00e7f463          	bgeu	a5,a4,239ec <__subtf3+0x1108>
   239e8:	0013b693          	seqz	a3,t2
   239ec:	40b805b3          	sub	a1,a6,a1
   239f0:	00a6e533          	or	a0,a3,a0
   239f4:	00b83833          	sltu	a6,a6,a1
   239f8:	00000313          	li	t1,0
   239fc:	40a585b3          	sub	a1,a1,a0
   23a00:	00050463          	beqz	a0,23a08 <__subtf3+0x1124>
   23a04:	0012b313          	seqz	t1,t0
   23a08:	41ee0533          	sub	a0,t3,t5
   23a0c:	01036333          	or	t1,t1,a6
   23a10:	40650333          	sub	t1,a0,t1
   23a14:	02612e23          	sw	t1,60(sp)
   23a18:	02b12c23          	sw	a1,56(sp)
   23a1c:	02c12a23          	sw	a2,52(sp)
   23a20:	02e12823          	sw	a4,48(sp)
   23a24:	c25ff06f          	j	23648 <__subtf3+0xd64>
   23a28:	01f36333          	or	t1,t1,t6
   23a2c:	01436333          	or	t1,t1,s4
   23a30:	01d36333          	or	t1,t1,t4
   23a34:	f11ff06f          	j	23944 <__subtf3+0x1060>
   23a38:	03010f93          	addi	t6,sp,48
   23a3c:	04069e63          	bnez	a3,23a98 <__subtf3+0x11b4>
   23a40:	02031e63          	bnez	t1,23a7c <__subtf3+0x1198>
   23a44:	03d12e23          	sw	t4,60(sp)
   23a48:	02012c23          	sw	zero,56(sp)
   23a4c:	02012a23          	sw	zero,52(sp)
   23a50:	02012823          	sw	zero,48(sp)
   23a54:	03c10793          	addi	a5,sp,60
   23a58:	0007a703          	lw	a4,0(a5)
   23a5c:	ffc7a683          	lw	a3,-4(a5)
   23a60:	ffc78793          	addi	a5,a5,-4
   23a64:	00371713          	slli	a4,a4,0x3
   23a68:	01d6d693          	srli	a3,a3,0x1d
   23a6c:	00d76733          	or	a4,a4,a3
   23a70:	00e7a223          	sw	a4,4(a5)
   23a74:	feff92e3          	bne	t6,a5,23a58 <__subtf3+0x1174>
   23a78:	815ff06f          	j	2328c <__subtf3+0x9a8>
   23a7c:	02f12823          	sw	a5,48(sp)
   23a80:	02a12a23          	sw	a0,52(sp)
   23a84:	03012c23          	sw	a6,56(sp)
   23a88:	03c12e23          	sw	t3,60(sp)
   23a8c:	00088913          	mv	s2,a7
   23a90:	fffe8413          	addi	s0,t4,-1
   23a94:	880ff06f          	j	22b14 <__subtf3+0x230>
   23a98:	00031c63          	bnez	t1,23ab0 <__subtf3+0x11cc>
   23a9c:	02e12823          	sw	a4,48(sp)
   23aa0:	02c12a23          	sw	a2,52(sp)
   23aa4:	02b12c23          	sw	a1,56(sp)
   23aa8:	03e12e23          	sw	t5,60(sp)
   23aac:	fe5ff06f          	j	23a90 <__subtf3+0x11ac>
   23ab0:	03d12e23          	sw	t4,60(sp)
   23ab4:	02012c23          	sw	zero,56(sp)
   23ab8:	02012a23          	sw	zero,52(sp)
   23abc:	02012823          	sw	zero,48(sp)
   23ac0:	03c10793          	addi	a5,sp,60
   23ac4:	0007a703          	lw	a4,0(a5)
   23ac8:	ffc7a683          	lw	a3,-4(a5)
   23acc:	ffc78793          	addi	a5,a5,-4
   23ad0:	00371713          	slli	a4,a4,0x3
   23ad4:	01d6d693          	srli	a3,a3,0x1d
   23ad8:	00d76733          	or	a4,a4,a3
   23adc:	00e7a223          	sw	a4,4(a5)
   23ae0:	feff92e3          	bne	t6,a5,23ac4 <__subtf3+0x11e0>
   23ae4:	fa8ff06f          	j	2328c <__subtf3+0x9a8>
   23ae8:	40f70333          	sub	t1,a4,a5
   23aec:	40a609b3          	sub	s3,a2,a0
   23af0:	006732b3          	sltu	t0,a4,t1
   23af4:	01363eb3          	sltu	t4,a2,s3
   23af8:	405982b3          	sub	t0,s3,t0
   23afc:	00000f93          	li	t6,0
   23b00:	00677463          	bgeu	a4,t1,23b08 <__subtf3+0x1224>
   23b04:	0019bf93          	seqz	t6,s3
   23b08:	410583b3          	sub	t2,a1,a6
   23b0c:	01dfefb3          	or	t6,t6,t4
   23b10:	0075bb33          	sltu	s6,a1,t2
   23b14:	41f38ab3          	sub	s5,t2,t6
   23b18:	00000a13          	li	s4,0
   23b1c:	000f8463          	beqz	t6,23b24 <__subtf3+0x1240>
   23b20:	0013ba13          	seqz	s4,t2
   23b24:	41cf0eb3          	sub	t4,t5,t3
   23b28:	016a6a33          	or	s4,s4,s6
   23b2c:	414e8eb3          	sub	t4,t4,s4
   23b30:	03d12e23          	sw	t4,60(sp)
   23b34:	03512c23          	sw	s5,56(sp)
   23b38:	02512a23          	sw	t0,52(sp)
   23b3c:	02612823          	sw	t1,48(sp)
   23b40:	00ce9f93          	slli	t6,t4,0xc
   23b44:	0e0fd263          	bgez	t6,23c28 <__subtf3+0x1344>
   23b48:	40c50633          	sub	a2,a0,a2
   23b4c:	40e78733          	sub	a4,a5,a4
   23b50:	00c53333          	sltu	t1,a0,a2
   23b54:	00e7b533          	sltu	a0,a5,a4
   23b58:	40a60633          	sub	a2,a2,a0
   23b5c:	00000513          	li	a0,0
   23b60:	00e7f463          	bgeu	a5,a4,23b68 <__subtf3+0x1284>
   23b64:	0019b513          	seqz	a0,s3
   23b68:	40b805b3          	sub	a1,a6,a1
   23b6c:	00656533          	or	a0,a0,t1
   23b70:	00b83833          	sltu	a6,a6,a1
   23b74:	40a585b3          	sub	a1,a1,a0
   23b78:	00050463          	beqz	a0,23b80 <__subtf3+0x129c>
   23b7c:	0013b693          	seqz	a3,t2
   23b80:	41ee0533          	sub	a0,t3,t5
   23b84:	0106e6b3          	or	a3,a3,a6
   23b88:	40d506b3          	sub	a3,a0,a3
   23b8c:	02d12e23          	sw	a3,60(sp)
   23b90:	02b12c23          	sw	a1,56(sp)
   23b94:	02c12a23          	sw	a2,52(sp)
   23b98:	02e12823          	sw	a4,48(sp)
   23b9c:	00088913          	mv	s2,a7
   23ba0:	03c12503          	lw	a0,60(sp)
   23ba4:	08050c63          	beqz	a0,23c3c <__subtf3+0x1358>
   23ba8:	355000ef          	jal	ra,246fc <__clzsi2>
   23bac:	ff450793          	addi	a5,a0,-12
   23bb0:	41f7d713          	srai	a4,a5,0x1f
   23bb4:	01f77713          	andi	a4,a4,31
   23bb8:	00f70733          	add	a4,a4,a5
   23bbc:	40575613          	srai	a2,a4,0x5
   23bc0:	01f7f693          	andi	a3,a5,31
   23bc4:	40c00733          	neg	a4,a2
   23bc8:	0a068663          	beqz	a3,23c74 <__subtf3+0x1390>
   23bcc:	800006b7          	lui	a3,0x80000
   23bd0:	01f68693          	addi	a3,a3,31 # 8000001f <__BSS_END__+0x7ffd90f3>
   23bd4:	00d7f6b3          	and	a3,a5,a3
   23bd8:	0006d863          	bgez	a3,23be8 <__subtf3+0x1304>
   23bdc:	fff68693          	addi	a3,a3,-1
   23be0:	fe06e693          	ori	a3,a3,-32
   23be4:	00168693          	addi	a3,a3,1
   23be8:	00271713          	slli	a4,a4,0x2
   23bec:	03010313          	addi	t1,sp,48
   23bf0:	00c70713          	addi	a4,a4,12
   23bf4:	02000813          	li	a6,32
   23bf8:	00e30733          	add	a4,t1,a4
   23bfc:	00261513          	slli	a0,a2,0x2
   23c00:	40d80833          	sub	a6,a6,a3
   23c04:	08e31e63          	bne	t1,a4,23ca0 <__subtf3+0x13bc>
   23c08:	fff60713          	addi	a4,a2,-1
   23c0c:	04010613          	addi	a2,sp,64
   23c10:	00a60533          	add	a0,a2,a0
   23c14:	03012603          	lw	a2,48(sp)
   23c18:	00d616b3          	sll	a3,a2,a3
   23c1c:	fed52823          	sw	a3,-16(a0)
   23c20:	fff00613          	li	a2,-1
   23c24:	0b40006f          	j	23cd8 <__subtf3+0x13f4>
   23c28:	00536333          	or	t1,t1,t0
   23c2c:	01536333          	or	t1,t1,s5
   23c30:	01d36333          	or	t1,t1,t4
   23c34:	d0030ae3          	beqz	t1,23948 <__subtf3+0x1064>
   23c38:	f69ff06f          	j	23ba0 <__subtf3+0x12bc>
   23c3c:	03812503          	lw	a0,56(sp)
   23c40:	00050863          	beqz	a0,23c50 <__subtf3+0x136c>
   23c44:	2b9000ef          	jal	ra,246fc <__clzsi2>
   23c48:	02050513          	addi	a0,a0,32
   23c4c:	f61ff06f          	j	23bac <__subtf3+0x12c8>
   23c50:	03412503          	lw	a0,52(sp)
   23c54:	00050863          	beqz	a0,23c64 <__subtf3+0x1380>
   23c58:	2a5000ef          	jal	ra,246fc <__clzsi2>
   23c5c:	04050513          	addi	a0,a0,64
   23c60:	f4dff06f          	j	23bac <__subtf3+0x12c8>
   23c64:	03012503          	lw	a0,48(sp)
   23c68:	295000ef          	jal	ra,246fc <__clzsi2>
   23c6c:	06050513          	addi	a0,a0,96
   23c70:	f3dff06f          	j	23bac <__subtf3+0x12c8>
   23c74:	03c10693          	addi	a3,sp,60
   23c78:	00271713          	slli	a4,a4,0x2
   23c7c:	00300593          	li	a1,3
   23c80:	00e68533          	add	a0,a3,a4
   23c84:	00052503          	lw	a0,0(a0)
   23c88:	fff58593          	addi	a1,a1,-1
   23c8c:	ffc68693          	addi	a3,a3,-4
   23c90:	00a6a223          	sw	a0,4(a3)
   23c94:	fec5d6e3          	bge	a1,a2,23c80 <__subtf3+0x139c>
   23c98:	fff60713          	addi	a4,a2,-1
   23c9c:	f85ff06f          	j	23c20 <__subtf3+0x133c>
   23ca0:	ffc72583          	lw	a1,-4(a4)
   23ca4:	00072883          	lw	a7,0(a4)
   23ca8:	00a70e33          	add	t3,a4,a0
   23cac:	0105d5b3          	srl	a1,a1,a6
   23cb0:	00d898b3          	sll	a7,a7,a3
   23cb4:	0115e5b3          	or	a1,a1,a7
   23cb8:	00be2023          	sw	a1,0(t3)
   23cbc:	ffc70713          	addi	a4,a4,-4
   23cc0:	f45ff06f          	j	23c04 <__subtf3+0x1320>
   23cc4:	00271693          	slli	a3,a4,0x2
   23cc8:	03010593          	addi	a1,sp,48
   23ccc:	00d586b3          	add	a3,a1,a3
   23cd0:	0006a023          	sw	zero,0(a3)
   23cd4:	fff70713          	addi	a4,a4,-1
   23cd8:	fec716e3          	bne	a4,a2,23cc4 <__subtf3+0x13e0>
   23cdc:	1687cc63          	blt	a5,s0,23e54 <__subtf3+0x1570>
   23ce0:	40878433          	sub	s0,a5,s0
   23ce4:	00140413          	addi	s0,s0,1
   23ce8:	41f45793          	srai	a5,s0,0x1f
   23cec:	01f7f793          	andi	a5,a5,31
   23cf0:	008787b3          	add	a5,a5,s0
   23cf4:	4057d593          	srai	a1,a5,0x5
   23cf8:	00000513          	li	a0,0
   23cfc:	00000793          	li	a5,0
   23d00:	04b7ce63          	blt	a5,a1,23d5c <__subtf3+0x1478>
   23d04:	00058713          	mv	a4,a1
   23d08:	0005d463          	bgez	a1,23d10 <__subtf3+0x142c>
   23d0c:	00000713          	li	a4,0
   23d10:	01f47793          	andi	a5,s0,31
   23d14:	00259693          	slli	a3,a1,0x2
   23d18:	06079063          	bnez	a5,23d78 <__subtf3+0x1494>
   23d1c:	00300613          	li	a2,3
   23d20:	03010793          	addi	a5,sp,48
   23d24:	00000713          	li	a4,0
   23d28:	40b60633          	sub	a2,a2,a1
   23d2c:	00d78833          	add	a6,a5,a3
   23d30:	00082803          	lw	a6,0(a6)
   23d34:	00170713          	addi	a4,a4,1
   23d38:	00478793          	addi	a5,a5,4
   23d3c:	ff07ae23          	sw	a6,-4(a5)
   23d40:	fee656e3          	bge	a2,a4,23d2c <__subtf3+0x1448>
   23d44:	00400793          	li	a5,4
   23d48:	40b785b3          	sub	a1,a5,a1
   23d4c:	00100793          	li	a5,1
   23d50:	0ab05063          	blez	a1,23df0 <__subtf3+0x150c>
   23d54:	00058793          	mv	a5,a1
   23d58:	0980006f          	j	23df0 <__subtf3+0x150c>
   23d5c:	00279713          	slli	a4,a5,0x2
   23d60:	03010693          	addi	a3,sp,48
   23d64:	00e68733          	add	a4,a3,a4
   23d68:	00072703          	lw	a4,0(a4)
   23d6c:	00178793          	addi	a5,a5,1
   23d70:	00e56533          	or	a0,a0,a4
   23d74:	f8dff06f          	j	23d00 <__subtf3+0x141c>
   23d78:	800007b7          	lui	a5,0x80000
   23d7c:	01f78793          	addi	a5,a5,31 # 8000001f <__BSS_END__+0x7ffd90f3>
   23d80:	00f47433          	and	s0,s0,a5
   23d84:	00045863          	bgez	s0,23d94 <__subtf3+0x14b0>
   23d88:	fff40413          	addi	s0,s0,-1
   23d8c:	fe046413          	ori	s0,s0,-32
   23d90:	00140413          	addi	s0,s0,1
   23d94:	04010793          	addi	a5,sp,64
   23d98:	00271713          	slli	a4,a4,0x2
   23d9c:	00e78733          	add	a4,a5,a4
   23da0:	ff072783          	lw	a5,-16(a4)
   23da4:	02000813          	li	a6,32
   23da8:	40880833          	sub	a6,a6,s0
   23dac:	010797b3          	sll	a5,a5,a6
   23db0:	00f56533          	or	a0,a0,a5
   23db4:	00300713          	li	a4,3
   23db8:	03010793          	addi	a5,sp,48
   23dbc:	00d786b3          	add	a3,a5,a3
   23dc0:	40b70733          	sub	a4,a4,a1
   23dc4:	00000793          	li	a5,0
   23dc8:	00468693          	addi	a3,a3,4
   23dcc:	02e7c663          	blt	a5,a4,23df8 <__subtf3+0x1514>
   23dd0:	04010693          	addi	a3,sp,64
   23dd4:	00271713          	slli	a4,a4,0x2
   23dd8:	00e68733          	add	a4,a3,a4
   23ddc:	03c12683          	lw	a3,60(sp)
   23de0:	00400793          	li	a5,4
   23de4:	40b787b3          	sub	a5,a5,a1
   23de8:	0086d433          	srl	s0,a3,s0
   23dec:	fe872823          	sw	s0,-16(a4)
   23df0:	00300693          	li	a3,3
   23df4:	0440006f          	j	23e38 <__subtf3+0x1554>
   23df8:	00279893          	slli	a7,a5,0x2
   23dfc:	03010613          	addi	a2,sp,48
   23e00:	0006a303          	lw	t1,0(a3)
   23e04:	011608b3          	add	a7,a2,a7
   23e08:	ffc6a603          	lw	a2,-4(a3)
   23e0c:	01031333          	sll	t1,t1,a6
   23e10:	00178793          	addi	a5,a5,1
   23e14:	00865633          	srl	a2,a2,s0
   23e18:	00666633          	or	a2,a2,t1
   23e1c:	00c8a023          	sw	a2,0(a7)
   23e20:	fa9ff06f          	j	23dc8 <__subtf3+0x14e4>
   23e24:	00279713          	slli	a4,a5,0x2
   23e28:	03010613          	addi	a2,sp,48
   23e2c:	00e60733          	add	a4,a2,a4
   23e30:	00072023          	sw	zero,0(a4)
   23e34:	00178793          	addi	a5,a5,1
   23e38:	fef6d6e3          	bge	a3,a5,23e24 <__subtf3+0x1540>
   23e3c:	03012703          	lw	a4,48(sp)
   23e40:	00a037b3          	snez	a5,a0
   23e44:	00000413          	li	s0,0
   23e48:	00f767b3          	or	a5,a4,a5
   23e4c:	02f12823          	sw	a5,48(sp)
   23e50:	cc5fe06f          	j	22b14 <__subtf3+0x230>
   23e54:	40f40433          	sub	s0,s0,a5
   23e58:	03c12783          	lw	a5,60(sp)
   23e5c:	fff80737          	lui	a4,0xfff80
   23e60:	fff70713          	addi	a4,a4,-1 # fff7ffff <__BSS_END__+0xfff590d3>
   23e64:	00e7f7b3          	and	a5,a5,a4
   23e68:	02f12e23          	sw	a5,60(sp)
   23e6c:	ca9fe06f          	j	22b14 <__subtf3+0x230>
   23e70:	02012e23          	sw	zero,60(sp)
   23e74:	02012c23          	sw	zero,56(sp)
   23e78:	02012a23          	sw	zero,52(sp)
   23e7c:	02012823          	sw	zero,48(sp)
   23e80:	d15fe06f          	j	22b94 <__subtf3+0x2b0>

00023e84 <__fixtfsi>:
   23e84:	00852783          	lw	a5,8(a0)
   23e88:	00452703          	lw	a4,4(a0)
   23e8c:	00c52683          	lw	a3,12(a0)
   23e90:	00052603          	lw	a2,0(a0)
   23e94:	fe010113          	addi	sp,sp,-32
   23e98:	00e12223          	sw	a4,4(sp)
   23e9c:	00f12423          	sw	a5,8(sp)
   23ea0:	00f12c23          	sw	a5,24(sp)
   23ea4:	00004737          	lui	a4,0x4
   23ea8:	00169793          	slli	a5,a3,0x1
   23eac:	0117d593          	srli	a1,a5,0x11
   23eb0:	00c12023          	sw	a2,0(sp)
   23eb4:	00d12623          	sw	a3,12(sp)
   23eb8:	00c12823          	sw	a2,16(sp)
   23ebc:	ffe70793          	addi	a5,a4,-2 # 3ffe <register_fini-0xc076>
   23ec0:	00000513          	li	a0,0
   23ec4:	00b7de63          	bge	a5,a1,23ee0 <__fixtfsi+0x5c>
   23ec8:	01d70793          	addi	a5,a4,29
   23ecc:	01f6d813          	srli	a6,a3,0x1f
   23ed0:	00b7dc63          	bge	a5,a1,23ee8 <__fixtfsi+0x64>
   23ed4:	80000537          	lui	a0,0x80000
   23ed8:	fff54513          	not	a0,a0
   23edc:	00a80533          	add	a0,a6,a0
   23ee0:	02010113          	addi	sp,sp,32
   23ee4:	00008067          	ret
   23ee8:	01069693          	slli	a3,a3,0x10
   23eec:	000107b7          	lui	a5,0x10
   23ef0:	0106d693          	srli	a3,a3,0x10
   23ef4:	00f6e6b3          	or	a3,a3,a5
   23ef8:	06f70793          	addi	a5,a4,111
   23efc:	40b787b3          	sub	a5,a5,a1
   23f00:	4057d713          	srai	a4,a5,0x5
   23f04:	00d12e23          	sw	a3,28(sp)
   23f08:	01f7f793          	andi	a5,a5,31
   23f0c:	04078863          	beqz	a5,23f5c <__fixtfsi+0xd8>
   23f10:	02000513          	li	a0,32
   23f14:	ffe70893          	addi	a7,a4,-2
   23f18:	40f50533          	sub	a0,a0,a5
   23f1c:	00271713          	slli	a4,a4,0x2
   23f20:	02010e13          	addi	t3,sp,32
   23f24:	00a69533          	sll	a0,a3,a0
   23f28:	00000313          	li	t1,0
   23f2c:	00000593          	li	a1,0
   23f30:	0018b893          	seqz	a7,a7
   23f34:	00ee0733          	add	a4,t3,a4
   23f38:	0515c463          	blt	a1,a7,23f80 <__fixtfsi+0xfc>
   23f3c:	00030463          	beqz	t1,23f44 <__fixtfsi+0xc0>
   23f40:	00c12823          	sw	a2,16(sp)
   23f44:	00259593          	slli	a1,a1,0x2
   23f48:	02010713          	addi	a4,sp,32
   23f4c:	00b705b3          	add	a1,a4,a1
   23f50:	00f6d6b3          	srl	a3,a3,a5
   23f54:	fed5a823          	sw	a3,-16(a1)
   23f58:	0180006f          	j	23f70 <__fixtfsi+0xec>
   23f5c:	02010793          	addi	a5,sp,32
   23f60:	00271713          	slli	a4,a4,0x2
   23f64:	00e78733          	add	a4,a5,a4
   23f68:	ff072783          	lw	a5,-16(a4)
   23f6c:	00f12823          	sw	a5,16(sp)
   23f70:	01012503          	lw	a0,16(sp)
   23f74:	f60806e3          	beqz	a6,23ee0 <__fixtfsi+0x5c>
   23f78:	40a00533          	neg	a0,a0
   23f7c:	f65ff06f          	j	23ee0 <__fixtfsi+0x5c>
   23f80:	ff072603          	lw	a2,-16(a4)
   23f84:	00100313          	li	t1,1
   23f88:	00100593          	li	a1,1
   23f8c:	00f65633          	srl	a2,a2,a5
   23f90:	00a66633          	or	a2,a2,a0
   23f94:	fa5ff06f          	j	23f38 <__fixtfsi+0xb4>

00023f98 <__floatsitf>:
   23f98:	fd010113          	addi	sp,sp,-48
   23f9c:	02912223          	sw	s1,36(sp)
   23fa0:	02112623          	sw	ra,44(sp)
   23fa4:	02812423          	sw	s0,40(sp)
   23fa8:	03212023          	sw	s2,32(sp)
   23fac:	00050493          	mv	s1,a0
   23fb0:	12058063          	beqz	a1,240d0 <__floatsitf+0x138>
   23fb4:	41f5d793          	srai	a5,a1,0x1f
   23fb8:	00b7c433          	xor	s0,a5,a1
   23fbc:	40f40433          	sub	s0,s0,a5
   23fc0:	00040513          	mv	a0,s0
   23fc4:	01f5d913          	srli	s2,a1,0x1f
   23fc8:	734000ef          	jal	ra,246fc <__clzsi2>
   23fcc:	00004737          	lui	a4,0x4
   23fd0:	01e70713          	addi	a4,a4,30 # 401e <register_fini-0xc056>
   23fd4:	05150793          	addi	a5,a0,81 # 80000051 <__BSS_END__+0x7ffd9125>
   23fd8:	40a705b3          	sub	a1,a4,a0
   23fdc:	00812823          	sw	s0,16(sp)
   23fe0:	4057d713          	srai	a4,a5,0x5
   23fe4:	00012a23          	sw	zero,20(sp)
   23fe8:	00012c23          	sw	zero,24(sp)
   23fec:	00012e23          	sw	zero,28(sp)
   23ff0:	01f7f793          	andi	a5,a5,31
   23ff4:	02078c63          	beqz	a5,2402c <__floatsitf+0x94>
   23ff8:	00200693          	li	a3,2
   23ffc:	0cd71663          	bne	a4,a3,240c8 <__floatsitf+0x130>
   24000:	02000693          	li	a3,32
   24004:	40f686b3          	sub	a3,a3,a5
   24008:	00d456b3          	srl	a3,s0,a3
   2400c:	00d12e23          	sw	a3,28(sp)
   24010:	fff70693          	addi	a3,a4,-1
   24014:	02010613          	addi	a2,sp,32
   24018:	00271713          	slli	a4,a4,0x2
   2401c:	00e60733          	add	a4,a2,a4
   24020:	00f417b3          	sll	a5,s0,a5
   24024:	fef72823          	sw	a5,-16(a4)
   24028:	0340006f          	j	2405c <__floatsitf+0xc4>
   2402c:	00300793          	li	a5,3
   24030:	40e787b3          	sub	a5,a5,a4
   24034:	02010693          	addi	a3,sp,32
   24038:	00279793          	slli	a5,a5,0x2
   2403c:	00f687b3          	add	a5,a3,a5
   24040:	ff07a783          	lw	a5,-16(a5) # fff0 <register_fini-0x84>
   24044:	00200693          	li	a3,2
   24048:	00f12e23          	sw	a5,28(sp)
   2404c:	00200793          	li	a5,2
   24050:	00f71663          	bne	a4,a5,2405c <__floatsitf+0xc4>
   24054:	00812c23          	sw	s0,24(sp)
   24058:	00100693          	li	a3,1
   2405c:	fff00793          	li	a5,-1
   24060:	00269713          	slli	a4,a3,0x2
   24064:	01010613          	addi	a2,sp,16
   24068:	00e60733          	add	a4,a2,a4
   2406c:	00072023          	sw	zero,0(a4)
   24070:	fff68693          	addi	a3,a3,-1
   24074:	fef696e3          	bne	a3,a5,24060 <__floatsitf+0xc8>
   24078:	01c12783          	lw	a5,28(sp)
   2407c:	02c12083          	lw	ra,44(sp)
   24080:	02812403          	lw	s0,40(sp)
   24084:	00f11623          	sh	a5,12(sp)
   24088:	00f91793          	slli	a5,s2,0xf
   2408c:	00b7e5b3          	or	a1,a5,a1
   24090:	01012783          	lw	a5,16(sp)
   24094:	00b11723          	sh	a1,14(sp)
   24098:	02012903          	lw	s2,32(sp)
   2409c:	00f4a023          	sw	a5,0(s1)
   240a0:	01412783          	lw	a5,20(sp)
   240a4:	00048513          	mv	a0,s1
   240a8:	00f4a223          	sw	a5,4(s1)
   240ac:	01812783          	lw	a5,24(sp)
   240b0:	00f4a423          	sw	a5,8(s1)
   240b4:	00c12783          	lw	a5,12(sp)
   240b8:	00f4a623          	sw	a5,12(s1)
   240bc:	02412483          	lw	s1,36(sp)
   240c0:	03010113          	addi	sp,sp,48
   240c4:	00008067          	ret
   240c8:	00300713          	li	a4,3
   240cc:	f45ff06f          	j	24010 <__floatsitf+0x78>
   240d0:	00012e23          	sw	zero,28(sp)
   240d4:	00012c23          	sw	zero,24(sp)
   240d8:	00012a23          	sw	zero,20(sp)
   240dc:	00012823          	sw	zero,16(sp)
   240e0:	00000913          	li	s2,0
   240e4:	f95ff06f          	j	24078 <__floatsitf+0xe0>

000240e8 <__extenddftf2>:
   240e8:	01465793          	srli	a5,a2,0x14
   240ec:	00c61713          	slli	a4,a2,0xc
   240f0:	7ff7f793          	andi	a5,a5,2047
   240f4:	fd010113          	addi	sp,sp,-48
   240f8:	00c75713          	srli	a4,a4,0xc
   240fc:	00178693          	addi	a3,a5,1
   24100:	02812423          	sw	s0,40(sp)
   24104:	02912223          	sw	s1,36(sp)
   24108:	03212023          	sw	s2,32(sp)
   2410c:	02112623          	sw	ra,44(sp)
   24110:	00b12823          	sw	a1,16(sp)
   24114:	00e12a23          	sw	a4,20(sp)
   24118:	00012e23          	sw	zero,28(sp)
   2411c:	00012c23          	sw	zero,24(sp)
   24120:	7fe6f693          	andi	a3,a3,2046
   24124:	00050913          	mv	s2,a0
   24128:	00058493          	mv	s1,a1
   2412c:	01f65413          	srli	s0,a2,0x1f
   24130:	08068263          	beqz	a3,241b4 <__extenddftf2+0xcc>
   24134:	000046b7          	lui	a3,0x4
   24138:	c0068693          	addi	a3,a3,-1024 # 3c00 <register_fini-0xc474>
   2413c:	00d787b3          	add	a5,a5,a3
   24140:	0045d513          	srli	a0,a1,0x4
   24144:	00475693          	srli	a3,a4,0x4
   24148:	01c71713          	slli	a4,a4,0x1c
   2414c:	00a76733          	or	a4,a4,a0
   24150:	01c59493          	slli	s1,a1,0x1c
   24154:	00d12e23          	sw	a3,28(sp)
   24158:	00e12c23          	sw	a4,24(sp)
   2415c:	00912a23          	sw	s1,20(sp)
   24160:	00012823          	sw	zero,16(sp)
   24164:	00f41413          	slli	s0,s0,0xf
   24168:	00f467b3          	or	a5,s0,a5
   2416c:	00f11723          	sh	a5,14(sp)
   24170:	01012783          	lw	a5,16(sp)
   24174:	01c12703          	lw	a4,28(sp)
   24178:	02c12083          	lw	ra,44(sp)
   2417c:	00f92023          	sw	a5,0(s2)
   24180:	01412783          	lw	a5,20(sp)
   24184:	00e11623          	sh	a4,12(sp)
   24188:	02812403          	lw	s0,40(sp)
   2418c:	00f92223          	sw	a5,4(s2)
   24190:	01812783          	lw	a5,24(sp)
   24194:	02412483          	lw	s1,36(sp)
   24198:	00090513          	mv	a0,s2
   2419c:	00f92423          	sw	a5,8(s2)
   241a0:	00c12783          	lw	a5,12(sp)
   241a4:	00f92623          	sw	a5,12(s2)
   241a8:	02012903          	lw	s2,32(sp)
   241ac:	03010113          	addi	sp,sp,48
   241b0:	00008067          	ret
   241b4:	00b76533          	or	a0,a4,a1
   241b8:	0e079263          	bnez	a5,2429c <__extenddftf2+0x1b4>
   241bc:	fa0504e3          	beqz	a0,24164 <__extenddftf2+0x7c>
   241c0:	04070c63          	beqz	a4,24218 <__extenddftf2+0x130>
   241c4:	00070513          	mv	a0,a4
   241c8:	534000ef          	jal	ra,246fc <__clzsi2>
   241cc:	03150593          	addi	a1,a0,49
   241d0:	4055d693          	srai	a3,a1,0x5
   241d4:	01f5f593          	andi	a1,a1,31
   241d8:	40d00733          	neg	a4,a3
   241dc:	04058463          	beqz	a1,24224 <__extenddftf2+0x13c>
   241e0:	00271713          	slli	a4,a4,0x2
   241e4:	01010313          	addi	t1,sp,16
   241e8:	00c70713          	addi	a4,a4,12
   241ec:	02000813          	li	a6,32
   241f0:	00e30733          	add	a4,t1,a4
   241f4:	00269613          	slli	a2,a3,0x2
   241f8:	40b80833          	sub	a6,a6,a1
   241fc:	06e31e63          	bne	t1,a4,24278 <__extenddftf2+0x190>
   24200:	02010793          	addi	a5,sp,32
   24204:	00c78633          	add	a2,a5,a2
   24208:	00b495b3          	sll	a1,s1,a1
   2420c:	fff68713          	addi	a4,a3,-1
   24210:	feb62823          	sw	a1,-16(a2)
   24214:	0380006f          	j	2424c <__extenddftf2+0x164>
   24218:	4e4000ef          	jal	ra,246fc <__clzsi2>
   2421c:	02050513          	addi	a0,a0,32
   24220:	fadff06f          	j	241cc <__extenddftf2+0xe4>
   24224:	01c10793          	addi	a5,sp,28
   24228:	00271713          	slli	a4,a4,0x2
   2422c:	00300613          	li	a2,3
   24230:	00e785b3          	add	a1,a5,a4
   24234:	0005a583          	lw	a1,0(a1)
   24238:	fff60613          	addi	a2,a2,-1
   2423c:	ffc78793          	addi	a5,a5,-4
   24240:	00b7a223          	sw	a1,4(a5)
   24244:	fed656e3          	bge	a2,a3,24230 <__extenddftf2+0x148>
   24248:	fff68713          	addi	a4,a3,-1
   2424c:	fff00693          	li	a3,-1
   24250:	00271793          	slli	a5,a4,0x2
   24254:	01010613          	addi	a2,sp,16
   24258:	00f607b3          	add	a5,a2,a5
   2425c:	0007a023          	sw	zero,0(a5)
   24260:	fff70713          	addi	a4,a4,-1
   24264:	fed716e3          	bne	a4,a3,24250 <__extenddftf2+0x168>
   24268:	000047b7          	lui	a5,0x4
   2426c:	c0c78793          	addi	a5,a5,-1012 # 3c0c <register_fini-0xc468>
   24270:	40a787b3          	sub	a5,a5,a0
   24274:	ef1ff06f          	j	24164 <__extenddftf2+0x7c>
   24278:	ffc72783          	lw	a5,-4(a4)
   2427c:	00072883          	lw	a7,0(a4)
   24280:	00c70e33          	add	t3,a4,a2
   24284:	0107d7b3          	srl	a5,a5,a6
   24288:	00b898b3          	sll	a7,a7,a1
   2428c:	0117e7b3          	or	a5,a5,a7
   24290:	00fe2023          	sw	a5,0(t3)
   24294:	ffc70713          	addi	a4,a4,-4
   24298:	f65ff06f          	j	241fc <__extenddftf2+0x114>
   2429c:	000087b7          	lui	a5,0x8
   242a0:	02050863          	beqz	a0,242d0 <__extenddftf2+0x1e8>
   242a4:	01c71793          	slli	a5,a4,0x1c
   242a8:	0045d693          	srli	a3,a1,0x4
   242ac:	00d7e7b3          	or	a5,a5,a3
   242b0:	00f12c23          	sw	a5,24(sp)
   242b4:	00475713          	srli	a4,a4,0x4
   242b8:	000087b7          	lui	a5,0x8
   242bc:	01c59493          	slli	s1,a1,0x1c
   242c0:	00f76733          	or	a4,a4,a5
   242c4:	00912a23          	sw	s1,20(sp)
   242c8:	00012823          	sw	zero,16(sp)
   242cc:	00e12e23          	sw	a4,28(sp)
   242d0:	fff78793          	addi	a5,a5,-1 # 7fff <register_fini-0x8075>
   242d4:	e91ff06f          	j	24164 <__extenddftf2+0x7c>

000242d8 <__trunctfdf2>:
   242d8:	00c52583          	lw	a1,12(a0)
   242dc:	00852783          	lw	a5,8(a0)
   242e0:	00452703          	lw	a4,4(a0)
   242e4:	fe010113          	addi	sp,sp,-32
   242e8:	00052683          	lw	a3,0(a0)
   242ec:	00f12423          	sw	a5,8(sp)
   242f0:	00f12c23          	sw	a5,24(sp)
   242f4:	01059793          	slli	a5,a1,0x10
   242f8:	00e12223          	sw	a4,4(sp)
   242fc:	00e12a23          	sw	a4,20(sp)
   24300:	0107d793          	srli	a5,a5,0x10
   24304:	00159713          	slli	a4,a1,0x1
   24308:	00b12623          	sw	a1,12(sp)
   2430c:	00d12023          	sw	a3,0(sp)
   24310:	00d12823          	sw	a3,16(sp)
   24314:	00f12e23          	sw	a5,28(sp)
   24318:	01175713          	srli	a4,a4,0x11
   2431c:	01f5d593          	srli	a1,a1,0x1f
   24320:	01010813          	addi	a6,sp,16
   24324:	01c10613          	addi	a2,sp,28
   24328:	00062783          	lw	a5,0(a2)
   2432c:	ffc62683          	lw	a3,-4(a2)
   24330:	ffc60613          	addi	a2,a2,-4
   24334:	00379793          	slli	a5,a5,0x3
   24338:	01d6d693          	srli	a3,a3,0x1d
   2433c:	00d7e7b3          	or	a5,a5,a3
   24340:	00f62223          	sw	a5,4(a2)
   24344:	fec812e3          	bne	a6,a2,24328 <__trunctfdf2+0x50>
   24348:	01012683          	lw	a3,16(sp)
   2434c:	00170793          	addi	a5,a4,1
   24350:	00369513          	slli	a0,a3,0x3
   24354:	000086b7          	lui	a3,0x8
   24358:	ffe68693          	addi	a3,a3,-2 # 7ffe <register_fini-0x8076>
   2435c:	00a12823          	sw	a0,16(sp)
   24360:	00d7f7b3          	and	a5,a5,a3
   24364:	1c078463          	beqz	a5,2452c <__trunctfdf2+0x254>
   24368:	ffffc7b7          	lui	a5,0xffffc
   2436c:	40078793          	addi	a5,a5,1024 # ffffc400 <__BSS_END__+0xfffd54d4>
   24370:	00f70733          	add	a4,a4,a5
   24374:	7fe00793          	li	a5,2046
   24378:	20e7c663          	blt	a5,a4,24584 <__trunctfdf2+0x2ac>
   2437c:	06e05863          	blez	a4,243ec <__trunctfdf2+0x114>
   24380:	01812803          	lw	a6,24(sp)
   24384:	01c12603          	lw	a2,28(sp)
   24388:	01412783          	lw	a5,20(sp)
   2438c:	01c85693          	srli	a3,a6,0x1c
   24390:	00461613          	slli	a2,a2,0x4
   24394:	00d66633          	or	a2,a2,a3
   24398:	00479693          	slli	a3,a5,0x4
   2439c:	00a6e6b3          	or	a3,a3,a0
   243a0:	01c7d793          	srli	a5,a5,0x1c
   243a4:	00481813          	slli	a6,a6,0x4
   243a8:	00d036b3          	snez	a3,a3
   243ac:	0107e7b3          	or	a5,a5,a6
   243b0:	00f6e6b3          	or	a3,a3,a5
   243b4:	00c12a23          	sw	a2,20(sp)
   243b8:	00d12823          	sw	a3,16(sp)
   243bc:	01012683          	lw	a3,16(sp)
   243c0:	01412783          	lw	a5,20(sp)
   243c4:	0076f613          	andi	a2,a3,7
   243c8:	1c060463          	beqz	a2,24590 <__trunctfdf2+0x2b8>
   243cc:	00f6f613          	andi	a2,a3,15
   243d0:	00400513          	li	a0,4
   243d4:	1aa60e63          	beq	a2,a0,24590 <__trunctfdf2+0x2b8>
   243d8:	00468613          	addi	a2,a3,4
   243dc:	00d636b3          	sltu	a3,a2,a3
   243e0:	00d787b3          	add	a5,a5,a3
   243e4:	00060693          	mv	a3,a2
   243e8:	1a80006f          	j	24590 <__trunctfdf2+0x2b8>
   243ec:	fcc00793          	li	a5,-52
   243f0:	00f75c63          	bge	a4,a5,24408 <__trunctfdf2+0x130>
   243f4:	00012a23          	sw	zero,20(sp)
   243f8:	00100793          	li	a5,1
   243fc:	00f12823          	sw	a5,16(sp)
   24400:	00000713          	li	a4,0
   24404:	fb9ff06f          	j	243bc <__trunctfdf2+0xe4>
   24408:	01c12783          	lw	a5,28(sp)
   2440c:	00080f37          	lui	t5,0x80
   24410:	03d00693          	li	a3,61
   24414:	00ff6f33          	or	t5,t5,a5
   24418:	40e686b3          	sub	a3,a3,a4
   2441c:	01e12e23          	sw	t5,28(sp)
   24420:	4056de93          	srai	t4,a3,0x5
   24424:	00080713          	mv	a4,a6
   24428:	00000793          	li	a5,0
   2442c:	00000e13          	li	t3,0
   24430:	00072503          	lw	a0,0(a4)
   24434:	00178793          	addi	a5,a5,1
   24438:	00470713          	addi	a4,a4,4
   2443c:	00ae6e33          	or	t3,t3,a0
   24440:	fefe98e3          	bne	t4,a5,24430 <__trunctfdf2+0x158>
   24444:	01f6f713          	andi	a4,a3,31
   24448:	002e9693          	slli	a3,t4,0x2
   2444c:	04071063          	bnez	a4,2448c <__trunctfdf2+0x1b4>
   24450:	00300713          	li	a4,3
   24454:	00000793          	li	a5,0
   24458:	41d70733          	sub	a4,a4,t4
   2445c:	00d60533          	add	a0,a2,a3
   24460:	00052503          	lw	a0,0(a0)
   24464:	00178793          	addi	a5,a5,1
   24468:	00460613          	addi	a2,a2,4
   2446c:	fea62e23          	sw	a0,-4(a2)
   24470:	fef756e3          	bge	a4,a5,2445c <__trunctfdf2+0x184>
   24474:	00400713          	li	a4,4
   24478:	41d70733          	sub	a4,a4,t4
   2447c:	00100793          	li	a5,1
   24480:	04e05e63          	blez	a4,244dc <__trunctfdf2+0x204>
   24484:	00070793          	mv	a5,a4
   24488:	0540006f          	j	244dc <__trunctfdf2+0x204>
   2448c:	02010793          	addi	a5,sp,32
   24490:	00d787b3          	add	a5,a5,a3
   24494:	ff07a783          	lw	a5,-16(a5)
   24498:	02000313          	li	t1,32
   2449c:	40e30333          	sub	t1,t1,a4
   244a0:	006797b3          	sll	a5,a5,t1
   244a4:	00d80633          	add	a2,a6,a3
   244a8:	00300693          	li	a3,3
   244ac:	00fe6e33          	or	t3,t3,a5
   244b0:	00000893          	li	a7,0
   244b4:	41d686b3          	sub	a3,a3,t4
   244b8:	00460613          	addi	a2,a2,4
   244bc:	04d8c463          	blt	a7,a3,24504 <__trunctfdf2+0x22c>
   244c0:	00269693          	slli	a3,a3,0x2
   244c4:	02010613          	addi	a2,sp,32
   244c8:	00400793          	li	a5,4
   244cc:	00d606b3          	add	a3,a2,a3
   244d0:	00ef5733          	srl	a4,t5,a4
   244d4:	41d787b3          	sub	a5,a5,t4
   244d8:	fee6a823          	sw	a4,-16(a3)
   244dc:	00400693          	li	a3,4
   244e0:	00279713          	slli	a4,a5,0x2
   244e4:	00e80733          	add	a4,a6,a4
   244e8:	00072023          	sw	zero,0(a4)
   244ec:	00178793          	addi	a5,a5,1
   244f0:	fed798e3          	bne	a5,a3,244e0 <__trunctfdf2+0x208>
   244f4:	01012703          	lw	a4,16(sp)
   244f8:	01c037b3          	snez	a5,t3
   244fc:	00f767b3          	or	a5,a4,a5
   24500:	efdff06f          	j	243fc <__trunctfdf2+0x124>
   24504:	ffc62503          	lw	a0,-4(a2)
   24508:	00062f83          	lw	t6,0(a2)
   2450c:	00289793          	slli	a5,a7,0x2
   24510:	00e55533          	srl	a0,a0,a4
   24514:	006f9fb3          	sll	t6,t6,t1
   24518:	00f807b3          	add	a5,a6,a5
   2451c:	01f56533          	or	a0,a0,t6
   24520:	00a7a023          	sw	a0,0(a5)
   24524:	00188893          	addi	a7,a7,1
   24528:	f91ff06f          	j	244b8 <__trunctfdf2+0x1e0>
   2452c:	01412603          	lw	a2,20(sp)
   24530:	01812783          	lw	a5,24(sp)
   24534:	01c12803          	lw	a6,28(sp)
   24538:	00f666b3          	or	a3,a2,a5
   2453c:	0106e6b3          	or	a3,a3,a6
   24540:	00a6e6b3          	or	a3,a3,a0
   24544:	00071863          	bnez	a4,24554 <__trunctfdf2+0x27c>
   24548:	00d036b3          	snez	a3,a3
   2454c:	00000793          	li	a5,0
   24550:	e75ff06f          	j	243c4 <__trunctfdf2+0xec>
   24554:	0a068e63          	beqz	a3,24610 <__trunctfdf2+0x338>
   24558:	01c65693          	srli	a3,a2,0x1c
   2455c:	00481813          	slli	a6,a6,0x4
   24560:	00479613          	slli	a2,a5,0x4
   24564:	01c7d793          	srli	a5,a5,0x1c
   24568:	00400737          	lui	a4,0x400
   2456c:	00c6e6b3          	or	a3,a3,a2
   24570:	0107e7b3          	or	a5,a5,a6
   24574:	00e7e7b3          	or	a5,a5,a4
   24578:	ff86f693          	andi	a3,a3,-8
   2457c:	7ff00713          	li	a4,2047
   24580:	e45ff06f          	j	243c4 <__trunctfdf2+0xec>
   24584:	00000793          	li	a5,0
   24588:	00000693          	li	a3,0
   2458c:	7ff00713          	li	a4,2047
   24590:	00879613          	slli	a2,a5,0x8
   24594:	00065e63          	bgez	a2,245b0 <__trunctfdf2+0x2d8>
   24598:	00170713          	addi	a4,a4,1 # 400001 <__BSS_END__+0x3d90d5>
   2459c:	7ff00613          	li	a2,2047
   245a0:	06c70c63          	beq	a4,a2,24618 <__trunctfdf2+0x340>
   245a4:	ff800637          	lui	a2,0xff800
   245a8:	fff60613          	addi	a2,a2,-1 # ff7fffff <__BSS_END__+0xff7d90d3>
   245ac:	00c7f7b3          	and	a5,a5,a2
   245b0:	01d79613          	slli	a2,a5,0x1d
   245b4:	0036d693          	srli	a3,a3,0x3
   245b8:	00d666b3          	or	a3,a2,a3
   245bc:	7ff00613          	li	a2,2047
   245c0:	0037d793          	srli	a5,a5,0x3
   245c4:	00c71e63          	bne	a4,a2,245e0 <__trunctfdf2+0x308>
   245c8:	00f6e6b3          	or	a3,a3,a5
   245cc:	00000793          	li	a5,0
   245d0:	00068863          	beqz	a3,245e0 <__trunctfdf2+0x308>
   245d4:	000807b7          	lui	a5,0x80
   245d8:	00000693          	li	a3,0
   245dc:	00000593          	li	a1,0
   245e0:	01471713          	slli	a4,a4,0x14
   245e4:	7ff00637          	lui	a2,0x7ff00
   245e8:	00c79793          	slli	a5,a5,0xc
   245ec:	00c77733          	and	a4,a4,a2
   245f0:	00c7d793          	srli	a5,a5,0xc
   245f4:	01f59593          	slli	a1,a1,0x1f
   245f8:	00f767b3          	or	a5,a4,a5
   245fc:	00b7e733          	or	a4,a5,a1
   24600:	00068513          	mv	a0,a3
   24604:	00070593          	mv	a1,a4
   24608:	02010113          	addi	sp,sp,32
   2460c:	00008067          	ret
   24610:	00000793          	li	a5,0
   24614:	f79ff06f          	j	2458c <__trunctfdf2+0x2b4>
   24618:	00000793          	li	a5,0
   2461c:	00000693          	li	a3,0
   24620:	f91ff06f          	j	245b0 <__trunctfdf2+0x2d8>

00024624 <__mulsi3>:
   24624:	00050613          	mv	a2,a0
   24628:	00000513          	li	a0,0
   2462c:	0015f693          	andi	a3,a1,1
   24630:	00068463          	beqz	a3,24638 <__mulsi3+0x14>
   24634:	00c50533          	add	a0,a0,a2
   24638:	0015d593          	srli	a1,a1,0x1
   2463c:	00161613          	slli	a2,a2,0x1
   24640:	fe0596e3          	bnez	a1,2462c <__mulsi3+0x8>
   24644:	00008067          	ret

00024648 <__divsi3>:
   24648:	06054063          	bltz	a0,246a8 <__umodsi3+0x10>
   2464c:	0605c663          	bltz	a1,246b8 <__umodsi3+0x20>

00024650 <__udivsi3>:
   24650:	00058613          	mv	a2,a1
   24654:	00050593          	mv	a1,a0
   24658:	fff00513          	li	a0,-1
   2465c:	02060c63          	beqz	a2,24694 <__udivsi3+0x44>
   24660:	00100693          	li	a3,1
   24664:	00b67a63          	bgeu	a2,a1,24678 <__udivsi3+0x28>
   24668:	00c05863          	blez	a2,24678 <__udivsi3+0x28>
   2466c:	00161613          	slli	a2,a2,0x1
   24670:	00169693          	slli	a3,a3,0x1
   24674:	feb66ae3          	bltu	a2,a1,24668 <__udivsi3+0x18>
   24678:	00000513          	li	a0,0
   2467c:	00c5e663          	bltu	a1,a2,24688 <__udivsi3+0x38>
   24680:	40c585b3          	sub	a1,a1,a2
   24684:	00d56533          	or	a0,a0,a3
   24688:	0016d693          	srli	a3,a3,0x1
   2468c:	00165613          	srli	a2,a2,0x1
   24690:	fe0696e3          	bnez	a3,2467c <__udivsi3+0x2c>
   24694:	00008067          	ret

00024698 <__umodsi3>:
   24698:	00008293          	mv	t0,ra
   2469c:	fb5ff0ef          	jal	ra,24650 <__udivsi3>
   246a0:	00058513          	mv	a0,a1
   246a4:	00028067          	jr	t0
   246a8:	40a00533          	neg	a0,a0
   246ac:	0005d863          	bgez	a1,246bc <__umodsi3+0x24>
   246b0:	40b005b3          	neg	a1,a1
   246b4:	f9dff06f          	j	24650 <__udivsi3>
   246b8:	40b005b3          	neg	a1,a1
   246bc:	00008293          	mv	t0,ra
   246c0:	f91ff0ef          	jal	ra,24650 <__udivsi3>
   246c4:	40a00533          	neg	a0,a0
   246c8:	00028067          	jr	t0

000246cc <__modsi3>:
   246cc:	00008293          	mv	t0,ra
   246d0:	0005ca63          	bltz	a1,246e4 <__modsi3+0x18>
   246d4:	00054c63          	bltz	a0,246ec <__modsi3+0x20>
   246d8:	f79ff0ef          	jal	ra,24650 <__udivsi3>
   246dc:	00058513          	mv	a0,a1
   246e0:	00028067          	jr	t0
   246e4:	40b005b3          	neg	a1,a1
   246e8:	fe0558e3          	bgez	a0,246d8 <__modsi3+0xc>
   246ec:	40a00533          	neg	a0,a0
   246f0:	f61ff0ef          	jal	ra,24650 <__udivsi3>
   246f4:	40b00533          	neg	a0,a1
   246f8:	00028067          	jr	t0

000246fc <__clzsi2>:
   246fc:	000107b7          	lui	a5,0x10
   24700:	02f57a63          	bgeu	a0,a5,24734 <__clzsi2+0x38>
   24704:	0ff00793          	li	a5,255
   24708:	00a7b7b3          	sltu	a5,a5,a0
   2470c:	00379793          	slli	a5,a5,0x3
   24710:	00025737          	lui	a4,0x25
   24714:	02000693          	li	a3,32
   24718:	40f686b3          	sub	a3,a3,a5
   2471c:	00f55533          	srl	a0,a0,a5
   24720:	33470793          	addi	a5,a4,820 # 25334 <__clz_tab>
   24724:	00a78533          	add	a0,a5,a0
   24728:	00054503          	lbu	a0,0(a0)
   2472c:	40a68533          	sub	a0,a3,a0
   24730:	00008067          	ret
   24734:	01000737          	lui	a4,0x1000
   24738:	01000793          	li	a5,16
   2473c:	fce56ae3          	bltu	a0,a4,24710 <__clzsi2+0x14>
   24740:	01800793          	li	a5,24
   24744:	fcdff06f          	j	24710 <__clzsi2+0x14>
